
PWR_SHUTDOWN.elf:     file format elf32-littlearm

Sections:
Idx Name          Size      VMA       LMA       File off  Algn
  0 .isr_vector   000000c0  08000000  08000000  00001000  2**0
                  CONTENTS, ALLOC, LOAD, READONLY, DATA
  1 .text         00005d0c  080000c0  080000c0  000010c0  2**2
                  CONTENTS, ALLOC, LOAD, READONLY, CODE
  2 .rodata       0000024c  08005dcc  08005dcc  00006dcc  2**2
                  CONTENTS, ALLOC, LOAD, READONLY, DATA
  3 .ARM.extab    00000000  08006018  08006018  00008070  2**0
                  CONTENTS, READONLY
  4 .ARM          00000008  08006018  08006018  00007018  2**2
                  CONTENTS, ALLOC, LOAD, READONLY, DATA
  5 .preinit_array 00000000  08006020  08006020  00008070  2**0
                  CONTENTS, ALLOC, LOAD, DATA
  6 .init_array   00000004  08006020  08006020  00007020  2**2
                  CONTENTS, ALLOC, LOAD, READONLY, DATA
  7 .fini_array   00000004  08006024  08006024  00007024  2**2
                  CONTENTS, ALLOC, LOAD, READONLY, DATA
  8 .data         00000070  20000000  08006028  00008000  2**2
                  CONTENTS, ALLOC, LOAD, DATA
  9 .bss          00000310  20000070  08006098  00008070  2**2
                  ALLOC
 10 ._user_heap_stack 00000600  20000380  08006098  00008380  2**0
                  ALLOC
 11 .ARM.attributes 00000028  00000000  00000000  00008070  2**0
                  CONTENTS, READONLY
 12 .debug_line   00013006  00000000  00000000  00008098  2**0
                  CONTENTS, READONLY, DEBUGGING, OCTETS
 13 .debug_line_str 000000cf  00000000  00000000  0001b09e  2**0
                  CONTENTS, READONLY, DEBUGGING, OCTETS
 14 .debug_info   00011a8c  00000000  00000000  0001b16d  2**0
                  CONTENTS, READONLY, DEBUGGING, OCTETS
 15 .debug_abbrev 00002755  00000000  00000000  0002cbf9  2**0
                  CONTENTS, READONLY, DEBUGGING, OCTETS
 16 .debug_aranges 00000e08  00000000  00000000  0002f350  2**3
                  CONTENTS, READONLY, DEBUGGING, OCTETS
 17 .debug_str    000ab470  00000000  00000000  00030158  2**0
                  CONTENTS, READONLY, DEBUGGING, OCTETS
 18 .debug_rnglists 00000ae1  00000000  00000000  000db5c8  2**0
                  CONTENTS, READONLY, DEBUGGING, OCTETS
 19 .debug_macro  0001aa39  00000000  00000000  000dc0a9  2**0
                  CONTENTS, READONLY, DEBUGGING, OCTETS
 20 .comment      00000043  00000000  00000000  000f6ae2  2**0
                  CONTENTS, READONLY
 21 .debug_frame  000036e4  00000000  00000000  000f6b28  2**2
                  CONTENTS, READONLY, DEBUGGING, OCTETS

Disassembly of section .text:

080000c0 <__do_global_dtors_aux>:
 80000c0:	b510      	push	{r4, lr}
 80000c2:	4c06      	ldr	r4, [pc, #24]	@ (80000dc <__do_global_dtors_aux+0x1c>)
 80000c4:	7823      	ldrb	r3, [r4, #0]
 80000c6:	2b00      	cmp	r3, #0
 80000c8:	d107      	bne.n	80000da <__do_global_dtors_aux+0x1a>
 80000ca:	4b05      	ldr	r3, [pc, #20]	@ (80000e0 <__do_global_dtors_aux+0x20>)
 80000cc:	2b00      	cmp	r3, #0
 80000ce:	d002      	beq.n	80000d6 <__do_global_dtors_aux+0x16>
 80000d0:	4804      	ldr	r0, [pc, #16]	@ (80000e4 <__do_global_dtors_aux+0x24>)
 80000d2:	e000      	b.n	80000d6 <__do_global_dtors_aux+0x16>
 80000d4:	bf00      	nop
 80000d6:	2301      	movs	r3, #1
 80000d8:	7023      	strb	r3, [r4, #0]
 80000da:	bd10      	pop	{r4, pc}
 80000dc:	20000070 	.word	0x20000070
 80000e0:	00000000 	.word	0x00000000
 80000e4:	08005db4 	.word	0x08005db4

080000e8 <frame_dummy>:
 80000e8:	4b04      	ldr	r3, [pc, #16]	@ (80000fc <frame_dummy+0x14>)
 80000ea:	b510      	push	{r4, lr}
 80000ec:	2b00      	cmp	r3, #0
 80000ee:	d003      	beq.n	80000f8 <frame_dummy+0x10>
 80000f0:	4903      	ldr	r1, [pc, #12]	@ (8000100 <frame_dummy+0x18>)
 80000f2:	4804      	ldr	r0, [pc, #16]	@ (8000104 <frame_dummy+0x1c>)
 80000f4:	e000      	b.n	80000f8 <frame_dummy+0x10>
 80000f6:	bf00      	nop
 80000f8:	bd10      	pop	{r4, pc}
 80000fa:	46c0      	nop			@ (mov r8, r8)
 80000fc:	00000000 	.word	0x00000000
 8000100:	20000074 	.word	0x20000074
 8000104:	08005db4 	.word	0x08005db4

08000108 <strlen>:
 8000108:	2300      	movs	r3, #0
 800010a:	5cc2      	ldrb	r2, [r0, r3]
 800010c:	3301      	adds	r3, #1
 800010e:	2a00      	cmp	r2, #0
 8000110:	d1fb      	bne.n	800010a <strlen+0x2>
 8000112:	1e58      	subs	r0, r3, #1
 8000114:	4770      	bx	lr
	...

08000118 <__gnu_thumb1_case_shi>:
 8000118:	b403      	push	{r0, r1}
 800011a:	4671      	mov	r1, lr
 800011c:	0849      	lsrs	r1, r1, #1
 800011e:	0040      	lsls	r0, r0, #1
 8000120:	0049      	lsls	r1, r1, #1
 8000122:	5e09      	ldrsh	r1, [r1, r0]
 8000124:	0049      	lsls	r1, r1, #1
 8000126:	448e      	add	lr, r1
 8000128:	bc03      	pop	{r0, r1}
 800012a:	4770      	bx	lr

0800012c <__udivsi3>:
 800012c:	2200      	movs	r2, #0
 800012e:	0843      	lsrs	r3, r0, #1
 8000130:	428b      	cmp	r3, r1
 8000132:	d374      	bcc.n	800021e <__udivsi3+0xf2>
 8000134:	0903      	lsrs	r3, r0, #4
 8000136:	428b      	cmp	r3, r1
 8000138:	d35f      	bcc.n	80001fa <__udivsi3+0xce>
 800013a:	0a03      	lsrs	r3, r0, #8
 800013c:	428b      	cmp	r3, r1
 800013e:	d344      	bcc.n	80001ca <__udivsi3+0x9e>
 8000140:	0b03      	lsrs	r3, r0, #12
 8000142:	428b      	cmp	r3, r1
 8000144:	d328      	bcc.n	8000198 <__udivsi3+0x6c>
 8000146:	0c03      	lsrs	r3, r0, #16
 8000148:	428b      	cmp	r3, r1
 800014a:	d30d      	bcc.n	8000168 <__udivsi3+0x3c>
 800014c:	22ff      	movs	r2, #255	@ 0xff
 800014e:	0209      	lsls	r1, r1, #8
 8000150:	ba12      	rev	r2, r2
 8000152:	0c03      	lsrs	r3, r0, #16
 8000154:	428b      	cmp	r3, r1
 8000156:	d302      	bcc.n	800015e <__udivsi3+0x32>
 8000158:	1212      	asrs	r2, r2, #8
 800015a:	0209      	lsls	r1, r1, #8
 800015c:	d065      	beq.n	800022a <__udivsi3+0xfe>
 800015e:	0b03      	lsrs	r3, r0, #12
 8000160:	428b      	cmp	r3, r1
 8000162:	d319      	bcc.n	8000198 <__udivsi3+0x6c>
 8000164:	e000      	b.n	8000168 <__udivsi3+0x3c>
 8000166:	0a09      	lsrs	r1, r1, #8
 8000168:	0bc3      	lsrs	r3, r0, #15
 800016a:	428b      	cmp	r3, r1
 800016c:	d301      	bcc.n	8000172 <__udivsi3+0x46>
 800016e:	03cb      	lsls	r3, r1, #15
 8000170:	1ac0      	subs	r0, r0, r3
 8000172:	4152      	adcs	r2, r2
 8000174:	0b83      	lsrs	r3, r0, #14
 8000176:	428b      	cmp	r3, r1
 8000178:	d301      	bcc.n	800017e <__udivsi3+0x52>
 800017a:	038b      	lsls	r3, r1, #14
 800017c:	1ac0      	subs	r0, r0, r3
 800017e:	4152      	adcs	r2, r2
 8000180:	0b43      	lsrs	r3, r0, #13
 8000182:	428b      	cmp	r3, r1
 8000184:	d301      	bcc.n	800018a <__udivsi3+0x5e>
 8000186:	034b      	lsls	r3, r1, #13
 8000188:	1ac0      	subs	r0, r0, r3
 800018a:	4152      	adcs	r2, r2
 800018c:	0b03      	lsrs	r3, r0, #12
 800018e:	428b      	cmp	r3, r1
 8000190:	d301      	bcc.n	8000196 <__udivsi3+0x6a>
 8000192:	030b      	lsls	r3, r1, #12
 8000194:	1ac0      	subs	r0, r0, r3
 8000196:	4152      	adcs	r2, r2
 8000198:	0ac3      	lsrs	r3, r0, #11
 800019a:	428b      	cmp	r3, r1
 800019c:	d301      	bcc.n	80001a2 <__udivsi3+0x76>
 800019e:	02cb      	lsls	r3, r1, #11
 80001a0:	1ac0      	subs	r0, r0, r3
 80001a2:	4152      	adcs	r2, r2
 80001a4:	0a83      	lsrs	r3, r0, #10
 80001a6:	428b      	cmp	r3, r1
 80001a8:	d301      	bcc.n	80001ae <__udivsi3+0x82>
 80001aa:	028b      	lsls	r3, r1, #10
 80001ac:	1ac0      	subs	r0, r0, r3
 80001ae:	4152      	adcs	r2, r2
 80001b0:	0a43      	lsrs	r3, r0, #9
 80001b2:	428b      	cmp	r3, r1
 80001b4:	d301      	bcc.n	80001ba <__udivsi3+0x8e>
 80001b6:	024b      	lsls	r3, r1, #9
 80001b8:	1ac0      	subs	r0, r0, r3
 80001ba:	4152      	adcs	r2, r2
 80001bc:	0a03      	lsrs	r3, r0, #8
 80001be:	428b      	cmp	r3, r1
 80001c0:	d301      	bcc.n	80001c6 <__udivsi3+0x9a>
 80001c2:	020b      	lsls	r3, r1, #8
 80001c4:	1ac0      	subs	r0, r0, r3
 80001c6:	4152      	adcs	r2, r2
 80001c8:	d2cd      	bcs.n	8000166 <__udivsi3+0x3a>
 80001ca:	09c3      	lsrs	r3, r0, #7
 80001cc:	428b      	cmp	r3, r1
 80001ce:	d301      	bcc.n	80001d4 <__udivsi3+0xa8>
 80001d0:	01cb      	lsls	r3, r1, #7
 80001d2:	1ac0      	subs	r0, r0, r3
 80001d4:	4152      	adcs	r2, r2
 80001d6:	0983      	lsrs	r3, r0, #6
 80001d8:	428b      	cmp	r3, r1
 80001da:	d301      	bcc.n	80001e0 <__udivsi3+0xb4>
 80001dc:	018b      	lsls	r3, r1, #6
 80001de:	1ac0      	subs	r0, r0, r3
 80001e0:	4152      	adcs	r2, r2
 80001e2:	0943      	lsrs	r3, r0, #5
 80001e4:	428b      	cmp	r3, r1
 80001e6:	d301      	bcc.n	80001ec <__udivsi3+0xc0>
 80001e8:	014b      	lsls	r3, r1, #5
 80001ea:	1ac0      	subs	r0, r0, r3
 80001ec:	4152      	adcs	r2, r2
 80001ee:	0903      	lsrs	r3, r0, #4
 80001f0:	428b      	cmp	r3, r1
 80001f2:	d301      	bcc.n	80001f8 <__udivsi3+0xcc>
 80001f4:	010b      	lsls	r3, r1, #4
 80001f6:	1ac0      	subs	r0, r0, r3
 80001f8:	4152      	adcs	r2, r2
 80001fa:	08c3      	lsrs	r3, r0, #3
 80001fc:	428b      	cmp	r3, r1
 80001fe:	d301      	bcc.n	8000204 <__udivsi3+0xd8>
 8000200:	00cb      	lsls	r3, r1, #3
 8000202:	1ac0      	subs	r0, r0, r3
 8000204:	4152      	adcs	r2, r2
 8000206:	0883      	lsrs	r3, r0, #2
 8000208:	428b      	cmp	r3, r1
 800020a:	d301      	bcc.n	8000210 <__udivsi3+0xe4>
 800020c:	008b      	lsls	r3, r1, #2
 800020e:	1ac0      	subs	r0, r0, r3
 8000210:	4152      	adcs	r2, r2
 8000212:	0843      	lsrs	r3, r0, #1
 8000214:	428b      	cmp	r3, r1
 8000216:	d301      	bcc.n	800021c <__udivsi3+0xf0>
 8000218:	004b      	lsls	r3, r1, #1
 800021a:	1ac0      	subs	r0, r0, r3
 800021c:	4152      	adcs	r2, r2
 800021e:	1a41      	subs	r1, r0, r1
 8000220:	d200      	bcs.n	8000224 <__udivsi3+0xf8>
 8000222:	4601      	mov	r1, r0
 8000224:	4152      	adcs	r2, r2
 8000226:	4610      	mov	r0, r2
 8000228:	4770      	bx	lr
 800022a:	e7ff      	b.n	800022c <__udivsi3+0x100>
 800022c:	b501      	push	{r0, lr}
 800022e:	2000      	movs	r0, #0
 8000230:	f000 f8f0 	bl	8000414 <__aeabi_idiv0>
 8000234:	bd02      	pop	{r1, pc}
 8000236:	46c0      	nop			@ (mov r8, r8)

08000238 <__aeabi_uidivmod>:
 8000238:	2900      	cmp	r1, #0
 800023a:	d0f7      	beq.n	800022c <__udivsi3+0x100>
 800023c:	e776      	b.n	800012c <__udivsi3>
 800023e:	4770      	bx	lr

08000240 <__divsi3>:
 8000240:	4603      	mov	r3, r0
 8000242:	430b      	orrs	r3, r1
 8000244:	d47f      	bmi.n	8000346 <__divsi3+0x106>
 8000246:	2200      	movs	r2, #0
 8000248:	0843      	lsrs	r3, r0, #1
 800024a:	428b      	cmp	r3, r1
 800024c:	d374      	bcc.n	8000338 <__divsi3+0xf8>
 800024e:	0903      	lsrs	r3, r0, #4
 8000250:	428b      	cmp	r3, r1
 8000252:	d35f      	bcc.n	8000314 <__divsi3+0xd4>
 8000254:	0a03      	lsrs	r3, r0, #8
 8000256:	428b      	cmp	r3, r1
 8000258:	d344      	bcc.n	80002e4 <__divsi3+0xa4>
 800025a:	0b03      	lsrs	r3, r0, #12
 800025c:	428b      	cmp	r3, r1
 800025e:	d328      	bcc.n	80002b2 <__divsi3+0x72>
 8000260:	0c03      	lsrs	r3, r0, #16
 8000262:	428b      	cmp	r3, r1
 8000264:	d30d      	bcc.n	8000282 <__divsi3+0x42>
 8000266:	22ff      	movs	r2, #255	@ 0xff
 8000268:	0209      	lsls	r1, r1, #8
 800026a:	ba12      	rev	r2, r2
 800026c:	0c03      	lsrs	r3, r0, #16
 800026e:	428b      	cmp	r3, r1
 8000270:	d302      	bcc.n	8000278 <__divsi3+0x38>
 8000272:	1212      	asrs	r2, r2, #8
 8000274:	0209      	lsls	r1, r1, #8
 8000276:	d065      	beq.n	8000344 <__divsi3+0x104>
 8000278:	0b03      	lsrs	r3, r0, #12
 800027a:	428b      	cmp	r3, r1
 800027c:	d319      	bcc.n	80002b2 <__divsi3+0x72>
 800027e:	e000      	b.n	8000282 <__divsi3+0x42>
 8000280:	0a09      	lsrs	r1, r1, #8
 8000282:	0bc3      	lsrs	r3, r0, #15
 8000284:	428b      	cmp	r3, r1
 8000286:	d301      	bcc.n	800028c <__divsi3+0x4c>
 8000288:	03cb      	lsls	r3, r1, #15
 800028a:	1ac0      	subs	r0, r0, r3
 800028c:	4152      	adcs	r2, r2
 800028e:	0b83      	lsrs	r3, r0, #14
 8000290:	428b      	cmp	r3, r1
 8000292:	d301      	bcc.n	8000298 <__divsi3+0x58>
 8000294:	038b      	lsls	r3, r1, #14
 8000296:	1ac0      	subs	r0, r0, r3
 8000298:	4152      	adcs	r2, r2
 800029a:	0b43      	lsrs	r3, r0, #13
 800029c:	428b      	cmp	r3, r1
 800029e:	d301      	bcc.n	80002a4 <__divsi3+0x64>
 80002a0:	034b      	lsls	r3, r1, #13
 80002a2:	1ac0      	subs	r0, r0, r3
 80002a4:	4152      	adcs	r2, r2
 80002a6:	0b03      	lsrs	r3, r0, #12
 80002a8:	428b      	cmp	r3, r1
 80002aa:	d301      	bcc.n	80002b0 <__divsi3+0x70>
 80002ac:	030b      	lsls	r3, r1, #12
 80002ae:	1ac0      	subs	r0, r0, r3
 80002b0:	4152      	adcs	r2, r2
 80002b2:	0ac3      	lsrs	r3, r0, #11
 80002b4:	428b      	cmp	r3, r1
 80002b6:	d301      	bcc.n	80002bc <__divsi3+0x7c>
 80002b8:	02cb      	lsls	r3, r1, #11
 80002ba:	1ac0      	subs	r0, r0, r3
 80002bc:	4152      	adcs	r2, r2
 80002be:	0a83      	lsrs	r3, r0, #10
 80002c0:	428b      	cmp	r3, r1
 80002c2:	d301      	bcc.n	80002c8 <__divsi3+0x88>
 80002c4:	028b      	lsls	r3, r1, #10
 80002c6:	1ac0      	subs	r0, r0, r3
 80002c8:	4152      	adcs	r2, r2
 80002ca:	0a43      	lsrs	r3, r0, #9
 80002cc:	428b      	cmp	r3, r1
 80002ce:	d301      	bcc.n	80002d4 <__divsi3+0x94>
 80002d0:	024b      	lsls	r3, r1, #9
 80002d2:	1ac0      	subs	r0, r0, r3
 80002d4:	4152      	adcs	r2, r2
 80002d6:	0a03      	lsrs	r3, r0, #8
 80002d8:	428b      	cmp	r3, r1
 80002da:	d301      	bcc.n	80002e0 <__divsi3+0xa0>
 80002dc:	020b      	lsls	r3, r1, #8
 80002de:	1ac0      	subs	r0, r0, r3
 80002e0:	4152      	adcs	r2, r2
 80002e2:	d2cd      	bcs.n	8000280 <__divsi3+0x40>
 80002e4:	09c3      	lsrs	r3, r0, #7
 80002e6:	428b      	cmp	r3, r1
 80002e8:	d301      	bcc.n	80002ee <__divsi3+0xae>
 80002ea:	01cb      	lsls	r3, r1, #7
 80002ec:	1ac0      	subs	r0, r0, r3
 80002ee:	4152      	adcs	r2, r2
 80002f0:	0983      	lsrs	r3, r0, #6
 80002f2:	428b      	cmp	r3, r1
 80002f4:	d301      	bcc.n	80002fa <__divsi3+0xba>
 80002f6:	018b      	lsls	r3, r1, #6
 80002f8:	1ac0      	subs	r0, r0, r3
 80002fa:	4152      	adcs	r2, r2
 80002fc:	0943      	lsrs	r3, r0, #5
 80002fe:	428b      	cmp	r3, r1
 8000300:	d301      	bcc.n	8000306 <__divsi3+0xc6>
 8000302:	014b      	lsls	r3, r1, #5
 8000304:	1ac0      	subs	r0, r0, r3
 8000306:	4152      	adcs	r2, r2
 8000308:	0903      	lsrs	r3, r0, #4
 800030a:	428b      	cmp	r3, r1
 800030c:	d301      	bcc.n	8000312 <__divsi3+0xd2>
 800030e:	010b      	lsls	r3, r1, #4
 8000310:	1ac0      	subs	r0, r0, r3
 8000312:	4152      	adcs	r2, r2
 8000314:	08c3      	lsrs	r3, r0, #3
 8000316:	428b      	cmp	r3, r1
 8000318:	d301      	bcc.n	800031e <__divsi3+0xde>
 800031a:	00cb      	lsls	r3, r1, #3
 800031c:	1ac0      	subs	r0, r0, r3
 800031e:	4152      	adcs	r2, r2
 8000320:	0883      	lsrs	r3, r0, #2
 8000322:	428b      	cmp	r3, r1
 8000324:	d301      	bcc.n	800032a <__divsi3+0xea>
 8000326:	008b      	lsls	r3, r1, #2
 8000328:	1ac0      	subs	r0, r0, r3
 800032a:	4152      	adcs	r2, r2
 800032c:	0843      	lsrs	r3, r0, #1
 800032e:	428b      	cmp	r3, r1
 8000330:	d301      	bcc.n	8000336 <__divsi3+0xf6>
 8000332:	004b      	lsls	r3, r1, #1
 8000334:	1ac0      	subs	r0, r0, r3
 8000336:	4152      	adcs	r2, r2
 8000338:	1a41      	subs	r1, r0, r1
 800033a:	d200      	bcs.n	800033e <__divsi3+0xfe>
 800033c:	4601      	mov	r1, r0
 800033e:	4152      	adcs	r2, r2
 8000340:	4610      	mov	r0, r2
 8000342:	4770      	bx	lr
 8000344:	e05d      	b.n	8000402 <__divsi3+0x1c2>
 8000346:	0fca      	lsrs	r2, r1, #31
 8000348:	d000      	beq.n	800034c <__divsi3+0x10c>
 800034a:	4249      	negs	r1, r1
 800034c:	1003      	asrs	r3, r0, #32
 800034e:	d300      	bcc.n	8000352 <__divsi3+0x112>
 8000350:	4240      	negs	r0, r0
 8000352:	4053      	eors	r3, r2
 8000354:	2200      	movs	r2, #0
 8000356:	469c      	mov	ip, r3
 8000358:	0903      	lsrs	r3, r0, #4
 800035a:	428b      	cmp	r3, r1
 800035c:	d32d      	bcc.n	80003ba <__divsi3+0x17a>
 800035e:	0a03      	lsrs	r3, r0, #8
 8000360:	428b      	cmp	r3, r1
 8000362:	d312      	bcc.n	800038a <__divsi3+0x14a>
 8000364:	22fc      	movs	r2, #252	@ 0xfc
 8000366:	0189      	lsls	r1, r1, #6
 8000368:	ba12      	rev	r2, r2
 800036a:	0a03      	lsrs	r3, r0, #8
 800036c:	428b      	cmp	r3, r1
 800036e:	d30c      	bcc.n	800038a <__divsi3+0x14a>
 8000370:	0189      	lsls	r1, r1, #6
 8000372:	1192      	asrs	r2, r2, #6
 8000374:	428b      	cmp	r3, r1
 8000376:	d308      	bcc.n	800038a <__divsi3+0x14a>
 8000378:	0189      	lsls	r1, r1, #6
 800037a:	1192      	asrs	r2, r2, #6
 800037c:	428b      	cmp	r3, r1
 800037e:	d304      	bcc.n	800038a <__divsi3+0x14a>
 8000380:	0189      	lsls	r1, r1, #6
 8000382:	d03a      	beq.n	80003fa <__divsi3+0x1ba>
 8000384:	1192      	asrs	r2, r2, #6
 8000386:	e000      	b.n	800038a <__divsi3+0x14a>
 8000388:	0989      	lsrs	r1, r1, #6
 800038a:	09c3      	lsrs	r3, r0, #7
 800038c:	428b      	cmp	r3, r1
 800038e:	d301      	bcc.n	8000394 <__divsi3+0x154>
 8000390:	01cb      	lsls	r3, r1, #7
 8000392:	1ac0      	subs	r0, r0, r3
 8000394:	4152      	adcs	r2, r2
 8000396:	0983      	lsrs	r3, r0, #6
 8000398:	428b      	cmp	r3, r1
 800039a:	d301      	bcc.n	80003a0 <__divsi3+0x160>
 800039c:	018b      	lsls	r3, r1, #6
 800039e:	1ac0      	subs	r0, r0, r3
 80003a0:	4152      	adcs	r2, r2
 80003a2:	0943      	lsrs	r3, r0, #5
 80003a4:	428b      	cmp	r3, r1
 80003a6:	d301      	bcc.n	80003ac <__divsi3+0x16c>
 80003a8:	014b      	lsls	r3, r1, #5
 80003aa:	1ac0      	subs	r0, r0, r3
 80003ac:	4152      	adcs	r2, r2
 80003ae:	0903      	lsrs	r3, r0, #4
 80003b0:	428b      	cmp	r3, r1
 80003b2:	d301      	bcc.n	80003b8 <__divsi3+0x178>
 80003b4:	010b      	lsls	r3, r1, #4
 80003b6:	1ac0      	subs	r0, r0, r3
 80003b8:	4152      	adcs	r2, r2
 80003ba:	08c3      	lsrs	r3, r0, #3
 80003bc:	428b      	cmp	r3, r1
 80003be:	d301      	bcc.n	80003c4 <__divsi3+0x184>
 80003c0:	00cb      	lsls	r3, r1, #3
 80003c2:	1ac0      	subs	r0, r0, r3
 80003c4:	4152      	adcs	r2, r2
 80003c6:	0883      	lsrs	r3, r0, #2
 80003c8:	428b      	cmp	r3, r1
 80003ca:	d301      	bcc.n	80003d0 <__divsi3+0x190>
 80003cc:	008b      	lsls	r3, r1, #2
 80003ce:	1ac0      	subs	r0, r0, r3
 80003d0:	4152      	adcs	r2, r2
 80003d2:	d2d9      	bcs.n	8000388 <__divsi3+0x148>
 80003d4:	0843      	lsrs	r3, r0, #1
 80003d6:	428b      	cmp	r3, r1
 80003d8:	d301      	bcc.n	80003de <__divsi3+0x19e>
 80003da:	004b      	lsls	r3, r1, #1
 80003dc:	1ac0      	subs	r0, r0, r3
 80003de:	4152      	adcs	r2, r2
 80003e0:	1a41      	subs	r1, r0, r1
 80003e2:	d200      	bcs.n	80003e6 <__divsi3+0x1a6>
 80003e4:	4601      	mov	r1, r0
 80003e6:	4663      	mov	r3, ip
 80003e8:	4152      	adcs	r2, r2
 80003ea:	105b      	asrs	r3, r3, #1
 80003ec:	4610      	mov	r0, r2
 80003ee:	d301      	bcc.n	80003f4 <__divsi3+0x1b4>
 80003f0:	4240      	negs	r0, r0
 80003f2:	2b00      	cmp	r3, #0
 80003f4:	d500      	bpl.n	80003f8 <__divsi3+0x1b8>
 80003f6:	4249      	negs	r1, r1
 80003f8:	4770      	bx	lr
 80003fa:	4663      	mov	r3, ip
 80003fc:	105b      	asrs	r3, r3, #1
 80003fe:	d300      	bcc.n	8000402 <__divsi3+0x1c2>
 8000400:	4240      	negs	r0, r0
 8000402:	b501      	push	{r0, lr}
 8000404:	2000      	movs	r0, #0
 8000406:	f000 f805 	bl	8000414 <__aeabi_idiv0>
 800040a:	bd02      	pop	{r1, pc}

0800040c <__aeabi_idivmod>:
 800040c:	2900      	cmp	r1, #0
 800040e:	d0f8      	beq.n	8000402 <__divsi3+0x1c2>
 8000410:	e716      	b.n	8000240 <__divsi3>
 8000412:	4770      	bx	lr

08000414 <__aeabi_idiv0>:
 8000414:	4770      	bx	lr
 8000416:	46c0      	nop			@ (mov r8, r8)

08000418 <__aeabi_uldivmod>:
 8000418:	2b00      	cmp	r3, #0
 800041a:	d111      	bne.n	8000440 <__aeabi_uldivmod+0x28>
 800041c:	2a00      	cmp	r2, #0
 800041e:	d10f      	bne.n	8000440 <__aeabi_uldivmod+0x28>
 8000420:	2900      	cmp	r1, #0
 8000422:	d100      	bne.n	8000426 <__aeabi_uldivmod+0xe>
 8000424:	2800      	cmp	r0, #0
 8000426:	d002      	beq.n	800042e <__aeabi_uldivmod+0x16>
 8000428:	2100      	movs	r1, #0
 800042a:	43c9      	mvns	r1, r1
 800042c:	0008      	movs	r0, r1
 800042e:	b407      	push	{r0, r1, r2}
 8000430:	4802      	ldr	r0, [pc, #8]	@ (800043c <__aeabi_uldivmod+0x24>)
 8000432:	a102      	add	r1, pc, #8	@ (adr r1, 800043c <__aeabi_uldivmod+0x24>)
 8000434:	1840      	adds	r0, r0, r1
 8000436:	9002      	str	r0, [sp, #8]
 8000438:	bd03      	pop	{r0, r1, pc}
 800043a:	46c0      	nop			@ (mov r8, r8)
 800043c:	ffffffd9 	.word	0xffffffd9
 8000440:	b403      	push	{r0, r1}
 8000442:	4668      	mov	r0, sp
 8000444:	b501      	push	{r0, lr}
 8000446:	9802      	ldr	r0, [sp, #8]
 8000448:	f000 f806 	bl	8000458 <__udivmoddi4>
 800044c:	9b01      	ldr	r3, [sp, #4]
 800044e:	469e      	mov	lr, r3
 8000450:	b002      	add	sp, #8
 8000452:	bc0c      	pop	{r2, r3}
 8000454:	4770      	bx	lr
 8000456:	46c0      	nop			@ (mov r8, r8)

08000458 <__udivmoddi4>:
 8000458:	b5f0      	push	{r4, r5, r6, r7, lr}
 800045a:	4657      	mov	r7, sl
 800045c:	464e      	mov	r6, r9
 800045e:	4645      	mov	r5, r8
 8000460:	46de      	mov	lr, fp
 8000462:	b5e0      	push	{r5, r6, r7, lr}
 8000464:	0004      	movs	r4, r0
 8000466:	000d      	movs	r5, r1
 8000468:	4692      	mov	sl, r2
 800046a:	4699      	mov	r9, r3
 800046c:	b083      	sub	sp, #12
 800046e:	428b      	cmp	r3, r1
 8000470:	d830      	bhi.n	80004d4 <__udivmoddi4+0x7c>
 8000472:	d02d      	beq.n	80004d0 <__udivmoddi4+0x78>
 8000474:	4649      	mov	r1, r9
 8000476:	4650      	mov	r0, sl
 8000478:	f000 f8ba 	bl	80005f0 <__clzdi2>
 800047c:	0029      	movs	r1, r5
 800047e:	0006      	movs	r6, r0
 8000480:	0020      	movs	r0, r4
 8000482:	f000 f8b5 	bl	80005f0 <__clzdi2>
 8000486:	1a33      	subs	r3, r6, r0
 8000488:	4698      	mov	r8, r3
 800048a:	3b20      	subs	r3, #32
 800048c:	d434      	bmi.n	80004f8 <__udivmoddi4+0xa0>
 800048e:	469b      	mov	fp, r3
 8000490:	4653      	mov	r3, sl
 8000492:	465a      	mov	r2, fp
 8000494:	4093      	lsls	r3, r2
 8000496:	4642      	mov	r2, r8
 8000498:	001f      	movs	r7, r3
 800049a:	4653      	mov	r3, sl
 800049c:	4093      	lsls	r3, r2
 800049e:	001e      	movs	r6, r3
 80004a0:	42af      	cmp	r7, r5
 80004a2:	d83b      	bhi.n	800051c <__udivmoddi4+0xc4>
 80004a4:	42af      	cmp	r7, r5
 80004a6:	d100      	bne.n	80004aa <__udivmoddi4+0x52>
 80004a8:	e079      	b.n	800059e <__udivmoddi4+0x146>
 80004aa:	465b      	mov	r3, fp
 80004ac:	1ba4      	subs	r4, r4, r6
 80004ae:	41bd      	sbcs	r5, r7
 80004b0:	2b00      	cmp	r3, #0
 80004b2:	da00      	bge.n	80004b6 <__udivmoddi4+0x5e>
 80004b4:	e076      	b.n	80005a4 <__udivmoddi4+0x14c>
 80004b6:	2200      	movs	r2, #0
 80004b8:	2300      	movs	r3, #0
 80004ba:	9200      	str	r2, [sp, #0]
 80004bc:	9301      	str	r3, [sp, #4]
 80004be:	2301      	movs	r3, #1
 80004c0:	465a      	mov	r2, fp
 80004c2:	4093      	lsls	r3, r2
 80004c4:	9301      	str	r3, [sp, #4]
 80004c6:	2301      	movs	r3, #1
 80004c8:	4642      	mov	r2, r8
 80004ca:	4093      	lsls	r3, r2
 80004cc:	9300      	str	r3, [sp, #0]
 80004ce:	e029      	b.n	8000524 <__udivmoddi4+0xcc>
 80004d0:	4282      	cmp	r2, r0
 80004d2:	d9cf      	bls.n	8000474 <__udivmoddi4+0x1c>
 80004d4:	2200      	movs	r2, #0
 80004d6:	2300      	movs	r3, #0
 80004d8:	9200      	str	r2, [sp, #0]
 80004da:	9301      	str	r3, [sp, #4]
 80004dc:	9b0c      	ldr	r3, [sp, #48]	@ 0x30
 80004de:	2b00      	cmp	r3, #0
 80004e0:	d001      	beq.n	80004e6 <__udivmoddi4+0x8e>
 80004e2:	601c      	str	r4, [r3, #0]
 80004e4:	605d      	str	r5, [r3, #4]
 80004e6:	9800      	ldr	r0, [sp, #0]
 80004e8:	9901      	ldr	r1, [sp, #4]
 80004ea:	b003      	add	sp, #12
 80004ec:	bcf0      	pop	{r4, r5, r6, r7}
 80004ee:	46bb      	mov	fp, r7
 80004f0:	46b2      	mov	sl, r6
 80004f2:	46a9      	mov	r9, r5
 80004f4:	46a0      	mov	r8, r4
 80004f6:	bdf0      	pop	{r4, r5, r6, r7, pc}
 80004f8:	4642      	mov	r2, r8
 80004fa:	469b      	mov	fp, r3
 80004fc:	2320      	movs	r3, #32
 80004fe:	1a9b      	subs	r3, r3, r2
 8000500:	4652      	mov	r2, sl
 8000502:	40da      	lsrs	r2, r3
 8000504:	4641      	mov	r1, r8
 8000506:	0013      	movs	r3, r2
 8000508:	464a      	mov	r2, r9
 800050a:	408a      	lsls	r2, r1
 800050c:	0017      	movs	r7, r2
 800050e:	4642      	mov	r2, r8
 8000510:	431f      	orrs	r7, r3
 8000512:	4653      	mov	r3, sl
 8000514:	4093      	lsls	r3, r2
 8000516:	001e      	movs	r6, r3
 8000518:	42af      	cmp	r7, r5
 800051a:	d9c3      	bls.n	80004a4 <__udivmoddi4+0x4c>
 800051c:	2200      	movs	r2, #0
 800051e:	2300      	movs	r3, #0
 8000520:	9200      	str	r2, [sp, #0]
 8000522:	9301      	str	r3, [sp, #4]
 8000524:	4643      	mov	r3, r8
 8000526:	2b00      	cmp	r3, #0
 8000528:	d0d8      	beq.n	80004dc <__udivmoddi4+0x84>
 800052a:	07fb      	lsls	r3, r7, #31
 800052c:	0872      	lsrs	r2, r6, #1
 800052e:	431a      	orrs	r2, r3
 8000530:	4646      	mov	r6, r8
 8000532:	087b      	lsrs	r3, r7, #1
 8000534:	e00e      	b.n	8000554 <__udivmoddi4+0xfc>
 8000536:	42ab      	cmp	r3, r5
 8000538:	d101      	bne.n	800053e <__udivmoddi4+0xe6>
 800053a:	42a2      	cmp	r2, r4
 800053c:	d80c      	bhi.n	8000558 <__udivmoddi4+0x100>
 800053e:	1aa4      	subs	r4, r4, r2
 8000540:	419d      	sbcs	r5, r3
 8000542:	2001      	movs	r0, #1
 8000544:	1924      	adds	r4, r4, r4
 8000546:	416d      	adcs	r5, r5
 8000548:	2100      	movs	r1, #0
 800054a:	3e01      	subs	r6, #1
 800054c:	1824      	adds	r4, r4, r0
 800054e:	414d      	adcs	r5, r1
 8000550:	2e00      	cmp	r6, #0
 8000552:	d006      	beq.n	8000562 <__udivmoddi4+0x10a>
 8000554:	42ab      	cmp	r3, r5
 8000556:	d9ee      	bls.n	8000536 <__udivmoddi4+0xde>
 8000558:	3e01      	subs	r6, #1
 800055a:	1924      	adds	r4, r4, r4
 800055c:	416d      	adcs	r5, r5
 800055e:	2e00      	cmp	r6, #0
 8000560:	d1f8      	bne.n	8000554 <__udivmoddi4+0xfc>
 8000562:	9800      	ldr	r0, [sp, #0]
 8000564:	9901      	ldr	r1, [sp, #4]
 8000566:	465b      	mov	r3, fp
 8000568:	1900      	adds	r0, r0, r4
 800056a:	4169      	adcs	r1, r5
 800056c:	2b00      	cmp	r3, #0
 800056e:	db24      	blt.n	80005ba <__udivmoddi4+0x162>
 8000570:	002b      	movs	r3, r5
 8000572:	465a      	mov	r2, fp
 8000574:	4644      	mov	r4, r8
 8000576:	40d3      	lsrs	r3, r2
 8000578:	002a      	movs	r2, r5
 800057a:	40e2      	lsrs	r2, r4
 800057c:	001c      	movs	r4, r3
 800057e:	465b      	mov	r3, fp
 8000580:	0015      	movs	r5, r2
 8000582:	2b00      	cmp	r3, #0
 8000584:	db2a      	blt.n	80005dc <__udivmoddi4+0x184>
 8000586:	0026      	movs	r6, r4
 8000588:	409e      	lsls	r6, r3
 800058a:	0033      	movs	r3, r6
 800058c:	0026      	movs	r6, r4
 800058e:	4647      	mov	r7, r8
 8000590:	40be      	lsls	r6, r7
 8000592:	0032      	movs	r2, r6
 8000594:	1a80      	subs	r0, r0, r2
 8000596:	4199      	sbcs	r1, r3
 8000598:	9000      	str	r0, [sp, #0]
 800059a:	9101      	str	r1, [sp, #4]
 800059c:	e79e      	b.n	80004dc <__udivmoddi4+0x84>
 800059e:	42a3      	cmp	r3, r4
 80005a0:	d8bc      	bhi.n	800051c <__udivmoddi4+0xc4>
 80005a2:	e782      	b.n	80004aa <__udivmoddi4+0x52>
 80005a4:	4642      	mov	r2, r8
 80005a6:	2320      	movs	r3, #32
 80005a8:	2100      	movs	r1, #0
 80005aa:	1a9b      	subs	r3, r3, r2
 80005ac:	2200      	movs	r2, #0
 80005ae:	9100      	str	r1, [sp, #0]
 80005b0:	9201      	str	r2, [sp, #4]
 80005b2:	2201      	movs	r2, #1
 80005b4:	40da      	lsrs	r2, r3
 80005b6:	9201      	str	r2, [sp, #4]
 80005b8:	e785      	b.n	80004c6 <__udivmoddi4+0x6e>
 80005ba:	4642      	mov	r2, r8
 80005bc:	2320      	movs	r3, #32
 80005be:	1a9b      	subs	r3, r3, r2
 80005c0:	002a      	movs	r2, r5
 80005c2:	4646      	mov	r6, r8
 80005c4:	409a      	lsls	r2, r3
 80005c6:	0023      	movs	r3, r4
 80005c8:	40f3      	lsrs	r3, r6
 80005ca:	4644      	mov	r4, r8
 80005cc:	4313      	orrs	r3, r2
 80005ce:	002a      	movs	r2, r5
 80005d0:	40e2      	lsrs	r2, r4
 80005d2:	001c      	movs	r4, r3
 80005d4:	465b      	mov	r3, fp
 80005d6:	0015      	movs	r5, r2
 80005d8:	2b00      	cmp	r3, #0
 80005da:	dad4      	bge.n	8000586 <__udivmoddi4+0x12e>
 80005dc:	4642      	mov	r2, r8
 80005de:	002f      	movs	r7, r5
 80005e0:	2320      	movs	r3, #32
 80005e2:	0026      	movs	r6, r4
 80005e4:	4097      	lsls	r7, r2
 80005e6:	1a9b      	subs	r3, r3, r2
 80005e8:	40de      	lsrs	r6, r3
 80005ea:	003b      	movs	r3, r7
 80005ec:	4333      	orrs	r3, r6
 80005ee:	e7cd      	b.n	800058c <__udivmoddi4+0x134>

080005f0 <__clzdi2>:
 80005f0:	b510      	push	{r4, lr}
 80005f2:	2900      	cmp	r1, #0
 80005f4:	d103      	bne.n	80005fe <__clzdi2+0xe>
 80005f6:	f000 f807 	bl	8000608 <__clzsi2>
 80005fa:	3020      	adds	r0, #32
 80005fc:	e002      	b.n	8000604 <__clzdi2+0x14>
 80005fe:	0008      	movs	r0, r1
 8000600:	f000 f802 	bl	8000608 <__clzsi2>
 8000604:	bd10      	pop	{r4, pc}
 8000606:	46c0      	nop			@ (mov r8, r8)

08000608 <__clzsi2>:
 8000608:	211c      	movs	r1, #28
 800060a:	2301      	movs	r3, #1
 800060c:	041b      	lsls	r3, r3, #16
 800060e:	4298      	cmp	r0, r3
 8000610:	d301      	bcc.n	8000616 <__clzsi2+0xe>
 8000612:	0c00      	lsrs	r0, r0, #16
 8000614:	3910      	subs	r1, #16
 8000616:	0a1b      	lsrs	r3, r3, #8
 8000618:	4298      	cmp	r0, r3
 800061a:	d301      	bcc.n	8000620 <__clzsi2+0x18>
 800061c:	0a00      	lsrs	r0, r0, #8
 800061e:	3908      	subs	r1, #8
 8000620:	091b      	lsrs	r3, r3, #4
 8000622:	4298      	cmp	r0, r3
 8000624:	d301      	bcc.n	800062a <__clzsi2+0x22>
 8000626:	0900      	lsrs	r0, r0, #4
 8000628:	3904      	subs	r1, #4
 800062a:	a202      	add	r2, pc, #8	@ (adr r2, 8000634 <__clzsi2+0x2c>)
 800062c:	5c10      	ldrb	r0, [r2, r0]
 800062e:	1840      	adds	r0, r0, r1
 8000630:	4770      	bx	lr
 8000632:	46c0      	nop			@ (mov r8, r8)
 8000634:	02020304 	.word	0x02020304
 8000638:	01010101 	.word	0x01010101
	...

08000644 <Reset_Handler>:

  .section .text.Reset_Handler
  .weak Reset_Handler
  .type Reset_Handler, %function
Reset_Handler:
  ldr   r0, =_estack
 8000644:	480d      	ldr	r0, [pc, #52]	@ (800067c <LoopForever+0x2>)
  mov   sp, r0          /* set stack pointer */
 8000646:	4685      	mov	sp, r0
/* Call the clock system initialization function.*/
  bl  SystemInit
 8000648:	f001 f82a 	bl	80016a0 <SystemInit>

/* Copy the data segment initializers from flash to SRAM */
  ldr r0, =_sdata
 800064c:	480c      	ldr	r0, [pc, #48]	@ (8000680 <LoopForever+0x6>)
  ldr r1, =_edata
 800064e:	490d      	ldr	r1, [pc, #52]	@ (8000684 <LoopForever+0xa>)
  ldr r2, =_sidata
 8000650:	4a0d      	ldr	r2, [pc, #52]	@ (8000688 <LoopForever+0xe>)
  movs r3, #0
 8000652:	2300      	movs	r3, #0
  b LoopCopyDataInit
 8000654:	e002      	b.n	800065c <LoopCopyDataInit>

08000656 <CopyDataInit>:

CopyDataInit:
  ldr r4, [r2, r3]
 8000656:	58d4      	ldr	r4, [r2, r3]
  str r4, [r0, r3]
 8000658:	50c4      	str	r4, [r0, r3]
  adds r3, r3, #4
 800065a:	3304      	adds	r3, #4

0800065c <LoopCopyDataInit>:

LoopCopyDataInit:
  adds r4, r0, r3
 800065c:	18c4      	adds	r4, r0, r3
  cmp r4, r1
 800065e:	428c      	cmp	r4, r1
  bcc CopyDataInit
 8000660:	d3f9      	bcc.n	8000656 <CopyDataInit>

/* Zero fill the bss segment. */
  ldr r2, =_sbss
 8000662:	4a0a      	ldr	r2, [pc, #40]	@ (800068c <LoopForever+0x12>)
  ldr r4, =_ebss
 8000664:	4c0a      	ldr	r4, [pc, #40]	@ (8000690 <LoopForever+0x16>)
  movs r3, #0
 8000666:	2300      	movs	r3, #0
  b LoopFillZerobss
 8000668:	e001      	b.n	800066e <LoopFillZerobss>

0800066a <FillZerobss>:

FillZerobss:
  str  r3, [r2]
 800066a:	6013      	str	r3, [r2, #0]
  adds r2, r2, #4
 800066c:	3204      	adds	r2, #4

0800066e <LoopFillZerobss>:

LoopFillZerobss:
  cmp r2, r4
 800066e:	42a2      	cmp	r2, r4
  bcc FillZerobss
 8000670:	d3fb      	bcc.n	800066a <FillZerobss>

/* Call static constructors */
  bl __libc_init_array
 8000672:	f004 ff33 	bl	80054dc <__libc_init_array>
/* Call the application's entry point.*/
  bl main
 8000676:	f000 f8a7 	bl	80007c8 <main>

0800067a <LoopForever>:

LoopForever:
  b LoopForever
 800067a:	e7fe      	b.n	800067a <LoopForever>
  ldr   r0, =_estack
 800067c:	20002000 	.word	0x20002000
  ldr r0, =_sdata
 8000680:	20000000 	.word	0x20000000
  ldr r1, =_edata
 8000684:	20000070 	.word	0x20000070
  ldr r2, =_sidata
 8000688:	08006028 	.word	0x08006028
  ldr r2, =_sbss
 800068c:	20000070 	.word	0x20000070
  ldr r4, =_ebss
 8000690:	20000380 	.word	0x20000380

08000694 <ADC_COMP1_IRQHandler>:
 * @retval : None
*/
  .section .text.Default_Handler,"ax",%progbits
Default_Handler:
Infinite_Loop:
  b Infinite_Loop
 8000694:	e7fe      	b.n	8000694 <ADC_COMP1_IRQHandler>

08000696 <LL_LPTIM_Enable>:
  * @rmtoll CR           ENABLE        LL_LPTIM_Enable
  * @param  LPTIMx Low-Power Timer instance
  * @retval None
  */
__STATIC_INLINE void LL_LPTIM_Enable(LPTIM_TypeDef *LPTIMx)
{
 8000696:	b580      	push	{r7, lr}
 8000698:	b082      	sub	sp, #8
 800069a:	af00      	add	r7, sp, #0
 800069c:	6078      	str	r0, [r7, #4]
  SET_BIT(LPTIMx->CR, LPTIM_CR_ENABLE);
 800069e:	687b      	ldr	r3, [r7, #4]
 80006a0:	691b      	ldr	r3, [r3, #16]
 80006a2:	2201      	movs	r2, #1
 80006a4:	431a      	orrs	r2, r3
 80006a6:	687b      	ldr	r3, [r7, #4]
 80006a8:	611a      	str	r2, [r3, #16]
}
 80006aa:	46c0      	nop			@ (mov r8, r8)
 80006ac:	46bd      	mov	sp, r7
 80006ae:	b002      	add	sp, #8
 80006b0:	bd80      	pop	{r7, pc}

080006b2 <LL_LPTIM_StartCounter>:
  *         @arg @ref LL_LPTIM_OPERATING_MODE_CONTINUOUS
  *         @arg @ref LL_LPTIM_OPERATING_MODE_ONESHOT
  * @retval None
  */
__STATIC_INLINE void LL_LPTIM_StartCounter(LPTIM_TypeDef *LPTIMx, uint32_t OperatingMode)
{
 80006b2:	b580      	push	{r7, lr}
 80006b4:	b082      	sub	sp, #8
 80006b6:	af00      	add	r7, sp, #0
 80006b8:	6078      	str	r0, [r7, #4]
 80006ba:	6039      	str	r1, [r7, #0]
  MODIFY_REG(LPTIMx->CR, LPTIM_CR_CNTSTRT | LPTIM_CR_SNGSTRT, OperatingMode);
 80006bc:	687b      	ldr	r3, [r7, #4]
 80006be:	691b      	ldr	r3, [r3, #16]
 80006c0:	2206      	movs	r2, #6
 80006c2:	4393      	bics	r3, r2
 80006c4:	001a      	movs	r2, r3
 80006c6:	683b      	ldr	r3, [r7, #0]
 80006c8:	431a      	orrs	r2, r3
 80006ca:	687b      	ldr	r3, [r7, #4]
 80006cc:	611a      	str	r2, [r3, #16]
}
 80006ce:	46c0      	nop			@ (mov r8, r8)
 80006d0:	46bd      	mov	sp, r7
 80006d2:	b002      	add	sp, #8
 80006d4:	bd80      	pop	{r7, pc}

080006d6 <LL_LPTIM_SetAutoReload>:
  * @param  LPTIMx Low-Power Timer instance
  * @param  AutoReload Value between Min_Data=0x0001 and Max_Data=0xFFFF
  * @retval None
  */
__STATIC_INLINE void LL_LPTIM_SetAutoReload(LPTIM_TypeDef *LPTIMx, uint32_t AutoReload)
{
 80006d6:	b580      	push	{r7, lr}
 80006d8:	b082      	sub	sp, #8
 80006da:	af00      	add	r7, sp, #0
 80006dc:	6078      	str	r0, [r7, #4]
 80006de:	6039      	str	r1, [r7, #0]
  MODIFY_REG(LPTIMx->ARR, LPTIM_ARR_ARR, AutoReload);
 80006e0:	687b      	ldr	r3, [r7, #4]
 80006e2:	699b      	ldr	r3, [r3, #24]
 80006e4:	0c1b      	lsrs	r3, r3, #16
 80006e6:	041a      	lsls	r2, r3, #16
 80006e8:	683b      	ldr	r3, [r7, #0]
 80006ea:	431a      	orrs	r2, r3
 80006ec:	687b      	ldr	r3, [r7, #4]
 80006ee:	619a      	str	r2, [r3, #24]
}
 80006f0:	46c0      	nop			@ (mov r8, r8)
 80006f2:	46bd      	mov	sp, r7
 80006f4:	b002      	add	sp, #8
 80006f6:	bd80      	pop	{r7, pc}

080006f8 <LL_LPTIM_OC_SetCompareCH1>:
  * @param  LPTIMx Low-Power Timer instance
  * @param  CompareValue Value between Min_Data=0x00 and Max_Data=0xFFFF
  * @retval None
  */
__STATIC_INLINE void LL_LPTIM_OC_SetCompareCH1(LPTIM_TypeDef *LPTIMx, uint32_t CompareValue)
{
 80006f8:	b580      	push	{r7, lr}
 80006fa:	b082      	sub	sp, #8
 80006fc:	af00      	add	r7, sp, #0
 80006fe:	6078      	str	r0, [r7, #4]
 8000700:	6039      	str	r1, [r7, #0]
  MODIFY_REG(LPTIMx->CCR1, LPTIM_CCR1_CCR1, CompareValue);
 8000702:	687b      	ldr	r3, [r7, #4]
 8000704:	695b      	ldr	r3, [r3, #20]
 8000706:	0c1b      	lsrs	r3, r3, #16
 8000708:	041a      	lsls	r2, r3, #16
 800070a:	683b      	ldr	r3, [r7, #0]
 800070c:	431a      	orrs	r2, r3
 800070e:	687b      	ldr	r3, [r7, #4]
 8000710:	615a      	str	r2, [r3, #20]
}
 8000712:	46c0      	nop			@ (mov r8, r8)
 8000714:	46bd      	mov	sp, r7
 8000716:	b002      	add	sp, #8
 8000718:	bd80      	pop	{r7, pc}

0800071a <LL_LPTIM_GetCounter>:
  * @rmtoll CNT          CNT           LL_LPTIM_GetCounter
  * @param  LPTIMx Low-Power Timer instance
  * @retval Counter value
  */
__STATIC_INLINE uint32_t LL_LPTIM_GetCounter(const LPTIM_TypeDef *LPTIMx)
{
 800071a:	b580      	push	{r7, lr}
 800071c:	b082      	sub	sp, #8
 800071e:	af00      	add	r7, sp, #0
 8000720:	6078      	str	r0, [r7, #4]
  return (uint32_t)(READ_BIT(LPTIMx->CNT, LPTIM_CNT_CNT));
 8000722:	687b      	ldr	r3, [r7, #4]
 8000724:	69db      	ldr	r3, [r3, #28]
 8000726:	041b      	lsls	r3, r3, #16
 8000728:	0c1b      	lsrs	r3, r3, #16
}
 800072a:	0018      	movs	r0, r3
 800072c:	46bd      	mov	sp, r7
 800072e:	b002      	add	sp, #8
 8000730:	bd80      	pop	{r7, pc}

08000732 <LL_LPTIM_SetEncoderMode>:
  *         @arg @ref LL_LPTIM_ENCODER_MODE_FALLING
  *         @arg @ref LL_LPTIM_ENCODER_MODE_RISING_FALLING
  * @retval None
  */
__STATIC_INLINE void LL_LPTIM_SetEncoderMode(LPTIM_TypeDef *LPTIMx, uint32_t EncoderMode)
{
 8000732:	b580      	push	{r7, lr}
 8000734:	b082      	sub	sp, #8
 8000736:	af00      	add	r7, sp, #0
 8000738:	6078      	str	r0, [r7, #4]
 800073a:	6039      	str	r1, [r7, #0]
  MODIFY_REG(LPTIMx->CFGR, LPTIM_CFGR_CKPOL, EncoderMode);
 800073c:	687b      	ldr	r3, [r7, #4]
 800073e:	68db      	ldr	r3, [r3, #12]
 8000740:	2206      	movs	r2, #6
 8000742:	4393      	bics	r3, r2
 8000744:	001a      	movs	r2, r3
 8000746:	683b      	ldr	r3, [r7, #0]
 8000748:	431a      	orrs	r2, r3
 800074a:	687b      	ldr	r3, [r7, #4]
 800074c:	60da      	str	r2, [r3, #12]
}
 800074e:	46c0      	nop			@ (mov r8, r8)
 8000750:	46bd      	mov	sp, r7
 8000752:	b002      	add	sp, #8
 8000754:	bd80      	pop	{r7, pc}

08000756 <LL_LPTIM_EnableEncoderMode>:
  * @rmtoll CFGR         ENC           LL_LPTIM_EnableEncoderMode
  * @param  LPTIMx Low-Power Timer instance
  * @retval None
  */
__STATIC_INLINE void LL_LPTIM_EnableEncoderMode(LPTIM_TypeDef *LPTIMx)
{
 8000756:	b580      	push	{r7, lr}
 8000758:	b082      	sub	sp, #8
 800075a:	af00      	add	r7, sp, #0
 800075c:	6078      	str	r0, [r7, #4]
  SET_BIT(LPTIMx->CFGR, LPTIM_CFGR_ENC);
 800075e:	687b      	ldr	r3, [r7, #4]
 8000760:	68db      	ldr	r3, [r3, #12]
 8000762:	2280      	movs	r2, #128	@ 0x80
 8000764:	0452      	lsls	r2, r2, #17
 8000766:	431a      	orrs	r2, r3
 8000768:	687b      	ldr	r3, [r7, #4]
 800076a:	60da      	str	r2, [r3, #12]
}
 800076c:	46c0      	nop			@ (mov r8, r8)
 800076e:	46bd      	mov	sp, r7
 8000770:	b002      	add	sp, #8
 8000772:	bd80      	pop	{r7, pc}

08000774 <LL_LPTIM_EnableIT_ARRM>:
  * @rmtoll DIER          ARRMIE        LL_LPTIM_EnableIT_ARRM
  * @param  LPTIMx Low-Power Timer instance
  * @retval None
  */
__STATIC_INLINE void LL_LPTIM_EnableIT_ARRM(LPTIM_TypeDef *LPTIMx)
{
 8000774:	b580      	push	{r7, lr}
 8000776:	b082      	sub	sp, #8
 8000778:	af00      	add	r7, sp, #0
 800077a:	6078      	str	r0, [r7, #4]
  SET_BIT(LPTIMx->DIER, LPTIM_DIER_ARRMIE);
 800077c:	687b      	ldr	r3, [r7, #4]
 800077e:	689b      	ldr	r3, [r3, #8]
 8000780:	2202      	movs	r2, #2
 8000782:	431a      	orrs	r2, r3
 8000784:	687b      	ldr	r3, [r7, #4]
 8000786:	609a      	str	r2, [r3, #8]
}
 8000788:	46c0      	nop			@ (mov r8, r8)
 800078a:	46bd      	mov	sp, r7
 800078c:	b002      	add	sp, #8
 800078e:	bd80      	pop	{r7, pc}

08000790 <LL_LPTIM_EnableIT_UP>:
  * @rmtoll DIER         UPIE          LL_LPTIM_EnableIT_UP
  * @param  LPTIMx Low-Power Timer instance
  * @retval None
  */
__STATIC_INLINE void LL_LPTIM_EnableIT_UP(LPTIM_TypeDef *LPTIMx)
{
 8000790:	b580      	push	{r7, lr}
 8000792:	b082      	sub	sp, #8
 8000794:	af00      	add	r7, sp, #0
 8000796:	6078      	str	r0, [r7, #4]
  SET_BIT(LPTIMx->DIER, LPTIM_DIER_UPIE);
 8000798:	687b      	ldr	r3, [r7, #4]
 800079a:	689b      	ldr	r3, [r3, #8]
 800079c:	2220      	movs	r2, #32
 800079e:	431a      	orrs	r2, r3
 80007a0:	687b      	ldr	r3, [r7, #4]
 80007a2:	609a      	str	r2, [r3, #8]
}
 80007a4:	46c0      	nop			@ (mov r8, r8)
 80007a6:	46bd      	mov	sp, r7
 80007a8:	b002      	add	sp, #8
 80007aa:	bd80      	pop	{r7, pc}

080007ac <LL_LPTIM_EnableIT_DOWN>:
  * @rmtoll DIER         DOWNIE        LL_LPTIM_EnableIT_DOWN
  * @param  LPTIMx Low-Power Timer instance
  * @retval None
  */
__STATIC_INLINE void LL_LPTIM_EnableIT_DOWN(LPTIM_TypeDef *LPTIMx)
{
 80007ac:	b580      	push	{r7, lr}
 80007ae:	b082      	sub	sp, #8
 80007b0:	af00      	add	r7, sp, #0
 80007b2:	6078      	str	r0, [r7, #4]
  SET_BIT(LPTIMx->DIER, LPTIM_DIER_DOWNIE);
 80007b4:	687b      	ldr	r3, [r7, #4]
 80007b6:	689b      	ldr	r3, [r3, #8]
 80007b8:	2240      	movs	r2, #64	@ 0x40
 80007ba:	431a      	orrs	r2, r3
 80007bc:	687b      	ldr	r3, [r7, #4]
 80007be:	609a      	str	r2, [r3, #8]
}
 80007c0:	46c0      	nop			@ (mov r8, r8)
 80007c2:	46bd      	mov	sp, r7
 80007c4:	b002      	add	sp, #8
 80007c6:	bd80      	pop	{r7, pc}

080007c8 <main>:
/**
  * @brief  The application entry point.
  * @retval int
  */
int main(void)
{
 80007c8:	b580      	push	{r7, lr}
 80007ca:	b082      	sub	sp, #8
 80007cc:	af00      	add	r7, sp, #0
  /* USER CODE END 1 */

  /* MCU Configuration--------------------------------------------------------*/

  /* Reset of all peripherals, Initializes the Flash interface and the Systick. */
  HAL_Init();
 80007ce:	f000 ff93 	bl	80016f8 <HAL_Init>

  /* USER CODE BEGIN Init */
  pConfig->enableErrorPatternCheck = false; // Initialize to a known state
 80007d2:	4b27      	ldr	r3, [pc, #156]	@ (8000870 <main+0xa8>)
 80007d4:	681b      	ldr	r3, [r3, #0]
 80007d6:	2200      	movs	r2, #0
 80007d8:	701a      	strb	r2, [r3, #0]
  /* Configure LED4 */
  BSP_LED_Init(LED4);
 80007da:	2000      	movs	r0, #0
 80007dc:	f000 fe28 	bl	8001430 <BSP_LED_Init>
  /* USER CODE END Init */

  /* Configure the system clock */
  SystemClock_Config();
 80007e0:	f000 f854 	bl	800088c <SystemClock_Config>

  /* USER CODE BEGIN SysInit */

  /* User push-button (EXTI_Line13) will be used to wakeup the system from Stop mode */
  BSP_PB_Init(BUTTON_USER, BUTTON_MODE_EXTI);
 80007e4:	2101      	movs	r1, #1
 80007e6:	2000      	movs	r0, #0
 80007e8:	f000 fec6 	bl	8001578 <BSP_PB_Init>
  /* USER CODE END SysInit */

  /* Initialize all configured peripherals */
  MX_GPIO_Init();
 80007ec:	f000 f964 	bl	8000ab8 <MX_GPIO_Init>
  MX_USART2_UART_Init();
 80007f0:	f000 f914 	bl	8000a1c <MX_USART2_UART_Init>
  MX_LPTIM1_Init();
 80007f4:	f000 f8aa 	bl	800094c <MX_LPTIM1_Init>
  MX_RTC_Init();
 80007f8:	f000 f8e0 	bl	80009bc <MX_RTC_Init>
  /* USER CODE BEGIN 2 */
  /* Enable Power Clock */
  __HAL_RCC_PWR_CLK_ENABLE();
 80007fc:	4b1d      	ldr	r3, [pc, #116]	@ (8000874 <main+0xac>)
 80007fe:	6d9a      	ldr	r2, [r3, #88]	@ 0x58
 8000800:	4b1c      	ldr	r3, [pc, #112]	@ (8000874 <main+0xac>)
 8000802:	2180      	movs	r1, #128	@ 0x80
 8000804:	0549      	lsls	r1, r1, #21
 8000806:	430a      	orrs	r2, r1
 8000808:	659a      	str	r2, [r3, #88]	@ 0x58
 800080a:	4b1a      	ldr	r3, [pc, #104]	@ (8000874 <main+0xac>)
 800080c:	6d9a      	ldr	r2, [r3, #88]	@ 0x58
 800080e:	2380      	movs	r3, #128	@ 0x80
 8000810:	055b      	lsls	r3, r3, #21
 8000812:	4013      	ands	r3, r2
 8000814:	607b      	str	r3, [r7, #4]
 8000816:	687b      	ldr	r3, [r7, #4]

  /* Ensure that MSI is wake-up system clock */
  __HAL_RCC_WAKEUPSTOP_CLK_CONFIG(RCC_STOP_WAKEUPCLOCK_MSI);
 8000818:	4b16      	ldr	r3, [pc, #88]	@ (8000874 <main+0xac>)
 800081a:	689a      	ldr	r2, [r3, #8]
 800081c:	4b15      	ldr	r3, [pc, #84]	@ (8000874 <main+0xac>)
 800081e:	4916      	ldr	r1, [pc, #88]	@ (8000878 <main+0xb0>)
 8000820:	400a      	ands	r2, r1
 8000822:	609a      	str	r2, [r3, #8]

  //==========================================================
  TRACSENS_StartCounting();
 8000824:	f000 fa94 	bl	8000d50 <TRACSENS_StartCounting>
  
	if (HAL_LPTIM_Counter_Start_IT(&hlptim1) != HAL_OK)
 8000828:	4b14      	ldr	r3, [pc, #80]	@ (800087c <main+0xb4>)
 800082a:	0018      	movs	r0, r3
 800082c:	f001 fc6a 	bl	8002104 <HAL_LPTIM_Counter_Start_IT>
 8000830:	1e03      	subs	r3, r0, #0
 8000832:	d001      	beq.n	8000838 <main+0x70>
	{
    Error_Handler();
 8000834:	f000 fc64 	bl	8001100 <Error_Handler>
	// __HAL_LPTIM_DISABLE_IT(&hlptim1, LPTIM_IT_ARROK);
  
	// uint32_t value = LL_LPTIM_OC_GetCompareCH1(LPTIM1);
  
  // UART_Printf("main start %ld\r\n",value);
  UART_Printf("main start \r\n");
 8000838:	4b11      	ldr	r3, [pc, #68]	@ (8000880 <main+0xb8>)
 800083a:	0018      	movs	r0, r3
 800083c:	f000 fc34 	bl	80010a8 <UART_Printf>
  
  // Initialize the last counter value on startup
  lLastCounterValue = TRACSENS_GetCounter();
 8000840:	f000 f9d0 	bl	8000be4 <TRACSENS_GetCounter>
 8000844:	0002      	movs	r2, r0
 8000846:	4b0f      	ldr	r3, [pc, #60]	@ (8000884 <main+0xbc>)
 8000848:	601a      	str	r2, [r3, #0]
  {
    /* USER CODE END WHILE */

    /* USER CODE BEGIN 3 */
    /* Insert 5 second delay */
    TRACSENS_DisplayInfo();
 800084a:	f000 f995 	bl	8000b78 <TRACSENS_DisplayInfo>
    HAL_Delay(3000);
 800084e:	4b0e      	ldr	r3, [pc, #56]	@ (8000888 <main+0xc0>)
 8000850:	0018      	movs	r0, r3
 8000852:	f000 ffcf 	bl	80017f4 <HAL_Delay>
    /* Turn off LED4 */
    BSP_LED_Off(LED4);
 8000856:	2000      	movs	r0, #0
 8000858:	f000 fe4a 	bl	80014f0 <BSP_LED_Off>

  /* Suspend tick */
   HAL_SuspendTick();
 800085c:	f000 ffee 	bl	800183c <HAL_SuspendTick>
   HAL_PWREx_EnterSTOP2Mode(PWR_STOPENTRY_WFI);
 8000860:	2001      	movs	r0, #1
 8000862:	f002 f8ef 	bl	8002a44 <HAL_PWREx_EnterSTOP2Mode>
    /* ... STOP 1 mode ... */

    /* Re-configure the system clock to 48 MHz based on MSI, enable and
       select PLL as system clock source (PLL is disabled in STOP mode) */

    SYSCLKConfig_STOP();
 8000866:	f000 fb97 	bl	8000f98 <SYSCLKConfig_STOP>
    TRACSENS_DisplayInfo();
 800086a:	46c0      	nop			@ (mov r8, r8)
 800086c:	e7ed      	b.n	800084a <main+0x82>
 800086e:	46c0      	nop			@ (mov r8, r8)
 8000870:	20000000 	.word	0x20000000
 8000874:	40021000 	.word	0x40021000
 8000878:	ffff7fff 	.word	0xffff7fff
 800087c:	2000008c 	.word	0x2000008c
 8000880:	08005dcc 	.word	0x08005dcc
 8000884:	20000200 	.word	0x20000200
 8000888:	00000bb8 	.word	0x00000bb8

0800088c <SystemClock_Config>:
/**
  * @brief System Clock Configuration
  * @retval None
  */
void SystemClock_Config(void)
{
 800088c:	b590      	push	{r4, r7, lr}
 800088e:	b097      	sub	sp, #92	@ 0x5c
 8000890:	af00      	add	r7, sp, #0
  RCC_OscInitTypeDef RCC_OscInitStruct = {0};
 8000892:	2410      	movs	r4, #16
 8000894:	193b      	adds	r3, r7, r4
 8000896:	0018      	movs	r0, r3
 8000898:	2348      	movs	r3, #72	@ 0x48
 800089a:	001a      	movs	r2, r3
 800089c:	2100      	movs	r1, #0
 800089e:	f004 fe0f 	bl	80054c0 <memset>
  RCC_ClkInitTypeDef RCC_ClkInitStruct = {0};
 80008a2:	003b      	movs	r3, r7
 80008a4:	0018      	movs	r0, r3
 80008a6:	2310      	movs	r3, #16
 80008a8:	001a      	movs	r2, r3
 80008aa:	2100      	movs	r1, #0
 80008ac:	f004 fe08 	bl	80054c0 <memset>

  /** Configure the main internal regulator output voltage
  */
  HAL_PWREx_ControlVoltageScaling(PWR_REGULATOR_VOLTAGE_SCALE1);
 80008b0:	2380      	movs	r3, #128	@ 0x80
 80008b2:	009b      	lsls	r3, r3, #2
 80008b4:	0018      	movs	r0, r3
 80008b6:	f002 f859 	bl	800296c <HAL_PWREx_ControlVoltageScaling>

  /** Initializes the RCC Oscillators according to the specified parameters
  * in the RCC_OscInitTypeDef structure.
  */
  RCC_OscInitStruct.OscillatorType = RCC_OSCILLATORTYPE_LSI|RCC_OSCILLATORTYPE_MSI;
 80008ba:	0021      	movs	r1, r4
 80008bc:	187b      	adds	r3, r7, r1
 80008be:	2218      	movs	r2, #24
 80008c0:	601a      	str	r2, [r3, #0]
  RCC_OscInitStruct.LSIState = RCC_LSI_ON;
 80008c2:	187b      	adds	r3, r7, r1
 80008c4:	2201      	movs	r2, #1
 80008c6:	615a      	str	r2, [r3, #20]
  RCC_OscInitStruct.MSIState = RCC_MSI_ON;
 80008c8:	187b      	adds	r3, r7, r1
 80008ca:	2201      	movs	r2, #1
 80008cc:	61da      	str	r2, [r3, #28]
  RCC_OscInitStruct.MSICalibrationValue = RCC_MSICALIBRATION_DEFAULT;
 80008ce:	187b      	adds	r3, r7, r1
 80008d0:	2200      	movs	r2, #0
 80008d2:	621a      	str	r2, [r3, #32]
  RCC_OscInitStruct.MSIClockRange = RCC_MSIRANGE_11;
 80008d4:	187b      	adds	r3, r7, r1
 80008d6:	22b0      	movs	r2, #176	@ 0xb0
 80008d8:	625a      	str	r2, [r3, #36]	@ 0x24
  RCC_OscInitStruct.PLL.PLLState = RCC_PLL_ON;
 80008da:	187b      	adds	r3, r7, r1
 80008dc:	2202      	movs	r2, #2
 80008de:	629a      	str	r2, [r3, #40]	@ 0x28
  RCC_OscInitStruct.PLL.PLLSource = RCC_PLLSOURCE_MSI;
 80008e0:	187b      	adds	r3, r7, r1
 80008e2:	2201      	movs	r2, #1
 80008e4:	62da      	str	r2, [r3, #44]	@ 0x2c
  RCC_OscInitStruct.PLL.PLLM = RCC_PLLM_DIV8;
 80008e6:	187b      	adds	r3, r7, r1
 80008e8:	2270      	movs	r2, #112	@ 0x70
 80008ea:	631a      	str	r2, [r3, #48]	@ 0x30
  RCC_OscInitStruct.PLL.PLLN = 16;
 80008ec:	187b      	adds	r3, r7, r1
 80008ee:	2210      	movs	r2, #16
 80008f0:	635a      	str	r2, [r3, #52]	@ 0x34
  RCC_OscInitStruct.PLL.PLLP = RCC_PLLP_DIV2;
 80008f2:	187b      	adds	r3, r7, r1
 80008f4:	2280      	movs	r2, #128	@ 0x80
 80008f6:	0292      	lsls	r2, r2, #10
 80008f8:	639a      	str	r2, [r3, #56]	@ 0x38
  RCC_OscInitStruct.PLL.PLLQ = RCC_PLLQ_DIV2;
 80008fa:	187b      	adds	r3, r7, r1
 80008fc:	2280      	movs	r2, #128	@ 0x80
 80008fe:	0492      	lsls	r2, r2, #18
 8000900:	63da      	str	r2, [r3, #60]	@ 0x3c
  RCC_OscInitStruct.PLL.PLLR = RCC_PLLR_DIV2;
 8000902:	187b      	adds	r3, r7, r1
 8000904:	2280      	movs	r2, #128	@ 0x80
 8000906:	0592      	lsls	r2, r2, #22
 8000908:	641a      	str	r2, [r3, #64]	@ 0x40
  if (HAL_RCC_OscConfig(&RCC_OscInitStruct) != HAL_OK)
 800090a:	187b      	adds	r3, r7, r1
 800090c:	0018      	movs	r0, r3
 800090e:	f002 f8cd 	bl	8002aac <HAL_RCC_OscConfig>
 8000912:	1e03      	subs	r3, r0, #0
 8000914:	d001      	beq.n	800091a <SystemClock_Config+0x8e>
  {
    Error_Handler();
 8000916:	f000 fbf3 	bl	8001100 <Error_Handler>
  }

  /** Initializes the CPU, AHB and APB buses clocks
  */
  RCC_ClkInitStruct.ClockType = RCC_CLOCKTYPE_HCLK|RCC_CLOCKTYPE_SYSCLK
 800091a:	003b      	movs	r3, r7
 800091c:	2207      	movs	r2, #7
 800091e:	601a      	str	r2, [r3, #0]
                              |RCC_CLOCKTYPE_PCLK1;
  RCC_ClkInitStruct.SYSCLKSource = RCC_SYSCLKSOURCE_PLLCLK;
 8000920:	003b      	movs	r3, r7
 8000922:	2203      	movs	r2, #3
 8000924:	605a      	str	r2, [r3, #4]
  RCC_ClkInitStruct.AHBCLKDivider = RCC_SYSCLK_DIV1;
 8000926:	003b      	movs	r3, r7
 8000928:	2200      	movs	r2, #0
 800092a:	609a      	str	r2, [r3, #8]
  RCC_ClkInitStruct.APB1CLKDivider = RCC_HCLK_DIV1;
 800092c:	003b      	movs	r3, r7
 800092e:	2200      	movs	r2, #0
 8000930:	60da      	str	r2, [r3, #12]

  if (HAL_RCC_ClockConfig(&RCC_ClkInitStruct, FLASH_LATENCY_1) != HAL_OK)
 8000932:	003b      	movs	r3, r7
 8000934:	2101      	movs	r1, #1
 8000936:	0018      	movs	r0, r3
 8000938:	f002 fc9e 	bl	8003278 <HAL_RCC_ClockConfig>
 800093c:	1e03      	subs	r3, r0, #0
 800093e:	d001      	beq.n	8000944 <SystemClock_Config+0xb8>
  {
    Error_Handler();
 8000940:	f000 fbde 	bl	8001100 <Error_Handler>
  }
}
 8000944:	46c0      	nop			@ (mov r8, r8)
 8000946:	46bd      	mov	sp, r7
 8000948:	b017      	add	sp, #92	@ 0x5c
 800094a:	bd90      	pop	{r4, r7, pc}

0800094c <MX_LPTIM1_Init>:
  * @brief LPTIM1 Initialization Function
  * @param None
  * @retval None
  */
static void MX_LPTIM1_Init(void)
{
 800094c:	b580      	push	{r7, lr}
 800094e:	af00      	add	r7, sp, #0
  /* USER CODE END LPTIM1_Init 0 */

  /* USER CODE BEGIN LPTIM1_Init 1 */

  /* USER CODE END LPTIM1_Init 1 */
  hlptim1.Instance = LPTIM1;
 8000950:	4b17      	ldr	r3, [pc, #92]	@ (80009b0 <MX_LPTIM1_Init+0x64>)
 8000952:	4a18      	ldr	r2, [pc, #96]	@ (80009b4 <MX_LPTIM1_Init+0x68>)
 8000954:	601a      	str	r2, [r3, #0]
  hlptim1.Init.Clock.Source = LPTIM_CLOCKSOURCE_APBCLOCK_LPOSC;
 8000956:	4b16      	ldr	r3, [pc, #88]	@ (80009b0 <MX_LPTIM1_Init+0x64>)
 8000958:	2200      	movs	r2, #0
 800095a:	605a      	str	r2, [r3, #4]
  hlptim1.Init.Clock.Prescaler = LPTIM_PRESCALER_DIV1;
 800095c:	4b14      	ldr	r3, [pc, #80]	@ (80009b0 <MX_LPTIM1_Init+0x64>)
 800095e:	2200      	movs	r2, #0
 8000960:	609a      	str	r2, [r3, #8]
  hlptim1.Init.UltraLowPowerClock.Polarity = LPTIM_CLOCKPOLARITY_RISING;
 8000962:	4b13      	ldr	r3, [pc, #76]	@ (80009b0 <MX_LPTIM1_Init+0x64>)
 8000964:	2200      	movs	r2, #0
 8000966:	60da      	str	r2, [r3, #12]
  hlptim1.Init.UltraLowPowerClock.SampleTime = LPTIM_CLOCKSAMPLETIME_DIRECTTRANSITION;
 8000968:	4b11      	ldr	r3, [pc, #68]	@ (80009b0 <MX_LPTIM1_Init+0x64>)
 800096a:	2200      	movs	r2, #0
 800096c:	611a      	str	r2, [r3, #16]
  hlptim1.Init.Trigger.Source = LPTIM_TRIGSOURCE_SOFTWARE;
 800096e:	4b10      	ldr	r3, [pc, #64]	@ (80009b0 <MX_LPTIM1_Init+0x64>)
 8000970:	4a11      	ldr	r2, [pc, #68]	@ (80009b8 <MX_LPTIM1_Init+0x6c>)
 8000972:	615a      	str	r2, [r3, #20]
  hlptim1.Init.Period = 65535;
 8000974:	4b0e      	ldr	r3, [pc, #56]	@ (80009b0 <MX_LPTIM1_Init+0x64>)
 8000976:	4a10      	ldr	r2, [pc, #64]	@ (80009b8 <MX_LPTIM1_Init+0x6c>)
 8000978:	621a      	str	r2, [r3, #32]
  hlptim1.Init.UpdateMode = LPTIM_UPDATE_IMMEDIATE;
 800097a:	4b0d      	ldr	r3, [pc, #52]	@ (80009b0 <MX_LPTIM1_Init+0x64>)
 800097c:	2200      	movs	r2, #0
 800097e:	625a      	str	r2, [r3, #36]	@ 0x24
  hlptim1.Init.CounterSource = LPTIM_COUNTERSOURCE_EXTERNAL;
 8000980:	4b0b      	ldr	r3, [pc, #44]	@ (80009b0 <MX_LPTIM1_Init+0x64>)
 8000982:	2280      	movs	r2, #128	@ 0x80
 8000984:	0412      	lsls	r2, r2, #16
 8000986:	629a      	str	r2, [r3, #40]	@ 0x28
  hlptim1.Init.Input1Source = LPTIM_INPUT1SOURCE_GPIO;
 8000988:	4b09      	ldr	r3, [pc, #36]	@ (80009b0 <MX_LPTIM1_Init+0x64>)
 800098a:	2200      	movs	r2, #0
 800098c:	62da      	str	r2, [r3, #44]	@ 0x2c
  hlptim1.Init.Input2Source = LPTIM_INPUT2SOURCE_GPIO;
 800098e:	4b08      	ldr	r3, [pc, #32]	@ (80009b0 <MX_LPTIM1_Init+0x64>)
 8000990:	2200      	movs	r2, #0
 8000992:	631a      	str	r2, [r3, #48]	@ 0x30
  hlptim1.Init.RepetitionCounter = 0;
 8000994:	4b06      	ldr	r3, [pc, #24]	@ (80009b0 <MX_LPTIM1_Init+0x64>)
 8000996:	2200      	movs	r2, #0
 8000998:	635a      	str	r2, [r3, #52]	@ 0x34
  if (HAL_LPTIM_Init(&hlptim1) != HAL_OK)
 800099a:	4b05      	ldr	r3, [pc, #20]	@ (80009b0 <MX_LPTIM1_Init+0x64>)
 800099c:	0018      	movs	r0, r3
 800099e:	f001 fa5d 	bl	8001e5c <HAL_LPTIM_Init>
 80009a2:	1e03      	subs	r3, r0, #0
 80009a4:	d001      	beq.n	80009aa <MX_LPTIM1_Init+0x5e>
  {
    Error_Handler();
 80009a6:	f000 fbab 	bl	8001100 <Error_Handler>
  }
  /* USER CODE BEGIN LPTIM1_Init 2 */

  /* USER CODE END LPTIM1_Init 2 */

}
 80009aa:	46c0      	nop			@ (mov r8, r8)
 80009ac:	46bd      	mov	sp, r7
 80009ae:	bd80      	pop	{r7, pc}
 80009b0:	2000008c 	.word	0x2000008c
 80009b4:	40007c00 	.word	0x40007c00
 80009b8:	0000ffff 	.word	0x0000ffff

080009bc <MX_RTC_Init>:
  * @brief RTC Initialization Function
  * @param None
  * @retval None
  */
static void MX_RTC_Init(void)
{
 80009bc:	b580      	push	{r7, lr}
 80009be:	af00      	add	r7, sp, #0

  /* USER CODE END RTC_Init 1 */

  /** Initialize RTC Only
  */
  hrtc.Instance = RTC;
 80009c0:	4b14      	ldr	r3, [pc, #80]	@ (8000a14 <MX_RTC_Init+0x58>)
 80009c2:	4a15      	ldr	r2, [pc, #84]	@ (8000a18 <MX_RTC_Init+0x5c>)
 80009c4:	601a      	str	r2, [r3, #0]
  hrtc.Init.HourFormat = RTC_HOURFORMAT_24;
 80009c6:	4b13      	ldr	r3, [pc, #76]	@ (8000a14 <MX_RTC_Init+0x58>)
 80009c8:	2200      	movs	r2, #0
 80009ca:	605a      	str	r2, [r3, #4]
  hrtc.Init.AsynchPrediv = 127;
 80009cc:	4b11      	ldr	r3, [pc, #68]	@ (8000a14 <MX_RTC_Init+0x58>)
 80009ce:	227f      	movs	r2, #127	@ 0x7f
 80009d0:	609a      	str	r2, [r3, #8]
  hrtc.Init.SynchPrediv = 255;
 80009d2:	4b10      	ldr	r3, [pc, #64]	@ (8000a14 <MX_RTC_Init+0x58>)
 80009d4:	22ff      	movs	r2, #255	@ 0xff
 80009d6:	60da      	str	r2, [r3, #12]
  hrtc.Init.OutPut = RTC_OUTPUT_DISABLE;
 80009d8:	4b0e      	ldr	r3, [pc, #56]	@ (8000a14 <MX_RTC_Init+0x58>)
 80009da:	2200      	movs	r2, #0
 80009dc:	611a      	str	r2, [r3, #16]
  hrtc.Init.OutPutRemap = RTC_OUTPUT_REMAP_NONE;
 80009de:	4b0d      	ldr	r3, [pc, #52]	@ (8000a14 <MX_RTC_Init+0x58>)
 80009e0:	2200      	movs	r2, #0
 80009e2:	615a      	str	r2, [r3, #20]
  hrtc.Init.OutPutPolarity = RTC_OUTPUT_POLARITY_HIGH;
 80009e4:	4b0b      	ldr	r3, [pc, #44]	@ (8000a14 <MX_RTC_Init+0x58>)
 80009e6:	2200      	movs	r2, #0
 80009e8:	619a      	str	r2, [r3, #24]
  hrtc.Init.OutPutType = RTC_OUTPUT_TYPE_OPENDRAIN;
 80009ea:	4b0a      	ldr	r3, [pc, #40]	@ (8000a14 <MX_RTC_Init+0x58>)
 80009ec:	2280      	movs	r2, #128	@ 0x80
 80009ee:	05d2      	lsls	r2, r2, #23
 80009f0:	61da      	str	r2, [r3, #28]
  hrtc.Init.OutPutPullUp = RTC_OUTPUT_PULLUP_NONE;
 80009f2:	4b08      	ldr	r3, [pc, #32]	@ (8000a14 <MX_RTC_Init+0x58>)
 80009f4:	2200      	movs	r2, #0
 80009f6:	621a      	str	r2, [r3, #32]
  hrtc.Init.BinMode = RTC_BINARY_NONE;
 80009f8:	4b06      	ldr	r3, [pc, #24]	@ (8000a14 <MX_RTC_Init+0x58>)
 80009fa:	2200      	movs	r2, #0
 80009fc:	625a      	str	r2, [r3, #36]	@ 0x24
  if (HAL_RTC_Init(&hrtc) != HAL_OK)
 80009fe:	4b05      	ldr	r3, [pc, #20]	@ (8000a14 <MX_RTC_Init+0x58>)
 8000a00:	0018      	movs	r0, r3
 8000a02:	f003 fe29 	bl	8004658 <HAL_RTC_Init>
 8000a06:	1e03      	subs	r3, r0, #0
 8000a08:	d001      	beq.n	8000a0e <MX_RTC_Init+0x52>
  {
    Error_Handler();
 8000a0a:	f000 fb79 	bl	8001100 <Error_Handler>
  }
  /* USER CODE BEGIN RTC_Init 2 */

  /* USER CODE END RTC_Init 2 */

}
 8000a0e:	46c0      	nop			@ (mov r8, r8)
 8000a10:	46bd      	mov	sp, r7
 8000a12:	bd80      	pop	{r7, pc}
 8000a14:	20000124 	.word	0x20000124
 8000a18:	40002800 	.word	0x40002800

08000a1c <MX_USART2_UART_Init>:
  * @brief USART2 Initialization Function
  * @param None
  * @retval None
  */
static void MX_USART2_UART_Init(void)
{
 8000a1c:	b580      	push	{r7, lr}
 8000a1e:	af00      	add	r7, sp, #0
  /* USER CODE END USART2_Init 0 */

  /* USER CODE BEGIN USART2_Init 1 */

  /* USER CODE END USART2_Init 1 */
  huart2.Instance = USART2;
 8000a20:	4b23      	ldr	r3, [pc, #140]	@ (8000ab0 <MX_USART2_UART_Init+0x94>)
 8000a22:	4a24      	ldr	r2, [pc, #144]	@ (8000ab4 <MX_USART2_UART_Init+0x98>)
 8000a24:	601a      	str	r2, [r3, #0]
  huart2.Init.BaudRate = 115200;
 8000a26:	4b22      	ldr	r3, [pc, #136]	@ (8000ab0 <MX_USART2_UART_Init+0x94>)
 8000a28:	22e1      	movs	r2, #225	@ 0xe1
 8000a2a:	0252      	lsls	r2, r2, #9
 8000a2c:	605a      	str	r2, [r3, #4]
  huart2.Init.WordLength = UART_WORDLENGTH_8B;
 8000a2e:	4b20      	ldr	r3, [pc, #128]	@ (8000ab0 <MX_USART2_UART_Init+0x94>)
 8000a30:	2200      	movs	r2, #0
 8000a32:	609a      	str	r2, [r3, #8]
  huart2.Init.StopBits = UART_STOPBITS_1;
 8000a34:	4b1e      	ldr	r3, [pc, #120]	@ (8000ab0 <MX_USART2_UART_Init+0x94>)
 8000a36:	2200      	movs	r2, #0
 8000a38:	60da      	str	r2, [r3, #12]
  huart2.Init.Parity = UART_PARITY_NONE;
 8000a3a:	4b1d      	ldr	r3, [pc, #116]	@ (8000ab0 <MX_USART2_UART_Init+0x94>)
 8000a3c:	2200      	movs	r2, #0
 8000a3e:	611a      	str	r2, [r3, #16]
  huart2.Init.Mode = UART_MODE_TX_RX;
 8000a40:	4b1b      	ldr	r3, [pc, #108]	@ (8000ab0 <MX_USART2_UART_Init+0x94>)
 8000a42:	220c      	movs	r2, #12
 8000a44:	615a      	str	r2, [r3, #20]
  huart2.Init.HwFlowCtl = UART_HWCONTROL_NONE;
 8000a46:	4b1a      	ldr	r3, [pc, #104]	@ (8000ab0 <MX_USART2_UART_Init+0x94>)
 8000a48:	2200      	movs	r2, #0
 8000a4a:	619a      	str	r2, [r3, #24]
  huart2.Init.OverSampling = UART_OVERSAMPLING_16;
 8000a4c:	4b18      	ldr	r3, [pc, #96]	@ (8000ab0 <MX_USART2_UART_Init+0x94>)
 8000a4e:	2200      	movs	r2, #0
 8000a50:	61da      	str	r2, [r3, #28]
  huart2.Init.OneBitSampling = UART_ONE_BIT_SAMPLE_DISABLE;
 8000a52:	4b17      	ldr	r3, [pc, #92]	@ (8000ab0 <MX_USART2_UART_Init+0x94>)
 8000a54:	2200      	movs	r2, #0
 8000a56:	621a      	str	r2, [r3, #32]
  huart2.Init.ClockPrescaler = UART_PRESCALER_DIV1;
 8000a58:	4b15      	ldr	r3, [pc, #84]	@ (8000ab0 <MX_USART2_UART_Init+0x94>)
 8000a5a:	2200      	movs	r2, #0
 8000a5c:	625a      	str	r2, [r3, #36]	@ 0x24
  huart2.AdvancedInit.AdvFeatureInit = UART_ADVFEATURE_NO_INIT;
 8000a5e:	4b14      	ldr	r3, [pc, #80]	@ (8000ab0 <MX_USART2_UART_Init+0x94>)
 8000a60:	2200      	movs	r2, #0
 8000a62:	629a      	str	r2, [r3, #40]	@ 0x28
  if (HAL_UART_Init(&huart2) != HAL_OK)
 8000a64:	4b12      	ldr	r3, [pc, #72]	@ (8000ab0 <MX_USART2_UART_Init+0x94>)
 8000a66:	0018      	movs	r0, r3
 8000a68:	f003 feee 	bl	8004848 <HAL_UART_Init>
 8000a6c:	1e03      	subs	r3, r0, #0
 8000a6e:	d001      	beq.n	8000a74 <MX_USART2_UART_Init+0x58>
  {
    Error_Handler();
 8000a70:	f000 fb46 	bl	8001100 <Error_Handler>
  }
  if (HAL_UARTEx_SetTxFifoThreshold(&huart2, UART_TXFIFO_THRESHOLD_1_8) != HAL_OK)
 8000a74:	4b0e      	ldr	r3, [pc, #56]	@ (8000ab0 <MX_USART2_UART_Init+0x94>)
 8000a76:	2100      	movs	r1, #0
 8000a78:	0018      	movs	r0, r3
 8000a7a:	f004 fc07 	bl	800528c <HAL_UARTEx_SetTxFifoThreshold>
 8000a7e:	1e03      	subs	r3, r0, #0
 8000a80:	d001      	beq.n	8000a86 <MX_USART2_UART_Init+0x6a>
  {
    Error_Handler();
 8000a82:	f000 fb3d 	bl	8001100 <Error_Handler>
  }
  if (HAL_UARTEx_SetRxFifoThreshold(&huart2, UART_RXFIFO_THRESHOLD_1_8) != HAL_OK)
 8000a86:	4b0a      	ldr	r3, [pc, #40]	@ (8000ab0 <MX_USART2_UART_Init+0x94>)
 8000a88:	2100      	movs	r1, #0
 8000a8a:	0018      	movs	r0, r3
 8000a8c:	f004 fc3e 	bl	800530c <HAL_UARTEx_SetRxFifoThreshold>
 8000a90:	1e03      	subs	r3, r0, #0
 8000a92:	d001      	beq.n	8000a98 <MX_USART2_UART_Init+0x7c>
  {
    Error_Handler();
 8000a94:	f000 fb34 	bl	8001100 <Error_Handler>
  }
  if (HAL_UARTEx_DisableFifoMode(&huart2) != HAL_OK)
 8000a98:	4b05      	ldr	r3, [pc, #20]	@ (8000ab0 <MX_USART2_UART_Init+0x94>)
 8000a9a:	0018      	movs	r0, r3
 8000a9c:	f004 fbbc 	bl	8005218 <HAL_UARTEx_DisableFifoMode>
 8000aa0:	1e03      	subs	r3, r0, #0
 8000aa2:	d001      	beq.n	8000aa8 <MX_USART2_UART_Init+0x8c>
  {
    Error_Handler();
 8000aa4:	f000 fb2c 	bl	8001100 <Error_Handler>
  }
  /* USER CODE BEGIN USART2_Init 2 */

  /* USER CODE END USART2_Init 2 */

}
 8000aa8:	46c0      	nop			@ (mov r8, r8)
 8000aaa:	46bd      	mov	sp, r7
 8000aac:	bd80      	pop	{r7, pc}
 8000aae:	46c0      	nop			@ (mov r8, r8)
 8000ab0:	20000154 	.word	0x20000154
 8000ab4:	40004400 	.word	0x40004400

08000ab8 <MX_GPIO_Init>:
  * @brief GPIO Initialization Function
  * @param None
  * @retval None
  */
static void MX_GPIO_Init(void)
{
 8000ab8:	b590      	push	{r4, r7, lr}
 8000aba:	b089      	sub	sp, #36	@ 0x24
 8000abc:	af00      	add	r7, sp, #0
  GPIO_InitTypeDef GPIO_InitStruct = {0};
 8000abe:	240c      	movs	r4, #12
 8000ac0:	193b      	adds	r3, r7, r4
 8000ac2:	0018      	movs	r0, r3
 8000ac4:	2314      	movs	r3, #20
 8000ac6:	001a      	movs	r2, r3
 8000ac8:	2100      	movs	r1, #0
 8000aca:	f004 fcf9 	bl	80054c0 <memset>
  /* USER CODE BEGIN MX_GPIO_Init_1 */

  /* USER CODE END MX_GPIO_Init_1 */

  /* GPIO Ports Clock Enable */
  __HAL_RCC_GPIOC_CLK_ENABLE();
 8000ace:	4b28      	ldr	r3, [pc, #160]	@ (8000b70 <MX_GPIO_Init+0xb8>)
 8000ad0:	6cda      	ldr	r2, [r3, #76]	@ 0x4c
 8000ad2:	4b27      	ldr	r3, [pc, #156]	@ (8000b70 <MX_GPIO_Init+0xb8>)
 8000ad4:	2104      	movs	r1, #4
 8000ad6:	430a      	orrs	r2, r1
 8000ad8:	64da      	str	r2, [r3, #76]	@ 0x4c
 8000ada:	4b25      	ldr	r3, [pc, #148]	@ (8000b70 <MX_GPIO_Init+0xb8>)
 8000adc:	6cdb      	ldr	r3, [r3, #76]	@ 0x4c
 8000ade:	2204      	movs	r2, #4
 8000ae0:	4013      	ands	r3, r2
 8000ae2:	60bb      	str	r3, [r7, #8]
 8000ae4:	68bb      	ldr	r3, [r7, #8]
  __HAL_RCC_GPIOA_CLK_ENABLE();
 8000ae6:	4b22      	ldr	r3, [pc, #136]	@ (8000b70 <MX_GPIO_Init+0xb8>)
 8000ae8:	6cda      	ldr	r2, [r3, #76]	@ 0x4c
 8000aea:	4b21      	ldr	r3, [pc, #132]	@ (8000b70 <MX_GPIO_Init+0xb8>)
 8000aec:	2101      	movs	r1, #1
 8000aee:	430a      	orrs	r2, r1
 8000af0:	64da      	str	r2, [r3, #76]	@ 0x4c
 8000af2:	4b1f      	ldr	r3, [pc, #124]	@ (8000b70 <MX_GPIO_Init+0xb8>)
 8000af4:	6cdb      	ldr	r3, [r3, #76]	@ 0x4c
 8000af6:	2201      	movs	r2, #1
 8000af8:	4013      	ands	r3, r2
 8000afa:	607b      	str	r3, [r7, #4]
 8000afc:	687b      	ldr	r3, [r7, #4]

  /*Configure GPIO pin Output Level */
  HAL_GPIO_WritePin(LED2_GPIO_Port, LED2_Pin, GPIO_PIN_RESET);
 8000afe:	23a0      	movs	r3, #160	@ 0xa0
 8000b00:	05db      	lsls	r3, r3, #23
 8000b02:	2200      	movs	r2, #0
 8000b04:	2120      	movs	r1, #32
 8000b06:	0018      	movs	r0, r3
 8000b08:	f001 f93c 	bl	8001d84 <HAL_GPIO_WritePin>

  /*Configure GPIO pin : BUTTON_USER_Pin */
  GPIO_InitStruct.Pin = BUTTON_USER_Pin;
 8000b0c:	193b      	adds	r3, r7, r4
 8000b0e:	2280      	movs	r2, #128	@ 0x80
 8000b10:	0192      	lsls	r2, r2, #6
 8000b12:	601a      	str	r2, [r3, #0]
  GPIO_InitStruct.Mode = GPIO_MODE_IT_FALLING;
 8000b14:	193b      	adds	r3, r7, r4
 8000b16:	2284      	movs	r2, #132	@ 0x84
 8000b18:	0392      	lsls	r2, r2, #14
 8000b1a:	605a      	str	r2, [r3, #4]
  GPIO_InitStruct.Pull = GPIO_PULLUP;
 8000b1c:	193b      	adds	r3, r7, r4
 8000b1e:	2201      	movs	r2, #1
 8000b20:	609a      	str	r2, [r3, #8]
  HAL_GPIO_Init(BUTTON_USER_GPIO_Port, &GPIO_InitStruct);
 8000b22:	193b      	adds	r3, r7, r4
 8000b24:	4a13      	ldr	r2, [pc, #76]	@ (8000b74 <MX_GPIO_Init+0xbc>)
 8000b26:	0019      	movs	r1, r3
 8000b28:	0010      	movs	r0, r2
 8000b2a:	f000 ffbf 	bl	8001aac <HAL_GPIO_Init>

  /*Configure GPIO pin : LED2_Pin */
  GPIO_InitStruct.Pin = LED2_Pin;
 8000b2e:	0021      	movs	r1, r4
 8000b30:	187b      	adds	r3, r7, r1
 8000b32:	2220      	movs	r2, #32
 8000b34:	601a      	str	r2, [r3, #0]
  GPIO_InitStruct.Mode = GPIO_MODE_OUTPUT_PP;
 8000b36:	187b      	adds	r3, r7, r1
 8000b38:	2201      	movs	r2, #1
 8000b3a:	605a      	str	r2, [r3, #4]
  GPIO_InitStruct.Pull = GPIO_NOPULL;
 8000b3c:	187b      	adds	r3, r7, r1
 8000b3e:	2200      	movs	r2, #0
 8000b40:	609a      	str	r2, [r3, #8]
  GPIO_InitStruct.Speed = GPIO_SPEED_FREQ_LOW;
 8000b42:	187b      	adds	r3, r7, r1
 8000b44:	2200      	movs	r2, #0
 8000b46:	60da      	str	r2, [r3, #12]
  HAL_GPIO_Init(LED2_GPIO_Port, &GPIO_InitStruct);
 8000b48:	187a      	adds	r2, r7, r1
 8000b4a:	23a0      	movs	r3, #160	@ 0xa0
 8000b4c:	05db      	lsls	r3, r3, #23
 8000b4e:	0011      	movs	r1, r2
 8000b50:	0018      	movs	r0, r3
 8000b52:	f000 ffab 	bl	8001aac <HAL_GPIO_Init>

  /* EXTI interrupt init*/
  HAL_NVIC_SetPriority(EXTI4_15_IRQn, 0, 0);
 8000b56:	2200      	movs	r2, #0
 8000b58:	2100      	movs	r1, #0
 8000b5a:	2007      	movs	r0, #7
 8000b5c:	f000 ff28 	bl	80019b0 <HAL_NVIC_SetPriority>
  HAL_NVIC_EnableIRQ(EXTI4_15_IRQn);
 8000b60:	2007      	movs	r0, #7
 8000b62:	f000 ff3a 	bl	80019da <HAL_NVIC_EnableIRQ>

  /* USER CODE BEGIN MX_GPIO_Init_2 */

  /* USER CODE END MX_GPIO_Init_2 */
}
 8000b66:	46c0      	nop			@ (mov r8, r8)
 8000b68:	46bd      	mov	sp, r7
 8000b6a:	b009      	add	sp, #36	@ 0x24
 8000b6c:	bd90      	pop	{r4, r7, pc}
 8000b6e:	46c0      	nop			@ (mov r8, r8)
 8000b70:	40021000 	.word	0x40021000
 8000b74:	50000800 	.word	0x50000800

08000b78 <TRACSENS_DisplayInfo>:
  * It then updates the respective forward or backward cumulative counters.
  * @param  None
  * @retval None
  */
void TRACSENS_DisplayInfo(void)
{
 8000b78:	b580      	push	{r7, lr}
 8000b7a:	b082      	sub	sp, #8
 8000b7c:	af00      	add	r7, sp, #0
	// Get the current absolute 32-bit position
	int32_t current_value = TRACSENS_GetCounter();
 8000b7e:	f000 f831 	bl	8000be4 <TRACSENS_GetCounter>
 8000b82:	0003      	movs	r3, r0
 8000b84:	607b      	str	r3, [r7, #4]
	
	// Calculate the change in position since the last time this function was called
	int32_t delta = current_value - lLastCounterValue;
 8000b86:	4b13      	ldr	r3, [pc, #76]	@ (8000bd4 <TRACSENS_DisplayInfo+0x5c>)
 8000b88:	681b      	ldr	r3, [r3, #0]
 8000b8a:	687a      	ldr	r2, [r7, #4]
 8000b8c:	1ad3      	subs	r3, r2, r3
 8000b8e:	603b      	str	r3, [r7, #0]
	
	if (delta > 0)
 8000b90:	683b      	ldr	r3, [r7, #0]
 8000b92:	2b00      	cmp	r3, #0
 8000b94:	dd06      	ble.n	8000ba4 <TRACSENS_DisplayInfo+0x2c>
	{
		// If delta is positive, the movement was forward
		lForwardCount += delta;
 8000b96:	4b10      	ldr	r3, [pc, #64]	@ (8000bd8 <TRACSENS_DisplayInfo+0x60>)
 8000b98:	681a      	ldr	r2, [r3, #0]
 8000b9a:	683b      	ldr	r3, [r7, #0]
 8000b9c:	18d2      	adds	r2, r2, r3
 8000b9e:	4b0e      	ldr	r3, [pc, #56]	@ (8000bd8 <TRACSENS_DisplayInfo+0x60>)
 8000ba0:	601a      	str	r2, [r3, #0]
 8000ba2:	e008      	b.n	8000bb6 <TRACSENS_DisplayInfo+0x3e>
	}
	else if (delta < 0)
 8000ba4:	683b      	ldr	r3, [r7, #0]
 8000ba6:	2b00      	cmp	r3, #0
 8000ba8:	da05      	bge.n	8000bb6 <TRACSENS_DisplayInfo+0x3e>
	{
		// If delta is negative, the movement was backward. Add the absolute value.
		lBackwardCount += -delta;
 8000baa:	4b0c      	ldr	r3, [pc, #48]	@ (8000bdc <TRACSENS_DisplayInfo+0x64>)
 8000bac:	681a      	ldr	r2, [r3, #0]
 8000bae:	683b      	ldr	r3, [r7, #0]
 8000bb0:	1ad2      	subs	r2, r2, r3
 8000bb2:	4b0a      	ldr	r3, [pc, #40]	@ (8000bdc <TRACSENS_DisplayInfo+0x64>)
 8000bb4:	601a      	str	r2, [r3, #0]
	}
	
	// Update the last counter value for the next calculation
	lLastCounterValue = current_value;
 8000bb6:	4b07      	ldr	r3, [pc, #28]	@ (8000bd4 <TRACSENS_DisplayInfo+0x5c>)
 8000bb8:	687a      	ldr	r2, [r7, #4]
 8000bba:	601a      	str	r2, [r3, #0]
	
	UART_Printf("Current: %ld, Forward: %ld, Backward: %ld\r\n",
 8000bbc:	4b06      	ldr	r3, [pc, #24]	@ (8000bd8 <TRACSENS_DisplayInfo+0x60>)
 8000bbe:	681a      	ldr	r2, [r3, #0]
 8000bc0:	4b06      	ldr	r3, [pc, #24]	@ (8000bdc <TRACSENS_DisplayInfo+0x64>)
 8000bc2:	681b      	ldr	r3, [r3, #0]
 8000bc4:	6879      	ldr	r1, [r7, #4]
 8000bc6:	4806      	ldr	r0, [pc, #24]	@ (8000be0 <TRACSENS_DisplayInfo+0x68>)
 8000bc8:	f000 fa6e 	bl	80010a8 <UART_Printf>
			current_value, lForwardCount, lBackwardCount);
}
 8000bcc:	46c0      	nop			@ (mov r8, r8)
 8000bce:	46bd      	mov	sp, r7
 8000bd0:	b002      	add	sp, #8
 8000bd2:	bd80      	pop	{r7, pc}
 8000bd4:	20000200 	.word	0x20000200
 8000bd8:	200001f8 	.word	0x200001f8
 8000bdc:	200001fc 	.word	0x200001fc
 8000be0:	08005ddc 	.word	0x08005ddc

08000be4 <TRACSENS_GetCounter>:
  * to prevent race conditions, returning the combined absolute position.
  * @param  None
  * @retval The 32-bit signed encoder position.
  */
static int32_t TRACSENS_GetCounter(void)
{
 8000be4:	b580      	push	{r7, lr}
 8000be6:	b084      	sub	sp, #16
 8000be8:	af00      	add	r7, sp, #0
  \details Disables IRQ interrupts by setting special-purpose register PRIMASK.
           Can only be executed in Privileged modes.
 */
__STATIC_FORCEINLINE void __disable_irq(void)
{
  __ASM volatile ("cpsid i" : : : "memory");
 8000bea:	b672      	cpsid	i
}
 8000bec:	46c0      	nop			@ (mov r8, r8)
	 * can lead to a race condition. Disable interrupts briefly to ensure an atomic read of both values.
	 */
	__disable_irq();

	/* Read the 16-bit hardware counter and the 32-bit software multiplier */
	hw_counter_val = LL_LPTIM_GetCounter(LPTIM1);
 8000bee:	4b0c      	ldr	r3, [pc, #48]	@ (8000c20 <TRACSENS_GetCounter+0x3c>)
 8000bf0:	0018      	movs	r0, r3
 8000bf2:	f7ff fd92 	bl	800071a <LL_LPTIM_GetCounter>
 8000bf6:	0002      	movs	r2, r0
 8000bf8:	210e      	movs	r1, #14
 8000bfa:	187b      	adds	r3, r7, r1
 8000bfc:	801a      	strh	r2, [r3, #0]
	multiplier_val = lCntrMultiplier;
 8000bfe:	4b09      	ldr	r3, [pc, #36]	@ (8000c24 <TRACSENS_GetCounter+0x40>)
 8000c00:	681b      	ldr	r3, [r3, #0]
 8000c02:	60bb      	str	r3, [r7, #8]
  __ASM volatile ("cpsie i" : : : "memory");
 8000c04:	b662      	cpsie	i
}
 8000c06:	46c0      	nop			@ (mov r8, r8)
	__enable_irq();

	/* Combine the multiplier (upper bits) and the hardware counter (lower bits)
	 * to get the full 32-bit position. (TRACSENS_CFG_AUTORELOAD_VALUE is 0xFFFF, so +1 gives 65536)
	 */
	full_counter_val = (multiplier_val * (TRACSENS_CFG_AUTORELOAD_VALUE + 1)) + hw_counter_val;
 8000c08:	68bb      	ldr	r3, [r7, #8]
 8000c0a:	041a      	lsls	r2, r3, #16
 8000c0c:	187b      	adds	r3, r7, r1
 8000c0e:	881b      	ldrh	r3, [r3, #0]
 8000c10:	18d3      	adds	r3, r2, r3
 8000c12:	607b      	str	r3, [r7, #4]

    return full_counter_val;
 8000c14:	687b      	ldr	r3, [r7, #4]
}
 8000c16:	0018      	movs	r0, r3
 8000c18:	46bd      	mov	sp, r7
 8000c1a:	b004      	add	sp, #16
 8000c1c:	bd80      	pop	{r7, pc}
 8000c1e:	46c0      	nop			@ (mov r8, r8)
 8000c20:	40007c00 	.word	0x40007c00
 8000c24:	200001f4 	.word	0x200001f4

08000c28 <TRACSENS_CompareCallback>:

void TRACSENS_CompareCallback(LPTIM_HandleTypeDef *hlptim)
{
 8000c28:	b580      	push	{r7, lr}
 8000c2a:	b082      	sub	sp, #8
 8000c2c:	af00      	add	r7, sp, #0
 8000c2e:	6078      	str	r0, [r7, #4]
	UART_Printf("TRACSENS_CompareCallback\n\r");
 8000c30:	4b07      	ldr	r3, [pc, #28]	@ (8000c50 <TRACSENS_CompareCallback+0x28>)
 8000c32:	0018      	movs	r0, r3
 8000c34:	f000 fa38 	bl	80010a8 <UART_Printf>
	if(UNKNOWN_CounterDirection== eCounterDirection)/*initially we don't know. we choose forward cos this compare confirming it forward*/
 8000c38:	4b06      	ldr	r3, [pc, #24]	@ (8000c54 <TRACSENS_CompareCallback+0x2c>)
 8000c3a:	781b      	ldrb	r3, [r3, #0]
 8000c3c:	2b00      	cmp	r3, #0
 8000c3e:	d102      	bne.n	8000c46 <TRACSENS_CompareCallback+0x1e>
	{
		eCounterDirection= FORWARD_CounterDirection;
 8000c40:	4b04      	ldr	r3, [pc, #16]	@ (8000c54 <TRACSENS_CompareCallback+0x2c>)
 8000c42:	2201      	movs	r2, #1
 8000c44:	701a      	strb	r2, [r3, #0]
	}
}
 8000c46:	46c0      	nop			@ (mov r8, r8)
 8000c48:	46bd      	mov	sp, r7
 8000c4a:	b002      	add	sp, #8
 8000c4c:	bd80      	pop	{r7, pc}
 8000c4e:	46c0      	nop			@ (mov r8, r8)
 8000c50:	08005e08 	.word	0x08005e08
 8000c54:	200001f0 	.word	0x200001f0

08000c58 <TRACSENS_CounterChangedToUpCallback>:
  * It's responsible for setting the global direction state.
  * @param  hlptim : LPTIM handle
  * @retval None
  */
void TRACSENS_CounterChangedToUpCallback(LPTIM_HandleTypeDef *hlptim)
{
 8000c58:	b580      	push	{r7, lr}
 8000c5a:	b082      	sub	sp, #8
 8000c5c:	af00      	add	r7, sp, #0
 8000c5e:	6078      	str	r0, [r7, #4]
	/* The hardware has detected the counting direction is now UP (forward). */
	/* We record this state so the AutoReload callback knows how to handle a wrap-around. */
	eCounterDirection = FORWARD_CounterDirection;
 8000c60:	4b08      	ldr	r3, [pc, #32]	@ (8000c84 <TRACSENS_CounterChangedToUpCallback+0x2c>)
 8000c62:	2201      	movs	r2, #1
 8000c64:	701a      	strb	r2, [r3, #0]

	if(true == pConfig->enableErrorPatternCheck)
 8000c66:	4b08      	ldr	r3, [pc, #32]	@ (8000c88 <TRACSENS_CounterChangedToUpCallback+0x30>)
 8000c68:	681b      	ldr	r3, [r3, #0]
 8000c6a:	781b      	ldrb	r3, [r3, #0]
 8000c6c:	2b00      	cmp	r3, #0
 8000c6e:	d001      	beq.n	8000c74 <TRACSENS_CounterChangedToUpCallback+0x1c>
	{
		TRACSENS_ChangedToUpErrorHandling();
 8000c70:	f000 f904 	bl	8000e7c <TRACSENS_ChangedToUpErrorHandling>
	}
	UART_Printf("Direction changed to UP (Forward)\r\n"); // Optional: can be noisy
 8000c74:	4b05      	ldr	r3, [pc, #20]	@ (8000c8c <TRACSENS_CounterChangedToUpCallback+0x34>)
 8000c76:	0018      	movs	r0, r3
 8000c78:	f000 fa16 	bl	80010a8 <UART_Printf>
}
 8000c7c:	46c0      	nop			@ (mov r8, r8)
 8000c7e:	46bd      	mov	sp, r7
 8000c80:	b002      	add	sp, #8
 8000c82:	bd80      	pop	{r7, pc}
 8000c84:	200001f0 	.word	0x200001f0
 8000c88:	20000000 	.word	0x20000000
 8000c8c:	08005e24 	.word	0x08005e24

08000c90 <TRACSENS_CounterChangedToDownCallback>:
  * It's responsible for setting the global direction state.
  * @param  hlptim : LPTIM handle
  * @retval None
  */
void TRACSENS_CounterChangedToDownCallback(LPTIM_HandleTypeDef *hlptim)
{
 8000c90:	b580      	push	{r7, lr}
 8000c92:	b082      	sub	sp, #8
 8000c94:	af00      	add	r7, sp, #0
 8000c96:	6078      	str	r0, [r7, #4]
	/* The hardware has detected the counting direction is now DOWN (backward). */
	/* We record this state so the AutoReload callback knows how to handle a wrap-around. */
	eCounterDirection = BACKWARD_CounterDirection;
 8000c98:	4b08      	ldr	r3, [pc, #32]	@ (8000cbc <TRACSENS_CounterChangedToDownCallback+0x2c>)
 8000c9a:	2202      	movs	r2, #2
 8000c9c:	701a      	strb	r2, [r3, #0]

	if(true == pConfig->enableErrorPatternCheck)
 8000c9e:	4b08      	ldr	r3, [pc, #32]	@ (8000cc0 <TRACSENS_CounterChangedToDownCallback+0x30>)
 8000ca0:	681b      	ldr	r3, [r3, #0]
 8000ca2:	781b      	ldrb	r3, [r3, #0]
 8000ca4:	2b00      	cmp	r3, #0
 8000ca6:	d001      	beq.n	8000cac <TRACSENS_CounterChangedToDownCallback+0x1c>
	{
		TRACSENS_ChangedToDownErrorHandling();
 8000ca8:	f000 f8f8 	bl	8000e9c <TRACSENS_ChangedToDownErrorHandling>
	}
	UART_Printf("Direction changed to DOWN (Backward)\r\n"); // Optional: can be noisy
 8000cac:	4b05      	ldr	r3, [pc, #20]	@ (8000cc4 <TRACSENS_CounterChangedToDownCallback+0x34>)
 8000cae:	0018      	movs	r0, r3
 8000cb0:	f000 f9fa 	bl	80010a8 <UART_Printf>
}
 8000cb4:	46c0      	nop			@ (mov r8, r8)
 8000cb6:	46bd      	mov	sp, r7
 8000cb8:	b002      	add	sp, #8
 8000cba:	bd80      	pop	{r7, pc}
 8000cbc:	200001f0 	.word	0x200001f0
 8000cc0:	20000000 	.word	0x20000000
 8000cc4:	08005e48 	.word	0x08005e48

08000cc8 <TRACSENS_AutoReloadMatchCallback>:
  * counter to a 32-bit software counter using lCntrMultiplier.
  * @param  hlptim : LPTIM handle
  * @retval None
  */
void TRACSENS_AutoReloadMatchCallback(LPTIM_HandleTypeDef *hlptim)
{
 8000cc8:	b580      	push	{r7, lr}
 8000cca:	b084      	sub	sp, #16
 8000ccc:	af00      	add	r7, sp, #0
 8000cce:	6078      	str	r0, [r7, #4]
  /* This callback is triggered when the counter wraps around.
   * We check the last known direction, set by the Up/Down callbacks,
   * to determine if it was an overflow or an underflow.
   */
  int32_t current_value;
  if (eCounterDirection == FORWARD_CounterDirection)
 8000cd0:	4b1c      	ldr	r3, [pc, #112]	@ (8000d44 <TRACSENS_AutoReloadMatchCallback+0x7c>)
 8000cd2:	781b      	ldrb	r3, [r3, #0]
 8000cd4:	2b01      	cmp	r3, #1
 8000cd6:	d105      	bne.n	8000ce4 <TRACSENS_AutoReloadMatchCallback+0x1c>
  {
    /* OVERFLOW: If counting forward, a wrap-around from 0xFFFF to 0x0000 has occurred.
     * Increment the multiplier to extend the counter's upper bits.
     */
    lCntrMultiplier++;
 8000cd8:	4b1b      	ldr	r3, [pc, #108]	@ (8000d48 <TRACSENS_AutoReloadMatchCallback+0x80>)
 8000cda:	681b      	ldr	r3, [r3, #0]
 8000cdc:	1c5a      	adds	r2, r3, #1
 8000cde:	4b1a      	ldr	r3, [pc, #104]	@ (8000d48 <TRACSENS_AutoReloadMatchCallback+0x80>)
 8000ce0:	601a      	str	r2, [r3, #0]
 8000ce2:	e021      	b.n	8000d28 <TRACSENS_AutoReloadMatchCallback+0x60>
  }
  else if (eCounterDirection == BACKWARD_CounterDirection)
 8000ce4:	4b17      	ldr	r3, [pc, #92]	@ (8000d44 <TRACSENS_AutoReloadMatchCallback+0x7c>)
 8000ce6:	781b      	ldrb	r3, [r3, #0]
 8000ce8:	2b02      	cmp	r3, #2
 8000cea:	d105      	bne.n	8000cf8 <TRACSENS_AutoReloadMatchCallback+0x30>
  {
    /* UNDERFLOW: If counting backward, a wrap-around from 0x0000 to 0xFFFF has occurred.
     * Decrement the multiplier.
     */
    lCntrMultiplier--;
 8000cec:	4b16      	ldr	r3, [pc, #88]	@ (8000d48 <TRACSENS_AutoReloadMatchCallback+0x80>)
 8000cee:	681b      	ldr	r3, [r3, #0]
 8000cf0:	1e5a      	subs	r2, r3, #1
 8000cf2:	4b15      	ldr	r3, [pc, #84]	@ (8000d48 <TRACSENS_AutoReloadMatchCallback+0x80>)
 8000cf4:	601a      	str	r2, [r3, #0]
 8000cf6:	e017      	b.n	8000d28 <TRACSENS_AutoReloadMatchCallback+0x60>
  }else
  {
    current_value = TRACSENS_GetCounter();
 8000cf8:	f7ff ff74 	bl	8000be4 <TRACSENS_GetCounter>
 8000cfc:	0003      	movs	r3, r0
 8000cfe:	60fb      	str	r3, [r7, #12]
	
    if (current_value != 0)
 8000d00:	68fb      	ldr	r3, [r7, #12]
 8000d02:	2b00      	cmp	r3, #0
 8000d04:	d008      	beq.n	8000d18 <TRACSENS_AutoReloadMatchCallback+0x50>
    {
      // 65535 = underflow
      lCntrMultiplier--;
 8000d06:	4b10      	ldr	r3, [pc, #64]	@ (8000d48 <TRACSENS_AutoReloadMatchCallback+0x80>)
 8000d08:	681b      	ldr	r3, [r3, #0]
 8000d0a:	1e5a      	subs	r2, r3, #1
 8000d0c:	4b0e      	ldr	r3, [pc, #56]	@ (8000d48 <TRACSENS_AutoReloadMatchCallback+0x80>)
 8000d0e:	601a      	str	r2, [r3, #0]
      eCounterDirection= BACKWARD_CounterDirection; 
 8000d10:	4b0c      	ldr	r3, [pc, #48]	@ (8000d44 <TRACSENS_AutoReloadMatchCallback+0x7c>)
 8000d12:	2202      	movs	r2, #2
 8000d14:	701a      	strb	r2, [r3, #0]
 8000d16:	e007      	b.n	8000d28 <TRACSENS_AutoReloadMatchCallback+0x60>
    }
    else
    {
      // 0 = overflow
      lCntrMultiplier++;
 8000d18:	4b0b      	ldr	r3, [pc, #44]	@ (8000d48 <TRACSENS_AutoReloadMatchCallback+0x80>)
 8000d1a:	681b      	ldr	r3, [r3, #0]
 8000d1c:	1c5a      	adds	r2, r3, #1
 8000d1e:	4b0a      	ldr	r3, [pc, #40]	@ (8000d48 <TRACSENS_AutoReloadMatchCallback+0x80>)
 8000d20:	601a      	str	r2, [r3, #0]
      eCounterDirection= FORWARD_CounterDirection; 
 8000d22:	4b08      	ldr	r3, [pc, #32]	@ (8000d44 <TRACSENS_AutoReloadMatchCallback+0x7c>)
 8000d24:	2201      	movs	r2, #1
 8000d26:	701a      	strb	r2, [r3, #0]
    }
  }

  UART_Printf("AutoReloadMatchCallback: Dir=%d, Multiplier=%ld, curr=%ld\r\n", eCounterDirection, lCntrMultiplier, current_value); // Optional: can be noisy
 8000d28:	4b06      	ldr	r3, [pc, #24]	@ (8000d44 <TRACSENS_AutoReloadMatchCallback+0x7c>)
 8000d2a:	781b      	ldrb	r3, [r3, #0]
 8000d2c:	0019      	movs	r1, r3
 8000d2e:	4b06      	ldr	r3, [pc, #24]	@ (8000d48 <TRACSENS_AutoReloadMatchCallback+0x80>)
 8000d30:	681a      	ldr	r2, [r3, #0]
 8000d32:	68fb      	ldr	r3, [r7, #12]
 8000d34:	4805      	ldr	r0, [pc, #20]	@ (8000d4c <TRACSENS_AutoReloadMatchCallback+0x84>)
 8000d36:	f000 f9b7 	bl	80010a8 <UART_Printf>
}
 8000d3a:	46c0      	nop			@ (mov r8, r8)
 8000d3c:	46bd      	mov	sp, r7
 8000d3e:	b004      	add	sp, #16
 8000d40:	bd80      	pop	{r7, pc}
 8000d42:	46c0      	nop			@ (mov r8, r8)
 8000d44:	200001f0 	.word	0x200001f0
 8000d48:	200001f4 	.word	0x200001f4
 8000d4c:	08005e70 	.word	0x08005e70

08000d50 <TRACSENS_StartCounting>:

void TRACSENS_StartCounting()
{
 8000d50:	b580      	push	{r7, lr}
 8000d52:	af00      	add	r7, sp, #0
	TRACSENS_Power(true);
 8000d54:	2001      	movs	r0, #1
 8000d56:	f000 f915 	bl	8000f84 <TRACSENS_Power>

	if(NORMAL_CounterMode== eMode)
 8000d5a:	4b3e      	ldr	r3, [pc, #248]	@ (8000e54 <TRACSENS_StartCounting+0x104>)
 8000d5c:	781b      	ldrb	r3, [r3, #0]
 8000d5e:	2b00      	cmp	r3, #0
 8000d60:	d118      	bne.n	8000d94 <TRACSENS_StartCounting+0x44>
	{
		HAL_LPTIM_RegisterCallback(&hlptim1, HAL_LPTIM_COMPARE_MATCH_CB_ID, TRACSENS_CompareCallback);
 8000d62:	4a3d      	ldr	r2, [pc, #244]	@ (8000e58 <TRACSENS_StartCounting+0x108>)
 8000d64:	4b3d      	ldr	r3, [pc, #244]	@ (8000e5c <TRACSENS_StartCounting+0x10c>)
 8000d66:	2102      	movs	r1, #2
 8000d68:	0018      	movs	r0, r3
 8000d6a:	f001 fcdd 	bl	8002728 <HAL_LPTIM_RegisterCallback>
		HAL_LPTIM_RegisterCallback(&hlptim1, HAL_LPTIM_AUTORELOAD_MATCH_CB_ID, TRACSENS_AutoReloadMatchCallback);
 8000d6e:	4a3c      	ldr	r2, [pc, #240]	@ (8000e60 <TRACSENS_StartCounting+0x110>)
 8000d70:	4b3a      	ldr	r3, [pc, #232]	@ (8000e5c <TRACSENS_StartCounting+0x10c>)
 8000d72:	2103      	movs	r1, #3
 8000d74:	0018      	movs	r0, r3
 8000d76:	f001 fcd7 	bl	8002728 <HAL_LPTIM_RegisterCallback>
		HAL_LPTIM_RegisterCallback(&hlptim1, HAL_LPTIM_DIRECTION_UP_CB_ID, TRACSENS_CounterChangedToUpCallback);
 8000d7a:	4a3a      	ldr	r2, [pc, #232]	@ (8000e64 <TRACSENS_StartCounting+0x114>)
 8000d7c:	4b37      	ldr	r3, [pc, #220]	@ (8000e5c <TRACSENS_StartCounting+0x10c>)
 8000d7e:	2107      	movs	r1, #7
 8000d80:	0018      	movs	r0, r3
 8000d82:	f001 fcd1 	bl	8002728 <HAL_LPTIM_RegisterCallback>
		HAL_LPTIM_RegisterCallback(&hlptim1, HAL_LPTIM_DIRECTION_DOWN_CB_ID, TRACSENS_CounterChangedToDownCallback);
 8000d86:	4a38      	ldr	r2, [pc, #224]	@ (8000e68 <TRACSENS_StartCounting+0x118>)
 8000d88:	4b34      	ldr	r3, [pc, #208]	@ (8000e5c <TRACSENS_StartCounting+0x10c>)
 8000d8a:	2108      	movs	r1, #8
 8000d8c:	0018      	movs	r0, r3
 8000d8e:	f001 fccb 	bl	8002728 <HAL_LPTIM_RegisterCallback>
 8000d92:	e01b      	b.n	8000dcc <TRACSENS_StartCounting+0x7c>
	}
	else if(INVERT_CounterMode== eMode)
 8000d94:	4b2f      	ldr	r3, [pc, #188]	@ (8000e54 <TRACSENS_StartCounting+0x104>)
 8000d96:	781b      	ldrb	r3, [r3, #0]
 8000d98:	2b01      	cmp	r3, #1
 8000d9a:	d117      	bne.n	8000dcc <TRACSENS_StartCounting+0x7c>
	{
		HAL_LPTIM_RegisterCallback(&hlptim1, HAL_LPTIM_COMPARE_MATCH_CB_ID, TRACSENS_CompareCallback);
 8000d9c:	4a2e      	ldr	r2, [pc, #184]	@ (8000e58 <TRACSENS_StartCounting+0x108>)
 8000d9e:	4b2f      	ldr	r3, [pc, #188]	@ (8000e5c <TRACSENS_StartCounting+0x10c>)
 8000da0:	2102      	movs	r1, #2
 8000da2:	0018      	movs	r0, r3
 8000da4:	f001 fcc0 	bl	8002728 <HAL_LPTIM_RegisterCallback>
		HAL_LPTIM_RegisterCallback(&hlptim1, HAL_LPTIM_AUTORELOAD_MATCH_CB_ID, TRACSENS_AutoReloadMatchCallback);
 8000da8:	4a2d      	ldr	r2, [pc, #180]	@ (8000e60 <TRACSENS_StartCounting+0x110>)
 8000daa:	4b2c      	ldr	r3, [pc, #176]	@ (8000e5c <TRACSENS_StartCounting+0x10c>)
 8000dac:	2103      	movs	r1, #3
 8000dae:	0018      	movs	r0, r3
 8000db0:	f001 fcba 	bl	8002728 <HAL_LPTIM_RegisterCallback>
		HAL_LPTIM_RegisterCallback(&hlptim1, HAL_LPTIM_DIRECTION_UP_CB_ID, TRACSENS_CounterChangedToDownCallback);
 8000db4:	4a2c      	ldr	r2, [pc, #176]	@ (8000e68 <TRACSENS_StartCounting+0x118>)
 8000db6:	4b29      	ldr	r3, [pc, #164]	@ (8000e5c <TRACSENS_StartCounting+0x10c>)
 8000db8:	2107      	movs	r1, #7
 8000dba:	0018      	movs	r0, r3
 8000dbc:	f001 fcb4 	bl	8002728 <HAL_LPTIM_RegisterCallback>
		HAL_LPTIM_RegisterCallback(&hlptim1, HAL_LPTIM_DIRECTION_DOWN_CB_ID, TRACSENS_CounterChangedToUpCallback);
 8000dc0:	4a28      	ldr	r2, [pc, #160]	@ (8000e64 <TRACSENS_StartCounting+0x114>)
 8000dc2:	4b26      	ldr	r3, [pc, #152]	@ (8000e5c <TRACSENS_StartCounting+0x10c>)
 8000dc4:	2108      	movs	r1, #8
 8000dc6:	0018      	movs	r0, r3
 8000dc8:	f001 fcae 	bl	8002728 <HAL_LPTIM_RegisterCallback>
	}

	uwCompareValue=0x01;/*used once to detect direction*/
 8000dcc:	4b27      	ldr	r3, [pc, #156]	@ (8000e6c <TRACSENS_StartCounting+0x11c>)
 8000dce:	2201      	movs	r2, #1
 8000dd0:	801a      	strh	r2, [r3, #0]

	LL_LPTIM_EnableIT_ARRM(LPTIM1); 	/*Enable autoreload match interrupt (ARRMIE).*/
 8000dd2:	4b27      	ldr	r3, [pc, #156]	@ (8000e70 <TRACSENS_StartCounting+0x120>)
 8000dd4:	0018      	movs	r0, r3
 8000dd6:	f7ff fccd 	bl	8000774 <LL_LPTIM_EnableIT_ARRM>
	LL_LPTIM_EnableIT_UP(LPTIM1);		/*Enable direction change to up interrupt (UPIE).*/
 8000dda:	4b25      	ldr	r3, [pc, #148]	@ (8000e70 <TRACSENS_StartCounting+0x120>)
 8000ddc:	0018      	movs	r0, r3
 8000dde:	f7ff fcd7 	bl	8000790 <LL_LPTIM_EnableIT_UP>
	LL_LPTIM_EnableIT_DOWN(LPTIM1);		/*Enable direction change to down interrupt (DOWNIE).*/
 8000de2:	4b23      	ldr	r3, [pc, #140]	@ (8000e70 <TRACSENS_StartCounting+0x120>)
 8000de4:	0018      	movs	r0, r3
 8000de6:	f7ff fce1 	bl	80007ac <LL_LPTIM_EnableIT_DOWN>

	LL_LPTIM_OC_SetCompareCH1(LPTIM1, 11);
 8000dea:	4b21      	ldr	r3, [pc, #132]	@ (8000e70 <TRACSENS_StartCounting+0x120>)
 8000dec:	210b      	movs	r1, #11
 8000dee:	0018      	movs	r0, r3
 8000df0:	f7ff fc82 	bl	80006f8 <LL_LPTIM_OC_SetCompareCH1>

	LL_LPTIM_SetEncoderMode(LPTIM1, LL_LPTIM_ENCODER_MODE_RISING_FALLING);
 8000df4:	4b1e      	ldr	r3, [pc, #120]	@ (8000e70 <TRACSENS_StartCounting+0x120>)
 8000df6:	2104      	movs	r1, #4
 8000df8:	0018      	movs	r0, r3
 8000dfa:	f7ff fc9a 	bl	8000732 <LL_LPTIM_SetEncoderMode>
    LL_LPTIM_EnableEncoderMode(LPTIM1);
 8000dfe:	4b1c      	ldr	r3, [pc, #112]	@ (8000e70 <TRACSENS_StartCounting+0x120>)
 8000e00:	0018      	movs	r0, r3
 8000e02:	f7ff fca8 	bl	8000756 <LL_LPTIM_EnableEncoderMode>
    LL_LPTIM_Enable(LPTIM1);
 8000e06:	4b1a      	ldr	r3, [pc, #104]	@ (8000e70 <TRACSENS_StartCounting+0x120>)
 8000e08:	0018      	movs	r0, r3
 8000e0a:	f7ff fc44 	bl	8000696 <LL_LPTIM_Enable>
	LL_LPTIM_SetAutoReload(LPTIM1, TRACSENS_CFG_AUTORELOAD_VALUE);
 8000e0e:	4a19      	ldr	r2, [pc, #100]	@ (8000e74 <TRACSENS_StartCounting+0x124>)
 8000e10:	4b17      	ldr	r3, [pc, #92]	@ (8000e70 <TRACSENS_StartCounting+0x120>)
 8000e12:	0011      	movs	r1, r2
 8000e14:	0018      	movs	r0, r3
 8000e16:	f7ff fc5e 	bl	80006d6 <LL_LPTIM_SetAutoReload>
    LL_LPTIM_StartCounter(LPTIM1, LL_LPTIM_OPERATING_MODE_CONTINUOUS);
 8000e1a:	4b15      	ldr	r3, [pc, #84]	@ (8000e70 <TRACSENS_StartCounting+0x120>)
 8000e1c:	2104      	movs	r1, #4
 8000e1e:	0018      	movs	r0, r3
 8000e20:	f7ff fc47 	bl	80006b2 <LL_LPTIM_StartCounter>

    /*this is needed during power up as we always get extra pulse a bit while after start counting*/
	HAL_Delay(1);	/*when reboot, we get extra pulse*/
 8000e24:	2001      	movs	r0, #1
 8000e26:	f000 fce5 	bl	80017f4 <HAL_Delay>

	do/* 2 consecutive readings need to be the same*/
    {
    	lCntrErrorReading= LL_LPTIM_GetCounter(LPTIM1);
 8000e2a:	4b11      	ldr	r3, [pc, #68]	@ (8000e70 <TRACSENS_StartCounting+0x120>)
 8000e2c:	0018      	movs	r0, r3
 8000e2e:	f7ff fc74 	bl	800071a <LL_LPTIM_GetCounter>
 8000e32:	0003      	movs	r3, r0
 8000e34:	001a      	movs	r2, r3
 8000e36:	4b10      	ldr	r3, [pc, #64]	@ (8000e78 <TRACSENS_StartCounting+0x128>)
 8000e38:	601a      	str	r2, [r3, #0]
    }while(LL_LPTIM_GetCounter(LPTIM1)!= lCntrErrorReading);
 8000e3a:	4b0d      	ldr	r3, [pc, #52]	@ (8000e70 <TRACSENS_StartCounting+0x120>)
 8000e3c:	0018      	movs	r0, r3
 8000e3e:	f7ff fc6c 	bl	800071a <LL_LPTIM_GetCounter>
 8000e42:	0002      	movs	r2, r0
 8000e44:	4b0c      	ldr	r3, [pc, #48]	@ (8000e78 <TRACSENS_StartCounting+0x128>)
 8000e46:	681b      	ldr	r3, [r3, #0]
 8000e48:	429a      	cmp	r2, r3
 8000e4a:	d1ee      	bne.n	8000e2a <TRACSENS_StartCounting+0xda>
}
 8000e4c:	46c0      	nop			@ (mov r8, r8)
 8000e4e:	46c0      	nop			@ (mov r8, r8)
 8000e50:	46bd      	mov	sp, r7
 8000e52:	bd80      	pop	{r7, pc}
 8000e54:	200001ec 	.word	0x200001ec
 8000e58:	08000c29 	.word	0x08000c29
 8000e5c:	2000008c 	.word	0x2000008c
 8000e60:	08000cc9 	.word	0x08000cc9
 8000e64:	08000c59 	.word	0x08000c59
 8000e68:	08000c91 	.word	0x08000c91
 8000e6c:	200001ee 	.word	0x200001ee
 8000e70:	40007c00 	.word	0x40007c00
 8000e74:	0000ffff 	.word	0x0000ffff
 8000e78:	20000204 	.word	0x20000204

08000e7c <TRACSENS_ChangedToUpErrorHandling>:

void TRACSENS_ChangedToUpErrorHandling(void)
{
 8000e7c:	b580      	push	{r7, lr}
 8000e7e:	af00      	add	r7, sp, #0
	if(BWD_EXPECTING_FWD_CounterErrorState== pConfig->rteErrorPatternState)
 8000e80:	4b05      	ldr	r3, [pc, #20]	@ (8000e98 <TRACSENS_ChangedToUpErrorHandling+0x1c>)
 8000e82:	681b      	ldr	r3, [r3, #0]
 8000e84:	7c5b      	ldrb	r3, [r3, #17]
 8000e86:	2b02      	cmp	r3, #2
 8000e88:	d103      	bne.n	8000e92 <TRACSENS_ChangedToUpErrorHandling+0x16>
	{
		pConfig->rteErrorPatternState= FWD_EXPECTING_BWD_END_CounterErrorState;
 8000e8a:	4b03      	ldr	r3, [pc, #12]	@ (8000e98 <TRACSENS_ChangedToUpErrorHandling+0x1c>)
 8000e8c:	681b      	ldr	r3, [r3, #0]
 8000e8e:	2203      	movs	r2, #3
 8000e90:	745a      	strb	r2, [r3, #17]
	}

}
 8000e92:	46c0      	nop			@ (mov r8, r8)
 8000e94:	46bd      	mov	sp, r7
 8000e96:	bd80      	pop	{r7, pc}
 8000e98:	20000000 	.word	0x20000000

08000e9c <TRACSENS_ChangedToDownErrorHandling>:

void TRACSENS_ChangedToDownErrorHandling(void)
{
 8000e9c:	b580      	push	{r7, lr}
 8000e9e:	b082      	sub	sp, #8
 8000ea0:	af00      	add	r7, sp, #0
	int32_t _curr= TRACSENS_GetCounter();
 8000ea2:	f7ff fe9f 	bl	8000be4 <TRACSENS_GetCounter>
 8000ea6:	0003      	movs	r3, r0
 8000ea8:	607b      	str	r3, [r7, #4]
	if(0!= (_curr- pConfig->rteErrorPatternPreviousPulse))
 8000eaa:	4b35      	ldr	r3, [pc, #212]	@ (8000f80 <TRACSENS_ChangedToDownErrorHandling+0xe4>)
 8000eac:	681b      	ldr	r3, [r3, #0]
 8000eae:	695b      	ldr	r3, [r3, #20]
 8000eb0:	687a      	ldr	r2, [r7, #4]
 8000eb2:	429a      	cmp	r2, r3
 8000eb4:	d013      	beq.n	8000ede <TRACSENS_ChangedToDownErrorHandling+0x42>
	{
		pConfig->rteErrorPatternState= NONE_CounterErrorState; /*reset if we get real pulse inbetween error pattern*/
 8000eb6:	4b32      	ldr	r3, [pc, #200]	@ (8000f80 <TRACSENS_ChangedToDownErrorHandling+0xe4>)
 8000eb8:	681b      	ldr	r3, [r3, #0]
 8000eba:	2200      	movs	r2, #0
 8000ebc:	745a      	strb	r2, [r3, #17]
		pConfig->rteErrorPatternJustStarted= false;
 8000ebe:	4b30      	ldr	r3, [pc, #192]	@ (8000f80 <TRACSENS_ChangedToDownErrorHandling+0xe4>)
 8000ec0:	681b      	ldr	r3, [r3, #0]
 8000ec2:	2200      	movs	r2, #0
 8000ec4:	761a      	strb	r2, [r3, #24]
		if(false== pConfig->rteErrorPatternCompensationStarted)
 8000ec6:	4b2e      	ldr	r3, [pc, #184]	@ (8000f80 <TRACSENS_ChangedToDownErrorHandling+0xe4>)
 8000ec8:	681b      	ldr	r3, [r3, #0]
 8000eca:	7c1b      	ldrb	r3, [r3, #16]
 8000ecc:	2201      	movs	r2, #1
 8000ece:	4053      	eors	r3, r2
 8000ed0:	b2db      	uxtb	r3, r3
 8000ed2:	2b00      	cmp	r3, #0
 8000ed4:	d003      	beq.n	8000ede <TRACSENS_ChangedToDownErrorHandling+0x42>
		{
			pConfig->rteErrorPatternCount= 0;/*we need consecutive error pattern to mark the meter as erroneous that we can handle*/
 8000ed6:	4b2a      	ldr	r3, [pc, #168]	@ (8000f80 <TRACSENS_ChangedToDownErrorHandling+0xe4>)
 8000ed8:	681b      	ldr	r3, [r3, #0]
 8000eda:	2200      	movs	r2, #0
 8000edc:	60da      	str	r2, [r3, #12]
		}
	}
	if(NONE_CounterErrorState== pConfig->rteErrorPatternState)
 8000ede:	4b28      	ldr	r3, [pc, #160]	@ (8000f80 <TRACSENS_ChangedToDownErrorHandling+0xe4>)
 8000ee0:	681b      	ldr	r3, [r3, #0]
 8000ee2:	7c5b      	ldrb	r3, [r3, #17]
 8000ee4:	2b00      	cmp	r3, #0
 8000ee6:	d108      	bne.n	8000efa <TRACSENS_ChangedToDownErrorHandling+0x5e>
	{
		pConfig->rteErrorPatternJustStarted= true;
 8000ee8:	4b25      	ldr	r3, [pc, #148]	@ (8000f80 <TRACSENS_ChangedToDownErrorHandling+0xe4>)
 8000eea:	681b      	ldr	r3, [r3, #0]
 8000eec:	2201      	movs	r2, #1
 8000eee:	761a      	strb	r2, [r3, #24]
		pConfig->rteErrorPatternState= BWD_EXPECTING_FWD_CounterErrorState;
 8000ef0:	4b23      	ldr	r3, [pc, #140]	@ (8000f80 <TRACSENS_ChangedToDownErrorHandling+0xe4>)
 8000ef2:	681b      	ldr	r3, [r3, #0]
 8000ef4:	2202      	movs	r2, #2
 8000ef6:	745a      	strb	r2, [r3, #17]
 8000ef8:	e03a      	b.n	8000f70 <TRACSENS_ChangedToDownErrorHandling+0xd4>
	}
	else if(FWD_EXPECTING_BWD_CounterErrorState== pConfig->rteErrorPatternState)
 8000efa:	4b21      	ldr	r3, [pc, #132]	@ (8000f80 <TRACSENS_ChangedToDownErrorHandling+0xe4>)
 8000efc:	681b      	ldr	r3, [r3, #0]
 8000efe:	7c5b      	ldrb	r3, [r3, #17]
 8000f00:	2b01      	cmp	r3, #1
 8000f02:	d104      	bne.n	8000f0e <TRACSENS_ChangedToDownErrorHandling+0x72>
	{
		pConfig->rteErrorPatternState= BWD_EXPECTING_FWD_END_CounterErrorState;
 8000f04:	4b1e      	ldr	r3, [pc, #120]	@ (8000f80 <TRACSENS_ChangedToDownErrorHandling+0xe4>)
 8000f06:	681b      	ldr	r3, [r3, #0]
 8000f08:	2204      	movs	r2, #4
 8000f0a:	745a      	strb	r2, [r3, #17]
 8000f0c:	e030      	b.n	8000f70 <TRACSENS_ChangedToDownErrorHandling+0xd4>
	}
	else if(FWD_EXPECTING_BWD_END_CounterErrorState== pConfig->rteErrorPatternState)
 8000f0e:	4b1c      	ldr	r3, [pc, #112]	@ (8000f80 <TRACSENS_ChangedToDownErrorHandling+0xe4>)
 8000f10:	681b      	ldr	r3, [r3, #0]
 8000f12:	7c5b      	ldrb	r3, [r3, #17]
 8000f14:	2b03      	cmp	r3, #3
 8000f16:	d12b      	bne.n	8000f70 <TRACSENS_ChangedToDownErrorHandling+0xd4>
	{
		pConfig->rteErrorPatternCount++;
 8000f18:	4b19      	ldr	r3, [pc, #100]	@ (8000f80 <TRACSENS_ChangedToDownErrorHandling+0xe4>)
 8000f1a:	681b      	ldr	r3, [r3, #0]
 8000f1c:	68da      	ldr	r2, [r3, #12]
 8000f1e:	3201      	adds	r2, #1
 8000f20:	60da      	str	r2, [r3, #12]
		if(true== pConfig->rteErrorPatternJustStarted)
 8000f22:	4b17      	ldr	r3, [pc, #92]	@ (8000f80 <TRACSENS_ChangedToDownErrorHandling+0xe4>)
 8000f24:	681b      	ldr	r3, [r3, #0]
 8000f26:	7e1b      	ldrb	r3, [r3, #24]
 8000f28:	2b00      	cmp	r3, #0
 8000f2a:	d008      	beq.n	8000f3e <TRACSENS_ChangedToDownErrorHandling+0xa2>
		{
			pConfig->rteErrorPatternJustStarted= false;
 8000f2c:	4b14      	ldr	r3, [pc, #80]	@ (8000f80 <TRACSENS_ChangedToDownErrorHandling+0xe4>)
 8000f2e:	681b      	ldr	r3, [r3, #0]
 8000f30:	2200      	movs	r2, #0
 8000f32:	761a      	strb	r2, [r3, #24]
			pConfig->rteErrorPatternCount++;
 8000f34:	4b12      	ldr	r3, [pc, #72]	@ (8000f80 <TRACSENS_ChangedToDownErrorHandling+0xe4>)
 8000f36:	681b      	ldr	r3, [r3, #0]
 8000f38:	68da      	ldr	r2, [r3, #12]
 8000f3a:	3201      	adds	r2, #1
 8000f3c:	60da      	str	r2, [r3, #12]
		}

		if((false== pConfig->rteErrorPatternCompensationStarted)&& (pConfig->errorPatternConfirmationCount<= pConfig->rteErrorPatternCount))
 8000f3e:	4b10      	ldr	r3, [pc, #64]	@ (8000f80 <TRACSENS_ChangedToDownErrorHandling+0xe4>)
 8000f40:	681b      	ldr	r3, [r3, #0]
 8000f42:	7c1b      	ldrb	r3, [r3, #16]
 8000f44:	2201      	movs	r2, #1
 8000f46:	4053      	eors	r3, r2
 8000f48:	b2db      	uxtb	r3, r3
 8000f4a:	2b00      	cmp	r3, #0
 8000f4c:	d00c      	beq.n	8000f68 <TRACSENS_ChangedToDownErrorHandling+0xcc>
 8000f4e:	4b0c      	ldr	r3, [pc, #48]	@ (8000f80 <TRACSENS_ChangedToDownErrorHandling+0xe4>)
 8000f50:	681b      	ldr	r3, [r3, #0]
 8000f52:	885b      	ldrh	r3, [r3, #2]
 8000f54:	001a      	movs	r2, r3
 8000f56:	4b0a      	ldr	r3, [pc, #40]	@ (8000f80 <TRACSENS_ChangedToDownErrorHandling+0xe4>)
 8000f58:	681b      	ldr	r3, [r3, #0]
 8000f5a:	68db      	ldr	r3, [r3, #12]
 8000f5c:	429a      	cmp	r2, r3
 8000f5e:	d803      	bhi.n	8000f68 <TRACSENS_ChangedToDownErrorHandling+0xcc>
		{
			pConfig->rteErrorPatternCompensationStarted= true;
 8000f60:	4b07      	ldr	r3, [pc, #28]	@ (8000f80 <TRACSENS_ChangedToDownErrorHandling+0xe4>)
 8000f62:	681b      	ldr	r3, [r3, #0]
 8000f64:	2201      	movs	r2, #1
 8000f66:	741a      	strb	r2, [r3, #16]
		}
		pConfig->rteErrorPatternState= BWD_EXPECTING_FWD_CounterErrorState;
 8000f68:	4b05      	ldr	r3, [pc, #20]	@ (8000f80 <TRACSENS_ChangedToDownErrorHandling+0xe4>)
 8000f6a:	681b      	ldr	r3, [r3, #0]
 8000f6c:	2202      	movs	r2, #2
 8000f6e:	745a      	strb	r2, [r3, #17]
	}
	pConfig->rteErrorPatternPreviousPulse= _curr;
 8000f70:	4b03      	ldr	r3, [pc, #12]	@ (8000f80 <TRACSENS_ChangedToDownErrorHandling+0xe4>)
 8000f72:	681b      	ldr	r3, [r3, #0]
 8000f74:	687a      	ldr	r2, [r7, #4]
 8000f76:	615a      	str	r2, [r3, #20]
}
 8000f78:	46c0      	nop			@ (mov r8, r8)
 8000f7a:	46bd      	mov	sp, r7
 8000f7c:	b002      	add	sp, #8
 8000f7e:	bd80      	pop	{r7, pc}
 8000f80:	20000000 	.word	0x20000000

08000f84 <TRACSENS_Power>:

static void TRACSENS_Power(bool _enable)
{
 8000f84:	b580      	push	{r7, lr}
 8000f86:	b082      	sub	sp, #8
 8000f88:	af00      	add	r7, sp, #0
 8000f8a:	0002      	movs	r2, r0
 8000f8c:	1dfb      	adds	r3, r7, #7
 8000f8e:	701a      	strb	r2, [r3, #0]
}
 8000f90:	46c0      	nop			@ (mov r8, r8)
 8000f92:	46bd      	mov	sp, r7
 8000f94:	b002      	add	sp, #8
 8000f96:	bd80      	pop	{r7, pc}

08000f98 <SYSCLKConfig_STOP>:
  * and select PLL as system clock source.
  * @param  None
  * @retval None
  */
static void SYSCLKConfig_STOP(void)
{
 8000f98:	b590      	push	{r4, r7, lr}
 8000f9a:	b099      	sub	sp, #100	@ 0x64
 8000f9c:	af00      	add	r7, sp, #0
  RCC_ClkInitTypeDef RCC_ClkInitStruct = {0};
 8000f9e:	2350      	movs	r3, #80	@ 0x50
 8000fa0:	18fb      	adds	r3, r7, r3
 8000fa2:	0018      	movs	r0, r3
 8000fa4:	2310      	movs	r3, #16
 8000fa6:	001a      	movs	r2, r3
 8000fa8:	2100      	movs	r1, #0
 8000faa:	f004 fa89 	bl	80054c0 <memset>
  RCC_OscInitTypeDef RCC_OscInitStruct = {0};
 8000fae:	2408      	movs	r4, #8
 8000fb0:	193b      	adds	r3, r7, r4
 8000fb2:	0018      	movs	r0, r3
 8000fb4:	2348      	movs	r3, #72	@ 0x48
 8000fb6:	001a      	movs	r2, r3
 8000fb8:	2100      	movs	r1, #0
 8000fba:	f004 fa81 	bl	80054c0 <memset>
  uint32_t pFLatency = 0;
 8000fbe:	2300      	movs	r3, #0
 8000fc0:	607b      	str	r3, [r7, #4]

  /* Enable Power Control clock */
  __HAL_RCC_PWR_CLK_ENABLE();
 8000fc2:	4b1e      	ldr	r3, [pc, #120]	@ (800103c <SYSCLKConfig_STOP+0xa4>)
 8000fc4:	6d9a      	ldr	r2, [r3, #88]	@ 0x58
 8000fc6:	4b1d      	ldr	r3, [pc, #116]	@ (800103c <SYSCLKConfig_STOP+0xa4>)
 8000fc8:	2180      	movs	r1, #128	@ 0x80
 8000fca:	0549      	lsls	r1, r1, #21
 8000fcc:	430a      	orrs	r2, r1
 8000fce:	659a      	str	r2, [r3, #88]	@ 0x58
 8000fd0:	4b1a      	ldr	r3, [pc, #104]	@ (800103c <SYSCLKConfig_STOP+0xa4>)
 8000fd2:	6d9a      	ldr	r2, [r3, #88]	@ 0x58
 8000fd4:	2380      	movs	r3, #128	@ 0x80
 8000fd6:	055b      	lsls	r3, r3, #21
 8000fd8:	4013      	ands	r3, r2
 8000fda:	603b      	str	r3, [r7, #0]
 8000fdc:	683b      	ldr	r3, [r7, #0]

  /* Get the Oscillators configuration according to the internal RCC registers */
  HAL_RCC_GetOscConfig(&RCC_OscInitStruct);
 8000fde:	193b      	adds	r3, r7, r4
 8000fe0:	0018      	movs	r0, r3
 8000fe2:	f002 faf3 	bl	80035cc <HAL_RCC_GetOscConfig>

  RCC_OscInitStruct.OscillatorType = RCC_OSCILLATORTYPE_NONE;
 8000fe6:	193b      	adds	r3, r7, r4
 8000fe8:	2200      	movs	r2, #0
 8000fea:	601a      	str	r2, [r3, #0]
  RCC_OscInitStruct.PLL.PLLState = RCC_PLL_ON;
 8000fec:	193b      	adds	r3, r7, r4
 8000fee:	2202      	movs	r2, #2
 8000ff0:	629a      	str	r2, [r3, #40]	@ 0x28
  if (HAL_RCC_OscConfig(&RCC_OscInitStruct) != HAL_OK)
 8000ff2:	193b      	adds	r3, r7, r4
 8000ff4:	0018      	movs	r0, r3
 8000ff6:	f001 fd59 	bl	8002aac <HAL_RCC_OscConfig>
 8000ffa:	1e03      	subs	r3, r0, #0
 8000ffc:	d001      	beq.n	8001002 <SYSCLKConfig_STOP+0x6a>
  {
    Error_Handler();
 8000ffe:	f000 f87f 	bl	8001100 <Error_Handler>
  }

  /* Get the Clocks configuration according to the internal RCC registers */
  HAL_RCC_GetClockConfig(&RCC_ClkInitStruct, &pFLatency);
 8001002:	1d3a      	adds	r2, r7, #4
 8001004:	2450      	movs	r4, #80	@ 0x50
 8001006:	193b      	adds	r3, r7, r4
 8001008:	0011      	movs	r1, r2
 800100a:	0018      	movs	r0, r3
 800100c:	f002 fbc4 	bl	8003798 <HAL_RCC_GetClockConfig>

  /* Select PLL as system clock source and configure the HCLK, PCLK1 and PCLK2
     clocks dividers */
  RCC_ClkInitStruct.ClockType     = RCC_CLOCKTYPE_SYSCLK;
 8001010:	0021      	movs	r1, r4
 8001012:	187b      	adds	r3, r7, r1
 8001014:	2201      	movs	r2, #1
 8001016:	601a      	str	r2, [r3, #0]
  RCC_ClkInitStruct.SYSCLKSource  = RCC_SYSCLKSOURCE_PLLCLK;
 8001018:	187b      	adds	r3, r7, r1
 800101a:	2203      	movs	r2, #3
 800101c:	605a      	str	r2, [r3, #4]
  if (HAL_RCC_ClockConfig(&RCC_ClkInitStruct, pFLatency) != HAL_OK)
 800101e:	687a      	ldr	r2, [r7, #4]
 8001020:	187b      	adds	r3, r7, r1
 8001022:	0011      	movs	r1, r2
 8001024:	0018      	movs	r0, r3
 8001026:	f002 f927 	bl	8003278 <HAL_RCC_ClockConfig>
 800102a:	1e03      	subs	r3, r0, #0
 800102c:	d001      	beq.n	8001032 <SYSCLKConfig_STOP+0x9a>
  {
    Error_Handler();
 800102e:	f000 f867 	bl	8001100 <Error_Handler>
  }
}
 8001032:	46c0      	nop			@ (mov r8, r8)
 8001034:	46bd      	mov	sp, r7
 8001036:	b019      	add	sp, #100	@ 0x64
 8001038:	bd90      	pop	{r4, r7, pc}
 800103a:	46c0      	nop			@ (mov r8, r8)
 800103c:	40021000 	.word	0x40021000

08001040 <HAL_SYSTICK_Callback>:
  * @brief SYSTICK callback
  * @param None
  * @retval None
  */
void HAL_SYSTICK_Callback(void)
{
 8001040:	b580      	push	{r7, lr}
 8001042:	af00      	add	r7, sp, #0
  if (TimingDelay != 0)
 8001044:	4b09      	ldr	r3, [pc, #36]	@ (800106c <HAL_SYSTICK_Callback+0x2c>)
 8001046:	681b      	ldr	r3, [r3, #0]
 8001048:	2b00      	cmp	r3, #0
 800104a:	d005      	beq.n	8001058 <HAL_SYSTICK_Callback+0x18>
  {
    TimingDelay--;
 800104c:	4b07      	ldr	r3, [pc, #28]	@ (800106c <HAL_SYSTICK_Callback+0x2c>)
 800104e:	681b      	ldr	r3, [r3, #0]
 8001050:	1e5a      	subs	r2, r3, #1
 8001052:	4b06      	ldr	r3, [pc, #24]	@ (800106c <HAL_SYSTICK_Callback+0x2c>)
 8001054:	601a      	str	r2, [r3, #0]
  {
    /* Toggle LED4 */
    BSP_LED_Toggle(LED4);
    TimingDelay = LED_TOGGLE_DELAY;
  }
}
 8001056:	e005      	b.n	8001064 <HAL_SYSTICK_Callback+0x24>
    BSP_LED_Toggle(LED4);
 8001058:	2000      	movs	r0, #0
 800105a:	f000 fa6b 	bl	8001534 <BSP_LED_Toggle>
    TimingDelay = LED_TOGGLE_DELAY;
 800105e:	4b03      	ldr	r3, [pc, #12]	@ (800106c <HAL_SYSTICK_Callback+0x2c>)
 8001060:	2264      	movs	r2, #100	@ 0x64
 8001062:	601a      	str	r2, [r3, #0]
}
 8001064:	46c0      	nop			@ (mov r8, r8)
 8001066:	46bd      	mov	sp, r7
 8001068:	bd80      	pop	{r7, pc}
 800106a:	46c0      	nop			@ (mov r8, r8)
 800106c:	200001e8 	.word	0x200001e8

08001070 <HAL_GPIO_EXTI_Falling_Callback>:
  * @brief EXTI line detection callbacks
  * @param GPIO_Pin: Specifies the pins connected EXTI line
  * @retval None
  */
void HAL_GPIO_EXTI_Falling_Callback(uint16_t GPIO_Pin)
{
 8001070:	b580      	push	{r7, lr}
 8001072:	b082      	sub	sp, #8
 8001074:	af00      	add	r7, sp, #0
 8001076:	0002      	movs	r2, r0
 8001078:	1dbb      	adds	r3, r7, #6
 800107a:	801a      	strh	r2, [r3, #0]
  if (GPIO_Pin == BUTTON_USER_PIN)
 800107c:	1dbb      	adds	r3, r7, #6
 800107e:	881a      	ldrh	r2, [r3, #0]
 8001080:	2380      	movs	r3, #128	@ 0x80
 8001082:	019b      	lsls	r3, r3, #6
 8001084:	429a      	cmp	r2, r3
 8001086:	d108      	bne.n	800109a <HAL_GPIO_EXTI_Falling_Callback+0x2a>
  {
    /* Reconfigure LED4 */
    BSP_LED_Init(LED4);
 8001088:	2000      	movs	r0, #0
 800108a:	f000 f9d1 	bl	8001430 <BSP_LED_Init>
   /* Toggle LED4 */
    BSP_LED_Toggle(LED4);
 800108e:	2000      	movs	r0, #0
 8001090:	f000 fa50 	bl	8001534 <BSP_LED_Toggle>
    TimingDelay = LED_TOGGLE_DELAY;
 8001094:	4b03      	ldr	r3, [pc, #12]	@ (80010a4 <HAL_GPIO_EXTI_Falling_Callback+0x34>)
 8001096:	2264      	movs	r2, #100	@ 0x64
 8001098:	601a      	str	r2, [r3, #0]
  }
}
 800109a:	46c0      	nop			@ (mov r8, r8)
 800109c:	46bd      	mov	sp, r7
 800109e:	b002      	add	sp, #8
 80010a0:	bd80      	pop	{r7, pc}
 80010a2:	46c0      	nop			@ (mov r8, r8)
 80010a4:	200001e8 	.word	0x200001e8

080010a8 <UART_Printf>:

void UART_Printf(char *format, ...)
{
 80010a8:	b40f      	push	{r0, r1, r2, r3}
 80010aa:	b590      	push	{r4, r7, lr}
 80010ac:	b0c3      	sub	sp, #268	@ 0x10c
 80010ae:	af00      	add	r7, sp, #0
  char str[256];
  va_list args;
  va_start(args, format);
 80010b0:	238a      	movs	r3, #138	@ 0x8a
 80010b2:	005b      	lsls	r3, r3, #1
 80010b4:	2108      	movs	r1, #8
 80010b6:	185b      	adds	r3, r3, r1
 80010b8:	19db      	adds	r3, r3, r7
 80010ba:	607b      	str	r3, [r7, #4]
  vsnprintf(str, sizeof(str), format, args);
 80010bc:	687b      	ldr	r3, [r7, #4]
 80010be:	2288      	movs	r2, #136	@ 0x88
 80010c0:	0052      	lsls	r2, r2, #1
 80010c2:	1852      	adds	r2, r2, r1
 80010c4:	19d2      	adds	r2, r2, r7
 80010c6:	6812      	ldr	r2, [r2, #0]
 80010c8:	2180      	movs	r1, #128	@ 0x80
 80010ca:	0049      	lsls	r1, r1, #1
 80010cc:	2408      	movs	r4, #8
 80010ce:	1938      	adds	r0, r7, r4
 80010d0:	f004 f9ea 	bl	80054a8 <vsniprintf>
  va_end(args);

  HAL_UART_Transmit(&huart2, (uint8_t *)str, strlen(str), HAL_MAX_DELAY);
 80010d4:	193b      	adds	r3, r7, r4
 80010d6:	0018      	movs	r0, r3
 80010d8:	f7ff f816 	bl	8000108 <strlen>
 80010dc:	0003      	movs	r3, r0
 80010de:	b29a      	uxth	r2, r3
 80010e0:	2301      	movs	r3, #1
 80010e2:	425b      	negs	r3, r3
 80010e4:	1939      	adds	r1, r7, r4
 80010e6:	4805      	ldr	r0, [pc, #20]	@ (80010fc <UART_Printf+0x54>)
 80010e8:	f003 fc04 	bl	80048f4 <HAL_UART_Transmit>
}
 80010ec:	46c0      	nop			@ (mov r8, r8)
 80010ee:	46bd      	mov	sp, r7
 80010f0:	b043      	add	sp, #268	@ 0x10c
 80010f2:	bc90      	pop	{r4, r7}
 80010f4:	bc08      	pop	{r3}
 80010f6:	b004      	add	sp, #16
 80010f8:	4718      	bx	r3
 80010fa:	46c0      	nop			@ (mov r8, r8)
 80010fc:	20000154 	.word	0x20000154

08001100 <Error_Handler>:
/**
  * @brief  This function is executed in case of error occurrence.
  * @retval None
  */
void Error_Handler(void)
{
 8001100:	b580      	push	{r7, lr}
 8001102:	af00      	add	r7, sp, #0
  /* USER CODE BEGIN Error_Handler_Debug */
  /* User can add his own implementation to report the HAL error return state */

  /* Suspend tick */
  HAL_SuspendTick();
 8001104:	f000 fb9a 	bl	800183c <HAL_SuspendTick>

  /* Turn LED4 on */
  BSP_LED_On(LED4);
 8001108:	2000      	movs	r0, #0
 800110a:	f000 f9cf 	bl	80014ac <BSP_LED_On>
  while (1)
 800110e:	46c0      	nop			@ (mov r8, r8)
 8001110:	e7fd      	b.n	800110e <Error_Handler+0xe>
	...

08001114 <HAL_MspInit>:
/* USER CODE END 0 */
/**
  * Initializes the Global MSP.
  */
void HAL_MspInit(void)
{
 8001114:	b580      	push	{r7, lr}
 8001116:	b082      	sub	sp, #8
 8001118:	af00      	add	r7, sp, #0

  /* USER CODE BEGIN MspInit 0 */

  /* USER CODE END MspInit 0 */

  __HAL_RCC_PWR_CLK_ENABLE();
 800111a:	4b0f      	ldr	r3, [pc, #60]	@ (8001158 <HAL_MspInit+0x44>)
 800111c:	6d9a      	ldr	r2, [r3, #88]	@ 0x58
 800111e:	4b0e      	ldr	r3, [pc, #56]	@ (8001158 <HAL_MspInit+0x44>)
 8001120:	2180      	movs	r1, #128	@ 0x80
 8001122:	0549      	lsls	r1, r1, #21
 8001124:	430a      	orrs	r2, r1
 8001126:	659a      	str	r2, [r3, #88]	@ 0x58
 8001128:	4b0b      	ldr	r3, [pc, #44]	@ (8001158 <HAL_MspInit+0x44>)
 800112a:	6d9a      	ldr	r2, [r3, #88]	@ 0x58
 800112c:	2380      	movs	r3, #128	@ 0x80
 800112e:	055b      	lsls	r3, r3, #21
 8001130:	4013      	ands	r3, r2
 8001132:	607b      	str	r3, [r7, #4]
 8001134:	687b      	ldr	r3, [r7, #4]
  __HAL_RCC_SYSCFG_CLK_ENABLE();
 8001136:	4b08      	ldr	r3, [pc, #32]	@ (8001158 <HAL_MspInit+0x44>)
 8001138:	6e1a      	ldr	r2, [r3, #96]	@ 0x60
 800113a:	4b07      	ldr	r3, [pc, #28]	@ (8001158 <HAL_MspInit+0x44>)
 800113c:	2101      	movs	r1, #1
 800113e:	430a      	orrs	r2, r1
 8001140:	661a      	str	r2, [r3, #96]	@ 0x60
 8001142:	4b05      	ldr	r3, [pc, #20]	@ (8001158 <HAL_MspInit+0x44>)
 8001144:	6e1b      	ldr	r3, [r3, #96]	@ 0x60
 8001146:	2201      	movs	r2, #1
 8001148:	4013      	ands	r3, r2
 800114a:	603b      	str	r3, [r7, #0]
 800114c:	683b      	ldr	r3, [r7, #0]
  /* System interrupt init*/

  /* USER CODE BEGIN MspInit 1 */

  /* USER CODE END MspInit 1 */
}
 800114e:	46c0      	nop			@ (mov r8, r8)
 8001150:	46bd      	mov	sp, r7
 8001152:	b002      	add	sp, #8
 8001154:	bd80      	pop	{r7, pc}
 8001156:	46c0      	nop			@ (mov r8, r8)
 8001158:	40021000 	.word	0x40021000

0800115c <HAL_LPTIM_MspInit>:
  * This function configures the hardware resources used in this example
  * @param hlptim: LPTIM handle pointer
  * @retval None
  */
void HAL_LPTIM_MspInit(LPTIM_HandleTypeDef* hlptim)
{
 800115c:	b590      	push	{r4, r7, lr}
 800115e:	b099      	sub	sp, #100	@ 0x64
 8001160:	af00      	add	r7, sp, #0
 8001162:	6078      	str	r0, [r7, #4]
  GPIO_InitTypeDef GPIO_InitStruct = {0};
 8001164:	234c      	movs	r3, #76	@ 0x4c
 8001166:	18fb      	adds	r3, r7, r3
 8001168:	0018      	movs	r0, r3
 800116a:	2314      	movs	r3, #20
 800116c:	001a      	movs	r2, r3
 800116e:	2100      	movs	r1, #0
 8001170:	f004 f9a6 	bl	80054c0 <memset>
  RCC_PeriphCLKInitTypeDef PeriphClkInit = {0};
 8001174:	2414      	movs	r4, #20
 8001176:	193b      	adds	r3, r7, r4
 8001178:	0018      	movs	r0, r3
 800117a:	2338      	movs	r3, #56	@ 0x38
 800117c:	001a      	movs	r2, r3
 800117e:	2100      	movs	r1, #0
 8001180:	f004 f99e 	bl	80054c0 <memset>
  if(hlptim->Instance==LPTIM1)
 8001184:	687b      	ldr	r3, [r7, #4]
 8001186:	681b      	ldr	r3, [r3, #0]
 8001188:	4a26      	ldr	r2, [pc, #152]	@ (8001224 <HAL_LPTIM_MspInit+0xc8>)
 800118a:	4293      	cmp	r3, r2
 800118c:	d145      	bne.n	800121a <HAL_LPTIM_MspInit+0xbe>

    /* USER CODE END LPTIM1_MspInit 0 */

  /** Initializes the peripherals clocks
  */
    PeriphClkInit.PeriphClockSelection = RCC_PERIPHCLK_LPTIM1;
 800118e:	193b      	adds	r3, r7, r4
 8001190:	2280      	movs	r2, #128	@ 0x80
 8001192:	601a      	str	r2, [r3, #0]
    PeriphClkInit.Lptim1ClockSelection = RCC_LPTIM1CLKSOURCE_LSI;
 8001194:	193b      	adds	r3, r7, r4
 8001196:	2280      	movs	r2, #128	@ 0x80
 8001198:	02d2      	lsls	r2, r2, #11
 800119a:	61da      	str	r2, [r3, #28]
    if (HAL_RCCEx_PeriphCLKConfig(&PeriphClkInit) != HAL_OK)
 800119c:	193b      	adds	r3, r7, r4
 800119e:	0018      	movs	r0, r3
 80011a0:	f002 fb90 	bl	80038c4 <HAL_RCCEx_PeriphCLKConfig>
 80011a4:	1e03      	subs	r3, r0, #0
 80011a6:	d001      	beq.n	80011ac <HAL_LPTIM_MspInit+0x50>
    {
      Error_Handler();
 80011a8:	f7ff ffaa 	bl	8001100 <Error_Handler>
    }

    /* Peripheral clock enable */
    __HAL_RCC_LPTIM1_CLK_ENABLE();
 80011ac:	4b1e      	ldr	r3, [pc, #120]	@ (8001228 <HAL_LPTIM_MspInit+0xcc>)
 80011ae:	6d9a      	ldr	r2, [r3, #88]	@ 0x58
 80011b0:	4b1d      	ldr	r3, [pc, #116]	@ (8001228 <HAL_LPTIM_MspInit+0xcc>)
 80011b2:	2180      	movs	r1, #128	@ 0x80
 80011b4:	0609      	lsls	r1, r1, #24
 80011b6:	430a      	orrs	r2, r1
 80011b8:	659a      	str	r2, [r3, #88]	@ 0x58
 80011ba:	4b1b      	ldr	r3, [pc, #108]	@ (8001228 <HAL_LPTIM_MspInit+0xcc>)
 80011bc:	6d9b      	ldr	r3, [r3, #88]	@ 0x58
 80011be:	0fdb      	lsrs	r3, r3, #31
 80011c0:	07db      	lsls	r3, r3, #31
 80011c2:	613b      	str	r3, [r7, #16]
 80011c4:	693b      	ldr	r3, [r7, #16]

    __HAL_RCC_GPIOC_CLK_ENABLE();
 80011c6:	4b18      	ldr	r3, [pc, #96]	@ (8001228 <HAL_LPTIM_MspInit+0xcc>)
 80011c8:	6cda      	ldr	r2, [r3, #76]	@ 0x4c
 80011ca:	4b17      	ldr	r3, [pc, #92]	@ (8001228 <HAL_LPTIM_MspInit+0xcc>)
 80011cc:	2104      	movs	r1, #4
 80011ce:	430a      	orrs	r2, r1
 80011d0:	64da      	str	r2, [r3, #76]	@ 0x4c
 80011d2:	4b15      	ldr	r3, [pc, #84]	@ (8001228 <HAL_LPTIM_MspInit+0xcc>)
 80011d4:	6cdb      	ldr	r3, [r3, #76]	@ 0x4c
 80011d6:	2204      	movs	r2, #4
 80011d8:	4013      	ands	r3, r2
 80011da:	60fb      	str	r3, [r7, #12]
 80011dc:	68fb      	ldr	r3, [r7, #12]
    /**LPTIM1 GPIO Configuration
    PC0     ------> LPTIM1_IN1
    PC2     ------> LPTIM1_IN2
    */
    GPIO_InitStruct.Pin = GPIO_PIN_0|GPIO_PIN_2;
 80011de:	214c      	movs	r1, #76	@ 0x4c
 80011e0:	187b      	adds	r3, r7, r1
 80011e2:	2205      	movs	r2, #5
 80011e4:	601a      	str	r2, [r3, #0]
    GPIO_InitStruct.Mode = GPIO_MODE_AF_PP;
 80011e6:	187b      	adds	r3, r7, r1
 80011e8:	2202      	movs	r2, #2
 80011ea:	605a      	str	r2, [r3, #4]
    GPIO_InitStruct.Pull = GPIO_NOPULL;
 80011ec:	187b      	adds	r3, r7, r1
 80011ee:	2200      	movs	r2, #0
 80011f0:	609a      	str	r2, [r3, #8]
    GPIO_InitStruct.Speed = GPIO_SPEED_FREQ_LOW;
 80011f2:	187b      	adds	r3, r7, r1
 80011f4:	2200      	movs	r2, #0
 80011f6:	60da      	str	r2, [r3, #12]
    GPIO_InitStruct.Alternate = GPIO_AF1_LPTIM1;
 80011f8:	187b      	adds	r3, r7, r1
 80011fa:	2201      	movs	r2, #1
 80011fc:	611a      	str	r2, [r3, #16]
    HAL_GPIO_Init(GPIOC, &GPIO_InitStruct);
 80011fe:	187b      	adds	r3, r7, r1
 8001200:	4a0a      	ldr	r2, [pc, #40]	@ (800122c <HAL_LPTIM_MspInit+0xd0>)
 8001202:	0019      	movs	r1, r3
 8001204:	0010      	movs	r0, r2
 8001206:	f000 fc51 	bl	8001aac <HAL_GPIO_Init>

    /* LPTIM1 interrupt Init */
    HAL_NVIC_SetPriority(TIM6_DAC_LPTIM1_IRQn, 0, 0);
 800120a:	2200      	movs	r2, #0
 800120c:	2100      	movs	r1, #0
 800120e:	2011      	movs	r0, #17
 8001210:	f000 fbce 	bl	80019b0 <HAL_NVIC_SetPriority>
    HAL_NVIC_EnableIRQ(TIM6_DAC_LPTIM1_IRQn);
 8001214:	2011      	movs	r0, #17
 8001216:	f000 fbe0 	bl	80019da <HAL_NVIC_EnableIRQ>

    /* USER CODE END LPTIM1_MspInit 1 */

  }

}
 800121a:	46c0      	nop			@ (mov r8, r8)
 800121c:	46bd      	mov	sp, r7
 800121e:	b019      	add	sp, #100	@ 0x64
 8001220:	bd90      	pop	{r4, r7, pc}
 8001222:	46c0      	nop			@ (mov r8, r8)
 8001224:	40007c00 	.word	0x40007c00
 8001228:	40021000 	.word	0x40021000
 800122c:	50000800 	.word	0x50000800

08001230 <HAL_RTC_MspInit>:
  * This function configures the hardware resources used in this example
  * @param hrtc: RTC handle pointer
  * @retval None
  */
void HAL_RTC_MspInit(RTC_HandleTypeDef* hrtc)
{
 8001230:	b590      	push	{r4, r7, lr}
 8001232:	b093      	sub	sp, #76	@ 0x4c
 8001234:	af00      	add	r7, sp, #0
 8001236:	6078      	str	r0, [r7, #4]
  RCC_PeriphCLKInitTypeDef PeriphClkInit = {0};
 8001238:	2410      	movs	r4, #16
 800123a:	193b      	adds	r3, r7, r4
 800123c:	0018      	movs	r0, r3
 800123e:	2338      	movs	r3, #56	@ 0x38
 8001240:	001a      	movs	r2, r3
 8001242:	2100      	movs	r1, #0
 8001244:	f004 f93c 	bl	80054c0 <memset>
  if(hrtc->Instance==RTC)
 8001248:	687b      	ldr	r3, [r7, #4]
 800124a:	681b      	ldr	r3, [r3, #0]
 800124c:	4a16      	ldr	r2, [pc, #88]	@ (80012a8 <HAL_RTC_MspInit+0x78>)
 800124e:	4293      	cmp	r3, r2
 8001250:	d126      	bne.n	80012a0 <HAL_RTC_MspInit+0x70>

    /* USER CODE END RTC_MspInit 0 */

  /** Initializes the peripherals clocks
  */
    PeriphClkInit.PeriphClockSelection = RCC_PERIPHCLK_RTC;
 8001252:	193b      	adds	r3, r7, r4
 8001254:	2280      	movs	r2, #128	@ 0x80
 8001256:	0212      	lsls	r2, r2, #8
 8001258:	601a      	str	r2, [r3, #0]
    PeriphClkInit.RTCClockSelection = RCC_RTCCLKSOURCE_LSI;
 800125a:	193b      	adds	r3, r7, r4
 800125c:	2280      	movs	r2, #128	@ 0x80
 800125e:	0092      	lsls	r2, r2, #2
 8001260:	635a      	str	r2, [r3, #52]	@ 0x34
    if (HAL_RCCEx_PeriphCLKConfig(&PeriphClkInit) != HAL_OK)
 8001262:	193b      	adds	r3, r7, r4
 8001264:	0018      	movs	r0, r3
 8001266:	f002 fb2d 	bl	80038c4 <HAL_RCCEx_PeriphCLKConfig>
 800126a:	1e03      	subs	r3, r0, #0
 800126c:	d001      	beq.n	8001272 <HAL_RTC_MspInit+0x42>
    {
      Error_Handler();
 800126e:	f7ff ff47 	bl	8001100 <Error_Handler>
    }

    /* Peripheral clock enable */
    __HAL_RCC_RTC_ENABLE();
 8001272:	4a0e      	ldr	r2, [pc, #56]	@ (80012ac <HAL_RTC_MspInit+0x7c>)
 8001274:	2390      	movs	r3, #144	@ 0x90
 8001276:	58d3      	ldr	r3, [r2, r3]
 8001278:	490c      	ldr	r1, [pc, #48]	@ (80012ac <HAL_RTC_MspInit+0x7c>)
 800127a:	2280      	movs	r2, #128	@ 0x80
 800127c:	0212      	lsls	r2, r2, #8
 800127e:	4313      	orrs	r3, r2
 8001280:	2290      	movs	r2, #144	@ 0x90
 8001282:	508b      	str	r3, [r1, r2]
    __HAL_RCC_RTCAPB_CLK_ENABLE();
 8001284:	4b09      	ldr	r3, [pc, #36]	@ (80012ac <HAL_RTC_MspInit+0x7c>)
 8001286:	6d9a      	ldr	r2, [r3, #88]	@ 0x58
 8001288:	4b08      	ldr	r3, [pc, #32]	@ (80012ac <HAL_RTC_MspInit+0x7c>)
 800128a:	2180      	movs	r1, #128	@ 0x80
 800128c:	00c9      	lsls	r1, r1, #3
 800128e:	430a      	orrs	r2, r1
 8001290:	659a      	str	r2, [r3, #88]	@ 0x58
 8001292:	4b06      	ldr	r3, [pc, #24]	@ (80012ac <HAL_RTC_MspInit+0x7c>)
 8001294:	6d9a      	ldr	r2, [r3, #88]	@ 0x58
 8001296:	2380      	movs	r3, #128	@ 0x80
 8001298:	00db      	lsls	r3, r3, #3
 800129a:	4013      	ands	r3, r2
 800129c:	60fb      	str	r3, [r7, #12]
 800129e:	68fb      	ldr	r3, [r7, #12]

    /* USER CODE END RTC_MspInit 1 */

  }

}
 80012a0:	46c0      	nop			@ (mov r8, r8)
 80012a2:	46bd      	mov	sp, r7
 80012a4:	b013      	add	sp, #76	@ 0x4c
 80012a6:	bd90      	pop	{r4, r7, pc}
 80012a8:	40002800 	.word	0x40002800
 80012ac:	40021000 	.word	0x40021000

080012b0 <HAL_UART_MspInit>:
  * This function configures the hardware resources used in this example
  * @param huart: UART handle pointer
  * @retval None
  */
void HAL_UART_MspInit(UART_HandleTypeDef* huart)
{
 80012b0:	b590      	push	{r4, r7, lr}
 80012b2:	b099      	sub	sp, #100	@ 0x64
 80012b4:	af00      	add	r7, sp, #0
 80012b6:	6078      	str	r0, [r7, #4]
  GPIO_InitTypeDef GPIO_InitStruct = {0};
 80012b8:	234c      	movs	r3, #76	@ 0x4c
 80012ba:	18fb      	adds	r3, r7, r3
 80012bc:	0018      	movs	r0, r3
 80012be:	2314      	movs	r3, #20
 80012c0:	001a      	movs	r2, r3
 80012c2:	2100      	movs	r1, #0
 80012c4:	f004 f8fc 	bl	80054c0 <memset>
  RCC_PeriphCLKInitTypeDef PeriphClkInit = {0};
 80012c8:	2414      	movs	r4, #20
 80012ca:	193b      	adds	r3, r7, r4
 80012cc:	0018      	movs	r0, r3
 80012ce:	2338      	movs	r3, #56	@ 0x38
 80012d0:	001a      	movs	r2, r3
 80012d2:	2100      	movs	r1, #0
 80012d4:	f004 f8f4 	bl	80054c0 <memset>
  if(huart->Instance==USART2)
 80012d8:	687b      	ldr	r3, [r7, #4]
 80012da:	681b      	ldr	r3, [r3, #0]
 80012dc:	4a22      	ldr	r2, [pc, #136]	@ (8001368 <HAL_UART_MspInit+0xb8>)
 80012de:	4293      	cmp	r3, r2
 80012e0:	d13e      	bne.n	8001360 <HAL_UART_MspInit+0xb0>

    /* USER CODE END USART2_MspInit 0 */

  /** Initializes the peripherals clocks
  */
    PeriphClkInit.PeriphClockSelection = RCC_PERIPHCLK_USART2;
 80012e2:	193b      	adds	r3, r7, r4
 80012e4:	2202      	movs	r2, #2
 80012e6:	601a      	str	r2, [r3, #0]
    PeriphClkInit.Usart2ClockSelection = RCC_USART2CLKSOURCE_PCLK1;
 80012e8:	193b      	adds	r3, r7, r4
 80012ea:	2200      	movs	r2, #0
 80012ec:	609a      	str	r2, [r3, #8]
    if (HAL_RCCEx_PeriphCLKConfig(&PeriphClkInit) != HAL_OK)
 80012ee:	193b      	adds	r3, r7, r4
 80012f0:	0018      	movs	r0, r3
 80012f2:	f002 fae7 	bl	80038c4 <HAL_RCCEx_PeriphCLKConfig>
 80012f6:	1e03      	subs	r3, r0, #0
 80012f8:	d001      	beq.n	80012fe <HAL_UART_MspInit+0x4e>
    {
      Error_Handler();
 80012fa:	f7ff ff01 	bl	8001100 <Error_Handler>
    }

    /* Peripheral clock enable */
    __HAL_RCC_USART2_CLK_ENABLE();
 80012fe:	4b1b      	ldr	r3, [pc, #108]	@ (800136c <HAL_UART_MspInit+0xbc>)
 8001300:	6d9a      	ldr	r2, [r3, #88]	@ 0x58
 8001302:	4b1a      	ldr	r3, [pc, #104]	@ (800136c <HAL_UART_MspInit+0xbc>)
 8001304:	2180      	movs	r1, #128	@ 0x80
 8001306:	0289      	lsls	r1, r1, #10
 8001308:	430a      	orrs	r2, r1
 800130a:	659a      	str	r2, [r3, #88]	@ 0x58
 800130c:	4b17      	ldr	r3, [pc, #92]	@ (800136c <HAL_UART_MspInit+0xbc>)
 800130e:	6d9a      	ldr	r2, [r3, #88]	@ 0x58
 8001310:	2380      	movs	r3, #128	@ 0x80
 8001312:	029b      	lsls	r3, r3, #10
 8001314:	4013      	ands	r3, r2
 8001316:	613b      	str	r3, [r7, #16]
 8001318:	693b      	ldr	r3, [r7, #16]

    __HAL_RCC_GPIOA_CLK_ENABLE();
 800131a:	4b14      	ldr	r3, [pc, #80]	@ (800136c <HAL_UART_MspInit+0xbc>)
 800131c:	6cda      	ldr	r2, [r3, #76]	@ 0x4c
 800131e:	4b13      	ldr	r3, [pc, #76]	@ (800136c <HAL_UART_MspInit+0xbc>)
 8001320:	2101      	movs	r1, #1
 8001322:	430a      	orrs	r2, r1
 8001324:	64da      	str	r2, [r3, #76]	@ 0x4c
 8001326:	4b11      	ldr	r3, [pc, #68]	@ (800136c <HAL_UART_MspInit+0xbc>)
 8001328:	6cdb      	ldr	r3, [r3, #76]	@ 0x4c
 800132a:	2201      	movs	r2, #1
 800132c:	4013      	ands	r3, r2
 800132e:	60fb      	str	r3, [r7, #12]
 8001330:	68fb      	ldr	r3, [r7, #12]
    /**USART2 GPIO Configuration
    PA2     ------> USART2_TX
    PA3     ------> USART2_RX
    */
    GPIO_InitStruct.Pin = GPIO_PIN_2|GPIO_PIN_3;
 8001332:	214c      	movs	r1, #76	@ 0x4c
 8001334:	187b      	adds	r3, r7, r1
 8001336:	220c      	movs	r2, #12
 8001338:	601a      	str	r2, [r3, #0]
    GPIO_InitStruct.Mode = GPIO_MODE_AF_PP;
 800133a:	187b      	adds	r3, r7, r1
 800133c:	2202      	movs	r2, #2
 800133e:	605a      	str	r2, [r3, #4]
    GPIO_InitStruct.Pull = GPIO_NOPULL;
 8001340:	187b      	adds	r3, r7, r1
 8001342:	2200      	movs	r2, #0
 8001344:	609a      	str	r2, [r3, #8]
    GPIO_InitStruct.Speed = GPIO_SPEED_FREQ_LOW;
 8001346:	187b      	adds	r3, r7, r1
 8001348:	2200      	movs	r2, #0
 800134a:	60da      	str	r2, [r3, #12]
    GPIO_InitStruct.Alternate = GPIO_AF7_USART2;
 800134c:	187b      	adds	r3, r7, r1
 800134e:	2207      	movs	r2, #7
 8001350:	611a      	str	r2, [r3, #16]
    HAL_GPIO_Init(GPIOA, &GPIO_InitStruct);
 8001352:	187a      	adds	r2, r7, r1
 8001354:	23a0      	movs	r3, #160	@ 0xa0
 8001356:	05db      	lsls	r3, r3, #23
 8001358:	0011      	movs	r1, r2
 800135a:	0018      	movs	r0, r3
 800135c:	f000 fba6 	bl	8001aac <HAL_GPIO_Init>

    /* USER CODE END USART2_MspInit 1 */

  }

}
 8001360:	46c0      	nop			@ (mov r8, r8)
 8001362:	46bd      	mov	sp, r7
 8001364:	b019      	add	sp, #100	@ 0x64
 8001366:	bd90      	pop	{r4, r7, pc}
 8001368:	40004400 	.word	0x40004400
 800136c:	40021000 	.word	0x40021000

08001370 <SVC_Handler>:
/******************************************************************************/
/**
  * @brief This function handles System service call via SVC instruction.
  */
void SVC_Handler(void)
{
 8001370:	b580      	push	{r7, lr}
 8001372:	af00      	add	r7, sp, #0

  /* USER CODE END SVCall_IRQn 0 */
  /* USER CODE BEGIN SVCall_IRQn 1 */

  /* USER CODE END SVCall_IRQn 1 */
}
 8001374:	46c0      	nop			@ (mov r8, r8)
 8001376:	46bd      	mov	sp, r7
 8001378:	bd80      	pop	{r7, pc}

0800137a <PendSV_Handler>:

/**
  * @brief This function handles Pendable request for system service.
  */
void PendSV_Handler(void)
{
 800137a:	b580      	push	{r7, lr}
 800137c:	af00      	add	r7, sp, #0

  /* USER CODE END PendSV_IRQn 0 */
  /* USER CODE BEGIN PendSV_IRQn 1 */

  /* USER CODE END PendSV_IRQn 1 */
}
 800137e:	46c0      	nop			@ (mov r8, r8)
 8001380:	46bd      	mov	sp, r7
 8001382:	bd80      	pop	{r7, pc}

08001384 <SysTick_Handler>:

/**
  * @brief This function handles System tick timer.
  */
void SysTick_Handler(void)
{
 8001384:	b580      	push	{r7, lr}
 8001386:	af00      	add	r7, sp, #0
  /* USER CODE BEGIN SysTick_IRQn 0 */

  /* USER CODE END SysTick_IRQn 0 */
  HAL_IncTick();
 8001388:	f000 fa18 	bl	80017bc <HAL_IncTick>
  /* USER CODE BEGIN SysTick_IRQn 1 */
  HAL_SYSTICK_IRQHandler();
 800138c:	f000 fb42 	bl	8001a14 <HAL_SYSTICK_IRQHandler>
  /* USER CODE END SysTick_IRQn 1 */
}
 8001390:	46c0      	nop			@ (mov r8, r8)
 8001392:	46bd      	mov	sp, r7
 8001394:	bd80      	pop	{r7, pc}

08001396 <EXTI4_15_IRQHandler>:

/**
  * @brief This function handles EXTI line 4 to 15 interrupts.
  */
void EXTI4_15_IRQHandler(void)
{
 8001396:	b580      	push	{r7, lr}
 8001398:	af00      	add	r7, sp, #0
  /* USER CODE BEGIN EXTI4_15_IRQn 0 */

  /* USER CODE END EXTI4_15_IRQn 0 */
  HAL_GPIO_EXTI_IRQHandler(BUTTON_USER_Pin);
 800139a:	2380      	movs	r3, #128	@ 0x80
 800139c:	019b      	lsls	r3, r3, #6
 800139e:	0018      	movs	r0, r3
 80013a0:	f000 fd28 	bl	8001df4 <HAL_GPIO_EXTI_IRQHandler>
  /* USER CODE BEGIN EXTI4_15_IRQn 1 */

  /* USER CODE END EXTI4_15_IRQn 1 */
}
 80013a4:	46c0      	nop			@ (mov r8, r8)
 80013a6:	46bd      	mov	sp, r7
 80013a8:	bd80      	pop	{r7, pc}
	...

080013ac <TIM6_DAC_LPTIM1_IRQHandler>:

/**
  * @brief This function handles TIM6, DAC and LPTIM1 global Interrupts (combined with EXTI 31).
  */
void TIM6_DAC_LPTIM1_IRQHandler(void)
{
 80013ac:	b580      	push	{r7, lr}
 80013ae:	af00      	add	r7, sp, #0
  /* USER CODE BEGIN TIM6_DAC_LPTIM1_IRQn 0 */

  /* USER CODE END TIM6_DAC_LPTIM1_IRQn 0 */
  HAL_LPTIM_IRQHandler(&hlptim1);
 80013b0:	4b03      	ldr	r3, [pc, #12]	@ (80013c0 <TIM6_DAC_LPTIM1_IRQHandler+0x14>)
 80013b2:	0018      	movs	r0, r3
 80013b4:	f000 fef6 	bl	80021a4 <HAL_LPTIM_IRQHandler>
  /* USER CODE BEGIN TIM6_DAC_LPTIM1_IRQn 1 */

  /* USER CODE END TIM6_DAC_LPTIM1_IRQn 1 */
}
 80013b8:	46c0      	nop			@ (mov r8, r8)
 80013ba:	46bd      	mov	sp, r7
 80013bc:	bd80      	pop	{r7, pc}
 80013be:	46c0      	nop			@ (mov r8, r8)
 80013c0:	2000008c 	.word	0x2000008c

080013c4 <_sbrk>:
 *
 * @param incr Memory size
 * @return Pointer to allocated memory
 */
void *_sbrk(ptrdiff_t incr)
{
 80013c4:	b580      	push	{r7, lr}
 80013c6:	b086      	sub	sp, #24
 80013c8:	af00      	add	r7, sp, #0
 80013ca:	6078      	str	r0, [r7, #4]
  extern uint8_t _end; /* Symbol defined in the linker script */
  extern uint8_t _estack; /* Symbol defined in the linker script */
  extern uint32_t _Min_Stack_Size; /* Symbol defined in the linker script */
  const uint32_t stack_limit = (uint32_t)&_estack - (uint32_t)&_Min_Stack_Size;
 80013cc:	4a14      	ldr	r2, [pc, #80]	@ (8001420 <_sbrk+0x5c>)
 80013ce:	4b15      	ldr	r3, [pc, #84]	@ (8001424 <_sbrk+0x60>)
 80013d0:	1ad3      	subs	r3, r2, r3
 80013d2:	617b      	str	r3, [r7, #20]
  const uint8_t *max_heap = (uint8_t *)stack_limit;
 80013d4:	697b      	ldr	r3, [r7, #20]
 80013d6:	613b      	str	r3, [r7, #16]
  uint8_t *prev_heap_end;

  /* Initialize heap end at first call */
  if (NULL == __sbrk_heap_end)
 80013d8:	4b13      	ldr	r3, [pc, #76]	@ (8001428 <_sbrk+0x64>)
 80013da:	681b      	ldr	r3, [r3, #0]
 80013dc:	2b00      	cmp	r3, #0
 80013de:	d102      	bne.n	80013e6 <_sbrk+0x22>
  {
    __sbrk_heap_end = &_end;
 80013e0:	4b11      	ldr	r3, [pc, #68]	@ (8001428 <_sbrk+0x64>)
 80013e2:	4a12      	ldr	r2, [pc, #72]	@ (800142c <_sbrk+0x68>)
 80013e4:	601a      	str	r2, [r3, #0]
  }

  /* Protect heap from growing into the reserved MSP stack */
  if (__sbrk_heap_end + incr > max_heap)
 80013e6:	4b10      	ldr	r3, [pc, #64]	@ (8001428 <_sbrk+0x64>)
 80013e8:	681a      	ldr	r2, [r3, #0]
 80013ea:	687b      	ldr	r3, [r7, #4]
 80013ec:	18d3      	adds	r3, r2, r3
 80013ee:	693a      	ldr	r2, [r7, #16]
 80013f0:	429a      	cmp	r2, r3
 80013f2:	d207      	bcs.n	8001404 <_sbrk+0x40>
  {
    errno = ENOMEM;
 80013f4:	f004 f86c 	bl	80054d0 <__errno>
 80013f8:	0003      	movs	r3, r0
 80013fa:	220c      	movs	r2, #12
 80013fc:	601a      	str	r2, [r3, #0]
    return (void *)-1;
 80013fe:	2301      	movs	r3, #1
 8001400:	425b      	negs	r3, r3
 8001402:	e009      	b.n	8001418 <_sbrk+0x54>
  }

  prev_heap_end = __sbrk_heap_end;
 8001404:	4b08      	ldr	r3, [pc, #32]	@ (8001428 <_sbrk+0x64>)
 8001406:	681b      	ldr	r3, [r3, #0]
 8001408:	60fb      	str	r3, [r7, #12]
  __sbrk_heap_end += incr;
 800140a:	4b07      	ldr	r3, [pc, #28]	@ (8001428 <_sbrk+0x64>)
 800140c:	681a      	ldr	r2, [r3, #0]
 800140e:	687b      	ldr	r3, [r7, #4]
 8001410:	18d2      	adds	r2, r2, r3
 8001412:	4b05      	ldr	r3, [pc, #20]	@ (8001428 <_sbrk+0x64>)
 8001414:	601a      	str	r2, [r3, #0]

  return (void *)prev_heap_end;
 8001416:	68fb      	ldr	r3, [r7, #12]
}
 8001418:	0018      	movs	r0, r3
 800141a:	46bd      	mov	sp, r7
 800141c:	b006      	add	sp, #24
 800141e:	bd80      	pop	{r7, pc}
 8001420:	20002000 	.word	0x20002000
 8001424:	00000400 	.word	0x00000400
 8001428:	20000224 	.word	0x20000224
 800142c:	20000380 	.word	0x20000380

08001430 <BSP_LED_Init>:
  *   This parameter can be one of following parameters:
  *     @arg  LED4
  * @retval BSP status
  */
int32_t BSP_LED_Init(Led_TypeDef Led)
{
 8001430:	b580      	push	{r7, lr}
 8001432:	b08a      	sub	sp, #40	@ 0x28
 8001434:	af00      	add	r7, sp, #0
 8001436:	0002      	movs	r2, r0
 8001438:	1dfb      	adds	r3, r7, #7
 800143a:	701a      	strb	r2, [r3, #0]
  int32_t ret = BSP_ERROR_NONE;
 800143c:	2300      	movs	r3, #0
 800143e:	627b      	str	r3, [r7, #36]	@ 0x24
  GPIO_InitTypeDef  gpio_init_structure;

  if (Led != LED4)
 8001440:	1dfb      	adds	r3, r7, #7
 8001442:	781b      	ldrb	r3, [r3, #0]
 8001444:	2b00      	cmp	r3, #0
 8001446:	d003      	beq.n	8001450 <BSP_LED_Init+0x20>
  {
    ret = BSP_ERROR_WRONG_PARAM;
 8001448:	2302      	movs	r3, #2
 800144a:	425b      	negs	r3, r3
 800144c:	627b      	str	r3, [r7, #36]	@ 0x24
 800144e:	e023      	b.n	8001498 <BSP_LED_Init+0x68>
  }
  else
  {
    LED4_GPIO_CLK_ENABLE();
 8001450:	4b14      	ldr	r3, [pc, #80]	@ (80014a4 <BSP_LED_Init+0x74>)
 8001452:	6cda      	ldr	r2, [r3, #76]	@ 0x4c
 8001454:	4b13      	ldr	r3, [pc, #76]	@ (80014a4 <BSP_LED_Init+0x74>)
 8001456:	2101      	movs	r1, #1
 8001458:	430a      	orrs	r2, r1
 800145a:	64da      	str	r2, [r3, #76]	@ 0x4c
 800145c:	4b11      	ldr	r3, [pc, #68]	@ (80014a4 <BSP_LED_Init+0x74>)
 800145e:	6cdb      	ldr	r3, [r3, #76]	@ 0x4c
 8001460:	2201      	movs	r2, #1
 8001462:	4013      	ands	r3, r2
 8001464:	60fb      	str	r3, [r7, #12]
 8001466:	68fb      	ldr	r3, [r7, #12]

    /* Configure the GPIO_LED pin */
    gpio_init_structure.Pin   = LED_PIN[Led];
 8001468:	2320      	movs	r3, #32
 800146a:	001a      	movs	r2, r3
 800146c:	2110      	movs	r1, #16
 800146e:	187b      	adds	r3, r7, r1
 8001470:	601a      	str	r2, [r3, #0]
    gpio_init_structure.Mode  = GPIO_MODE_OUTPUT_PP;
 8001472:	187b      	adds	r3, r7, r1
 8001474:	2201      	movs	r2, #1
 8001476:	605a      	str	r2, [r3, #4]
    gpio_init_structure.Pull  = GPIO_NOPULL;
 8001478:	187b      	adds	r3, r7, r1
 800147a:	2200      	movs	r2, #0
 800147c:	609a      	str	r2, [r3, #8]
    gpio_init_structure.Speed = GPIO_SPEED_FREQ_VERY_HIGH;
 800147e:	187b      	adds	r3, r7, r1
 8001480:	2203      	movs	r2, #3
 8001482:	60da      	str	r2, [r3, #12]

    HAL_GPIO_Init(LED_PORT[Led], &gpio_init_structure);
 8001484:	1dfb      	adds	r3, r7, #7
 8001486:	781a      	ldrb	r2, [r3, #0]
 8001488:	4b07      	ldr	r3, [pc, #28]	@ (80014a8 <BSP_LED_Init+0x78>)
 800148a:	0092      	lsls	r2, r2, #2
 800148c:	58d3      	ldr	r3, [r2, r3]
 800148e:	187a      	adds	r2, r7, r1
 8001490:	0011      	movs	r1, r2
 8001492:	0018      	movs	r0, r3
 8001494:	f000 fb0a 	bl	8001aac <HAL_GPIO_Init>
  }
  return ret;
 8001498:	6a7b      	ldr	r3, [r7, #36]	@ 0x24
}
 800149a:	0018      	movs	r0, r3
 800149c:	46bd      	mov	sp, r7
 800149e:	b00a      	add	sp, #40	@ 0x28
 80014a0:	bd80      	pop	{r7, pc}
 80014a2:	46c0      	nop			@ (mov r8, r8)
 80014a4:	40021000 	.word	0x40021000
 80014a8:	20000004 	.word	0x20000004

080014ac <BSP_LED_On>:
  *   This parameter can be one of following parameters:
  *     @arg  LED4
  * @retval BSP status
  */
int32_t BSP_LED_On(Led_TypeDef Led)
{
 80014ac:	b580      	push	{r7, lr}
 80014ae:	b084      	sub	sp, #16
 80014b0:	af00      	add	r7, sp, #0
 80014b2:	0002      	movs	r2, r0
 80014b4:	1dfb      	adds	r3, r7, #7
 80014b6:	701a      	strb	r2, [r3, #0]
  int32_t ret = BSP_ERROR_NONE;
 80014b8:	2300      	movs	r3, #0
 80014ba:	60fb      	str	r3, [r7, #12]

  if (Led != LED4)
 80014bc:	1dfb      	adds	r3, r7, #7
 80014be:	781b      	ldrb	r3, [r3, #0]
 80014c0:	2b00      	cmp	r3, #0
 80014c2:	d003      	beq.n	80014cc <BSP_LED_On+0x20>
  {
    ret = BSP_ERROR_WRONG_PARAM;
 80014c4:	2302      	movs	r3, #2
 80014c6:	425b      	negs	r3, r3
 80014c8:	60fb      	str	r3, [r7, #12]
 80014ca:	e009      	b.n	80014e0 <BSP_LED_On+0x34>
  }
  else
  {
    HAL_GPIO_WritePin(LED_PORT[Led], LED_PIN[Led], GPIO_PIN_SET);
 80014cc:	1dfb      	adds	r3, r7, #7
 80014ce:	781a      	ldrb	r2, [r3, #0]
 80014d0:	4b06      	ldr	r3, [pc, #24]	@ (80014ec <BSP_LED_On+0x40>)
 80014d2:	0092      	lsls	r2, r2, #2
 80014d4:	58d3      	ldr	r3, [r2, r3]
 80014d6:	2120      	movs	r1, #32
 80014d8:	2201      	movs	r2, #1
 80014da:	0018      	movs	r0, r3
 80014dc:	f000 fc52 	bl	8001d84 <HAL_GPIO_WritePin>
  }

  return ret;
 80014e0:	68fb      	ldr	r3, [r7, #12]
}
 80014e2:	0018      	movs	r0, r3
 80014e4:	46bd      	mov	sp, r7
 80014e6:	b004      	add	sp, #16
 80014e8:	bd80      	pop	{r7, pc}
 80014ea:	46c0      	nop			@ (mov r8, r8)
 80014ec:	20000004 	.word	0x20000004

080014f0 <BSP_LED_Off>:
  *   This parameter can be one of following parameters:
  *     @arg  LED4
  * @retval BSP status
  */
int32_t BSP_LED_Off(Led_TypeDef Led)
{
 80014f0:	b580      	push	{r7, lr}
 80014f2:	b084      	sub	sp, #16
 80014f4:	af00      	add	r7, sp, #0
 80014f6:	0002      	movs	r2, r0
 80014f8:	1dfb      	adds	r3, r7, #7
 80014fa:	701a      	strb	r2, [r3, #0]
  int32_t ret = BSP_ERROR_NONE;
 80014fc:	2300      	movs	r3, #0
 80014fe:	60fb      	str	r3, [r7, #12]

  if (Led != LED4)
 8001500:	1dfb      	adds	r3, r7, #7
 8001502:	781b      	ldrb	r3, [r3, #0]
 8001504:	2b00      	cmp	r3, #0
 8001506:	d003      	beq.n	8001510 <BSP_LED_Off+0x20>
  {
    ret = BSP_ERROR_WRONG_PARAM;
 8001508:	2302      	movs	r3, #2
 800150a:	425b      	negs	r3, r3
 800150c:	60fb      	str	r3, [r7, #12]
 800150e:	e009      	b.n	8001524 <BSP_LED_Off+0x34>
  }
  else
  {
    HAL_GPIO_WritePin(LED_PORT[Led], LED_PIN[Led], GPIO_PIN_RESET);
 8001510:	1dfb      	adds	r3, r7, #7
 8001512:	781a      	ldrb	r2, [r3, #0]
 8001514:	4b06      	ldr	r3, [pc, #24]	@ (8001530 <BSP_LED_Off+0x40>)
 8001516:	0092      	lsls	r2, r2, #2
 8001518:	58d3      	ldr	r3, [r2, r3]
 800151a:	2120      	movs	r1, #32
 800151c:	2200      	movs	r2, #0
 800151e:	0018      	movs	r0, r3
 8001520:	f000 fc30 	bl	8001d84 <HAL_GPIO_WritePin>
  }

  return ret;
 8001524:	68fb      	ldr	r3, [r7, #12]
}
 8001526:	0018      	movs	r0, r3
 8001528:	46bd      	mov	sp, r7
 800152a:	b004      	add	sp, #16
 800152c:	bd80      	pop	{r7, pc}
 800152e:	46c0      	nop			@ (mov r8, r8)
 8001530:	20000004 	.word	0x20000004

08001534 <BSP_LED_Toggle>:
  *   This parameter can be one of following parameters:
  *     @arg  LED4
  * @retval BSP status
  */
int32_t BSP_LED_Toggle(Led_TypeDef Led)
{
 8001534:	b580      	push	{r7, lr}
 8001536:	b084      	sub	sp, #16
 8001538:	af00      	add	r7, sp, #0
 800153a:	0002      	movs	r2, r0
 800153c:	1dfb      	adds	r3, r7, #7
 800153e:	701a      	strb	r2, [r3, #0]
  int32_t ret = BSP_ERROR_NONE;
 8001540:	2300      	movs	r3, #0
 8001542:	60fb      	str	r3, [r7, #12]

  if (Led != LED4)
 8001544:	1dfb      	adds	r3, r7, #7
 8001546:	781b      	ldrb	r3, [r3, #0]
 8001548:	2b00      	cmp	r3, #0
 800154a:	d003      	beq.n	8001554 <BSP_LED_Toggle+0x20>
  {
    ret = BSP_ERROR_WRONG_PARAM;
 800154c:	2302      	movs	r3, #2
 800154e:	425b      	negs	r3, r3
 8001550:	60fb      	str	r3, [r7, #12]
 8001552:	e009      	b.n	8001568 <BSP_LED_Toggle+0x34>
  }
  else
  {
    HAL_GPIO_TogglePin(LED_PORT[Led], LED_PIN[Led]);
 8001554:	1dfb      	adds	r3, r7, #7
 8001556:	781a      	ldrb	r2, [r3, #0]
 8001558:	4b06      	ldr	r3, [pc, #24]	@ (8001574 <BSP_LED_Toggle+0x40>)
 800155a:	0092      	lsls	r2, r2, #2
 800155c:	58d3      	ldr	r3, [r2, r3]
 800155e:	2220      	movs	r2, #32
 8001560:	0011      	movs	r1, r2
 8001562:	0018      	movs	r0, r3
 8001564:	f000 fc2b 	bl	8001dbe <HAL_GPIO_TogglePin>
  }

  return ret;
 8001568:	68fb      	ldr	r3, [r7, #12]
}
 800156a:	0018      	movs	r0, r3
 800156c:	46bd      	mov	sp, r7
 800156e:	b004      	add	sp, #16
 8001570:	bd80      	pop	{r7, pc}
 8001572:	46c0      	nop			@ (mov r8, r8)
 8001574:	20000004 	.word	0x20000004

08001578 <BSP_PB_Init>:
  *            @arg  BUTTON_MODE_GPIO: Button will be used as simple IO
  *            @arg  BUTTON_MODE_EXTI: Button will be connected to EXTI line
  *                                    with interrupt generation capability
  */
int32_t BSP_PB_Init(Button_TypeDef Button, ButtonMode_TypeDef ButtonMode)
{
 8001578:	b580      	push	{r7, lr}
 800157a:	b088      	sub	sp, #32
 800157c:	af00      	add	r7, sp, #0
 800157e:	0002      	movs	r2, r0
 8001580:	1dfb      	adds	r3, r7, #7
 8001582:	701a      	strb	r2, [r3, #0]
 8001584:	1dbb      	adds	r3, r7, #6
 8001586:	1c0a      	adds	r2, r1, #0
 8001588:	701a      	strb	r2, [r3, #0]
  static BSP_EXTI_LineCallback ButtonCallback[BUTTONn] = {BUTTON_USER_EXTI_Callback};
  static uint32_t  BSP_BUTTON_PRIO [BUTTONn] = {BSP_BUTTON_USER_IT_PRIORITY};
  static const uint32_t BUTTON_EXTI_LINE[BUTTONn] = {BUTTON_USER_EXTI_LINE};

  /* Enable the BUTTON clock */
  BUTTON_USER_GPIO_CLK_ENABLE();
 800158a:	4b36      	ldr	r3, [pc, #216]	@ (8001664 <BSP_PB_Init+0xec>)
 800158c:	6cda      	ldr	r2, [r3, #76]	@ 0x4c
 800158e:	4b35      	ldr	r3, [pc, #212]	@ (8001664 <BSP_PB_Init+0xec>)
 8001590:	2104      	movs	r1, #4
 8001592:	430a      	orrs	r2, r1
 8001594:	64da      	str	r2, [r3, #76]	@ 0x4c
 8001596:	4b33      	ldr	r3, [pc, #204]	@ (8001664 <BSP_PB_Init+0xec>)
 8001598:	6cdb      	ldr	r3, [r3, #76]	@ 0x4c
 800159a:	2204      	movs	r2, #4
 800159c:	4013      	ands	r3, r2
 800159e:	60bb      	str	r3, [r7, #8]
 80015a0:	68bb      	ldr	r3, [r7, #8]

  gpio_init_structure.Pin   = BUTTON_PIN [Button];
 80015a2:	2380      	movs	r3, #128	@ 0x80
 80015a4:	019b      	lsls	r3, r3, #6
 80015a6:	001a      	movs	r2, r3
 80015a8:	210c      	movs	r1, #12
 80015aa:	187b      	adds	r3, r7, r1
 80015ac:	601a      	str	r2, [r3, #0]
  gpio_init_structure.Pull  = GPIO_PULLUP;
 80015ae:	187b      	adds	r3, r7, r1
 80015b0:	2201      	movs	r2, #1
 80015b2:	609a      	str	r2, [r3, #8]
  gpio_init_structure.Speed = GPIO_SPEED_FREQ_HIGH;
 80015b4:	187b      	adds	r3, r7, r1
 80015b6:	2202      	movs	r2, #2
 80015b8:	60da      	str	r2, [r3, #12]

  if (ButtonMode == BUTTON_MODE_GPIO)
 80015ba:	1dbb      	adds	r3, r7, #6
 80015bc:	781b      	ldrb	r3, [r3, #0]
 80015be:	2b00      	cmp	r3, #0
 80015c0:	d10d      	bne.n	80015de <BSP_PB_Init+0x66>
  {
    /* Configure Button pin as input */
    gpio_init_structure.Mode = GPIO_MODE_INPUT;
 80015c2:	187b      	adds	r3, r7, r1
 80015c4:	2200      	movs	r2, #0
 80015c6:	605a      	str	r2, [r3, #4]
    HAL_GPIO_Init(BUTTON_PORT [Button], &gpio_init_structure);
 80015c8:	1dfb      	adds	r3, r7, #7
 80015ca:	781a      	ldrb	r2, [r3, #0]
 80015cc:	4b26      	ldr	r3, [pc, #152]	@ (8001668 <BSP_PB_Init+0xf0>)
 80015ce:	0092      	lsls	r2, r2, #2
 80015d0:	58d3      	ldr	r3, [r2, r3]
 80015d2:	187a      	adds	r2, r7, r1
 80015d4:	0011      	movs	r1, r2
 80015d6:	0018      	movs	r0, r3
 80015d8:	f000 fa68 	bl	8001aac <HAL_GPIO_Init>
 80015dc:	e03d      	b.n	800165a <BSP_PB_Init+0xe2>
  }
  else /* (ButtonMode == BUTTON_MODE_EXTI) */
  {
    /* Configure Button pin as input with External interrupt */
    gpio_init_structure.Mode = GPIO_MODE_IT_FALLING;
 80015de:	210c      	movs	r1, #12
 80015e0:	187b      	adds	r3, r7, r1
 80015e2:	2284      	movs	r2, #132	@ 0x84
 80015e4:	0392      	lsls	r2, r2, #14
 80015e6:	605a      	str	r2, [r3, #4]

    HAL_GPIO_Init(BUTTON_PORT[Button], &gpio_init_structure);
 80015e8:	1dfb      	adds	r3, r7, #7
 80015ea:	781a      	ldrb	r2, [r3, #0]
 80015ec:	4b1e      	ldr	r3, [pc, #120]	@ (8001668 <BSP_PB_Init+0xf0>)
 80015ee:	0092      	lsls	r2, r2, #2
 80015f0:	58d3      	ldr	r3, [r2, r3]
 80015f2:	187a      	adds	r2, r7, r1
 80015f4:	0011      	movs	r1, r2
 80015f6:	0018      	movs	r0, r3
 80015f8:	f000 fa58 	bl	8001aac <HAL_GPIO_Init>

    (void)HAL_EXTI_GetHandle(&hpb_exti[Button], BUTTON_EXTI_LINE[Button]);
 80015fc:	1dfb      	adds	r3, r7, #7
 80015fe:	781a      	ldrb	r2, [r3, #0]
 8001600:	0013      	movs	r3, r2
 8001602:	005b      	lsls	r3, r3, #1
 8001604:	189b      	adds	r3, r3, r2
 8001606:	009b      	lsls	r3, r3, #2
 8001608:	4a18      	ldr	r2, [pc, #96]	@ (800166c <BSP_PB_Init+0xf4>)
 800160a:	1898      	adds	r0, r3, r2
 800160c:	1dfb      	adds	r3, r7, #7
 800160e:	781a      	ldrb	r2, [r3, #0]
 8001610:	4b17      	ldr	r3, [pc, #92]	@ (8001670 <BSP_PB_Init+0xf8>)
 8001612:	0092      	lsls	r2, r2, #2
 8001614:	58d3      	ldr	r3, [r2, r3]
 8001616:	0019      	movs	r1, r3
 8001618:	f000 fa35 	bl	8001a86 <HAL_EXTI_GetHandle>
    (void)HAL_EXTI_RegisterCallback(&hpb_exti[Button],  HAL_EXTI_COMMON_CB_ID, ButtonCallback[Button]);
 800161c:	1dfb      	adds	r3, r7, #7
 800161e:	781a      	ldrb	r2, [r3, #0]
 8001620:	0013      	movs	r3, r2
 8001622:	005b      	lsls	r3, r3, #1
 8001624:	189b      	adds	r3, r3, r2
 8001626:	009b      	lsls	r3, r3, #2
 8001628:	4a10      	ldr	r2, [pc, #64]	@ (800166c <BSP_PB_Init+0xf4>)
 800162a:	1898      	adds	r0, r3, r2
 800162c:	1dfb      	adds	r3, r7, #7
 800162e:	781a      	ldrb	r2, [r3, #0]
 8001630:	4b10      	ldr	r3, [pc, #64]	@ (8001674 <BSP_PB_Init+0xfc>)
 8001632:	0092      	lsls	r2, r2, #2
 8001634:	58d3      	ldr	r3, [r2, r3]
 8001636:	001a      	movs	r2, r3
 8001638:	2100      	movs	r1, #0
 800163a:	f000 f9f2 	bl	8001a22 <HAL_EXTI_RegisterCallback>

    /* Enable and set Button EXTI Interrupt to the lowest priority */
    HAL_NVIC_SetPriority((BUTTON_IRQn[Button]), BSP_BUTTON_PRIO[Button], 0x00);
 800163e:	2007      	movs	r0, #7
 8001640:	1dfb      	adds	r3, r7, #7
 8001642:	781a      	ldrb	r2, [r3, #0]
 8001644:	4b0c      	ldr	r3, [pc, #48]	@ (8001678 <BSP_PB_Init+0x100>)
 8001646:	0092      	lsls	r2, r2, #2
 8001648:	58d3      	ldr	r3, [r2, r3]
 800164a:	2200      	movs	r2, #0
 800164c:	0019      	movs	r1, r3
 800164e:	f000 f9af 	bl	80019b0 <HAL_NVIC_SetPriority>
    HAL_NVIC_EnableIRQ((BUTTON_IRQn[Button]));
 8001652:	2307      	movs	r3, #7
 8001654:	0018      	movs	r0, r3
 8001656:	f000 f9c0 	bl	80019da <HAL_NVIC_EnableIRQ>
  }

  return BSP_ERROR_NONE;
 800165a:	2300      	movs	r3, #0
}
 800165c:	0018      	movs	r0, r3
 800165e:	46bd      	mov	sp, r7
 8001660:	b008      	add	sp, #32
 8001662:	bd80      	pop	{r7, pc}
 8001664:	40021000 	.word	0x40021000
 8001668:	20000008 	.word	0x20000008
 800166c:	20000228 	.word	0x20000228
 8001670:	08005eac 	.word	0x08005eac
 8001674:	2000000c 	.word	0x2000000c
 8001678:	20000010 	.word	0x20000010

0800167c <BSP_PB_Callback>:
  * @brief  BSP Push Button callback
  * @param  Button Specifies the pin connected EXTI line
  * @retval None
  */
__weak void BSP_PB_Callback(Button_TypeDef Button)
{
 800167c:	b580      	push	{r7, lr}
 800167e:	b082      	sub	sp, #8
 8001680:	af00      	add	r7, sp, #0
 8001682:	0002      	movs	r2, r0
 8001684:	1dfb      	adds	r3, r7, #7
 8001686:	701a      	strb	r2, [r3, #0]
  /* Prevent unused argument(s) compilation warning */
  UNUSED(Button);

  /* This function should be implemented by the user application.
     It is called into this driver when an event on Button is triggered. */
}
 8001688:	46c0      	nop			@ (mov r8, r8)
 800168a:	46bd      	mov	sp, r7
 800168c:	b002      	add	sp, #8
 800168e:	bd80      	pop	{r7, pc}

08001690 <BUTTON_USER_EXTI_Callback>:
/**
  * @brief  Key EXTI line detection callbacks.
  * @retval BSP status
  */
static void BUTTON_USER_EXTI_Callback(void)
{
 8001690:	b580      	push	{r7, lr}
 8001692:	af00      	add	r7, sp, #0
  BSP_PB_Callback(BUTTON_USER);
 8001694:	2000      	movs	r0, #0
 8001696:	f7ff fff1 	bl	800167c <BSP_PB_Callback>
}
 800169a:	46c0      	nop			@ (mov r8, r8)
 800169c:	46bd      	mov	sp, r7
 800169e:	bd80      	pop	{r7, pc}

080016a0 <SystemInit>:
  * @param  None
  * @retval None
  */

void SystemInit(void)
{
 80016a0:	b580      	push	{r7, lr}
 80016a2:	b082      	sub	sp, #8
 80016a4:	af00      	add	r7, sp, #0
#endif /* ENABLE_DBG_SWEN */
  /* Configure the Vector Table location add offset address ------------------*/
#ifdef VECT_TAB_SRAM
  SCB->VTOR = SRAM1_BASE | VECT_TAB_OFFSET; /* Vector Table Relocation in Internal SRAM */
#else
  SCB->VTOR = FLASH_BASE | VECT_TAB_OFFSET; /* Vector Table Relocation in Internal FLASH */
 80016a6:	4b12      	ldr	r3, [pc, #72]	@ (80016f0 <SystemInit+0x50>)
 80016a8:	2280      	movs	r2, #128	@ 0x80
 80016aa:	0512      	lsls	r2, r2, #20
 80016ac:	609a      	str	r2, [r3, #8]
#endif /* VECT_TAB_SRAM */

/* Software workaround added to keep Debug enabled after Boot_Lock activation and RDP=1  */
#ifdef ENABLE_DBG_SWEN
  tmp_seccr = FLASH->SECR;
 80016ae:	4a11      	ldr	r2, [pc, #68]	@ (80016f4 <SystemInit+0x54>)
 80016b0:	2380      	movs	r3, #128	@ 0x80
 80016b2:	58d3      	ldr	r3, [r2, r3]
 80016b4:	607b      	str	r3, [r7, #4]
  tmp_optr = FLASH->OPTR;
 80016b6:	4b0f      	ldr	r3, [pc, #60]	@ (80016f4 <SystemInit+0x54>)
 80016b8:	6a1b      	ldr	r3, [r3, #32]
 80016ba:	603b      	str	r3, [r7, #0]
  if (((tmp_seccr & FLASH_SECR_BOOT_LOCK) == FLASH_SECR_BOOT_LOCK)         \
 80016bc:	687a      	ldr	r2, [r7, #4]
 80016be:	2380      	movs	r3, #128	@ 0x80
 80016c0:	025b      	lsls	r3, r3, #9
 80016c2:	4013      	ands	r3, r2
 80016c4:	d010      	beq.n	80016e8 <SystemInit+0x48>
      && (((tmp_optr & FLASH_OPTR_RDP) != 0xCCU)                           \
 80016c6:	683b      	ldr	r3, [r7, #0]
 80016c8:	22ff      	movs	r2, #255	@ 0xff
 80016ca:	4013      	ands	r3, r2
 80016cc:	2bcc      	cmp	r3, #204	@ 0xcc
 80016ce:	d00b      	beq.n	80016e8 <SystemInit+0x48>
      && ((tmp_optr & FLASH_OPTR_RDP) != 0xAAU)))
 80016d0:	683b      	ldr	r3, [r7, #0]
 80016d2:	22ff      	movs	r2, #255	@ 0xff
 80016d4:	4013      	ands	r3, r2
 80016d6:	2baa      	cmp	r3, #170	@ 0xaa
 80016d8:	d006      	beq.n	80016e8 <SystemInit+0x48>
  {
    FLASH->ACR |= FLASH_ACR_DBG_SWEN;  /* Debug access software enabled to avoid the chip
 80016da:	4b06      	ldr	r3, [pc, #24]	@ (80016f4 <SystemInit+0x54>)
 80016dc:	681a      	ldr	r2, [r3, #0]
 80016de:	4b05      	ldr	r3, [pc, #20]	@ (80016f4 <SystemInit+0x54>)
 80016e0:	2180      	movs	r1, #128	@ 0x80
 80016e2:	02c9      	lsls	r1, r1, #11
 80016e4:	430a      	orrs	r2, r1
 80016e6:	601a      	str	r2, [r3, #0]
                                          to be locked when RDP=1 and Boot_Lock=1        */
  }
#endif /* ENABLE_DBG_SWEN */
}
 80016e8:	46c0      	nop			@ (mov r8, r8)
 80016ea:	46bd      	mov	sp, r7
 80016ec:	b002      	add	sp, #8
 80016ee:	bd80      	pop	{r7, pc}
 80016f0:	e000ed00 	.word	0xe000ed00
 80016f4:	40022000 	.word	0x40022000

080016f8 <HAL_Init>:
  *         each 1ms in the SysTick_Handler() interrupt handler.
  *
  * @retval HAL status
  */
HAL_StatusTypeDef HAL_Init(void)
{
 80016f8:	b580      	push	{r7, lr}
 80016fa:	b082      	sub	sp, #8
 80016fc:	af00      	add	r7, sp, #0
  HAL_StatusTypeDef  status = HAL_OK;
 80016fe:	1dfb      	adds	r3, r7, #7
 8001700:	2200      	movs	r2, #0
 8001702:	701a      	strb	r2, [r3, #0]
#if (PREFETCH_ENABLE != 0U)
  __HAL_FLASH_PREFETCH_BUFFER_ENABLE();
#endif /* PREFETCH_ENABLE */

  /* Use SysTick as time base source and configure 1ms tick (default clock after Reset is HSI) */
  if (HAL_InitTick(TICK_INT_PRIORITY) != HAL_OK)
 8001704:	2000      	movs	r0, #0
 8001706:	f000 f80f 	bl	8001728 <HAL_InitTick>
 800170a:	1e03      	subs	r3, r0, #0
 800170c:	d003      	beq.n	8001716 <HAL_Init+0x1e>
  {
    status = HAL_ERROR;
 800170e:	1dfb      	adds	r3, r7, #7
 8001710:	2201      	movs	r2, #1
 8001712:	701a      	strb	r2, [r3, #0]
 8001714:	e001      	b.n	800171a <HAL_Init+0x22>
  }
  else
  {
    /* Init the low level hardware */
    HAL_MspInit();
 8001716:	f7ff fcfd 	bl	8001114 <HAL_MspInit>
  }

  /* Return function status */
  return status;
 800171a:	1dfb      	adds	r3, r7, #7
 800171c:	781b      	ldrb	r3, [r3, #0]
}
 800171e:	0018      	movs	r0, r3
 8001720:	46bd      	mov	sp, r7
 8001722:	b002      	add	sp, #8
 8001724:	bd80      	pop	{r7, pc}
	...

08001728 <HAL_InitTick>:
  *       implementation  in user file.
  * @param TickPriority Tick interrupt priority.
  * @retval HAL status
  */
__weak HAL_StatusTypeDef HAL_InitTick(uint32_t TickPriority)
{
 8001728:	b590      	push	{r4, r7, lr}
 800172a:	b085      	sub	sp, #20
 800172c:	af00      	add	r7, sp, #0
 800172e:	6078      	str	r0, [r7, #4]
  HAL_StatusTypeDef  status = HAL_OK;
 8001730:	230f      	movs	r3, #15
 8001732:	18fb      	adds	r3, r7, r3
 8001734:	2200      	movs	r2, #0
 8001736:	701a      	strb	r2, [r3, #0]

  if ((uint32_t)uwTickFreq != 0U)
 8001738:	4b1d      	ldr	r3, [pc, #116]	@ (80017b0 <HAL_InitTick+0x88>)
 800173a:	781b      	ldrb	r3, [r3, #0]
 800173c:	2b00      	cmp	r3, #0
 800173e:	d02b      	beq.n	8001798 <HAL_InitTick+0x70>
  {
    /*Configure the SysTick to have interrupt in 1ms time basis*/
    if (HAL_SYSTICK_Config(SystemCoreClock / (1000U / (uint32_t)uwTickFreq)) == 0U)
 8001740:	4b1c      	ldr	r3, [pc, #112]	@ (80017b4 <HAL_InitTick+0x8c>)
 8001742:	681c      	ldr	r4, [r3, #0]
 8001744:	4b1a      	ldr	r3, [pc, #104]	@ (80017b0 <HAL_InitTick+0x88>)
 8001746:	781b      	ldrb	r3, [r3, #0]
 8001748:	0019      	movs	r1, r3
 800174a:	23fa      	movs	r3, #250	@ 0xfa
 800174c:	0098      	lsls	r0, r3, #2
 800174e:	f7fe fced 	bl	800012c <__udivsi3>
 8001752:	0003      	movs	r3, r0
 8001754:	0019      	movs	r1, r3
 8001756:	0020      	movs	r0, r4
 8001758:	f7fe fce8 	bl	800012c <__udivsi3>
 800175c:	0003      	movs	r3, r0
 800175e:	0018      	movs	r0, r3
 8001760:	f000 f94b 	bl	80019fa <HAL_SYSTICK_Config>
 8001764:	1e03      	subs	r3, r0, #0
 8001766:	d112      	bne.n	800178e <HAL_InitTick+0x66>
    {
      /* Configure the SysTick IRQ priority */
      if (TickPriority < (1UL << __NVIC_PRIO_BITS))
 8001768:	687b      	ldr	r3, [r7, #4]
 800176a:	2b03      	cmp	r3, #3
 800176c:	d80a      	bhi.n	8001784 <HAL_InitTick+0x5c>
      {
        HAL_NVIC_SetPriority(SysTick_IRQn, TickPriority, 0U);
 800176e:	6879      	ldr	r1, [r7, #4]
 8001770:	2301      	movs	r3, #1
 8001772:	425b      	negs	r3, r3
 8001774:	2200      	movs	r2, #0
 8001776:	0018      	movs	r0, r3
 8001778:	f000 f91a 	bl	80019b0 <HAL_NVIC_SetPriority>
        uwTickPrio = TickPriority;
 800177c:	4b0e      	ldr	r3, [pc, #56]	@ (80017b8 <HAL_InitTick+0x90>)
 800177e:	687a      	ldr	r2, [r7, #4]
 8001780:	601a      	str	r2, [r3, #0]
 8001782:	e00d      	b.n	80017a0 <HAL_InitTick+0x78>
      }
      else
      {
        status = HAL_ERROR;
 8001784:	230f      	movs	r3, #15
 8001786:	18fb      	adds	r3, r7, r3
 8001788:	2201      	movs	r2, #1
 800178a:	701a      	strb	r2, [r3, #0]
 800178c:	e008      	b.n	80017a0 <HAL_InitTick+0x78>
      }
    }
    else
    {
      status = HAL_ERROR;
 800178e:	230f      	movs	r3, #15
 8001790:	18fb      	adds	r3, r7, r3
 8001792:	2201      	movs	r2, #1
 8001794:	701a      	strb	r2, [r3, #0]
 8001796:	e003      	b.n	80017a0 <HAL_InitTick+0x78>
    }
  }
  else
  {
    status = HAL_ERROR;
 8001798:	230f      	movs	r3, #15
 800179a:	18fb      	adds	r3, r7, r3
 800179c:	2201      	movs	r2, #1
 800179e:	701a      	strb	r2, [r3, #0]
  }

  /* Return function status */
  return status;
 80017a0:	230f      	movs	r3, #15
 80017a2:	18fb      	adds	r3, r7, r3
 80017a4:	781b      	ldrb	r3, [r3, #0]
}
 80017a6:	0018      	movs	r0, r3
 80017a8:	46bd      	mov	sp, r7
 80017aa:	b005      	add	sp, #20
 80017ac:	bd90      	pop	{r4, r7, pc}
 80017ae:	46c0      	nop			@ (mov r8, r8)
 80017b0:	2000001c 	.word	0x2000001c
 80017b4:	20000014 	.word	0x20000014
 80017b8:	20000018 	.word	0x20000018

080017bc <HAL_IncTick>:
  * @note This function is declared as __weak to be overwritten in case of other
  *      implementations in user file.
  * @retval None
  */
__weak void HAL_IncTick(void)
{
 80017bc:	b580      	push	{r7, lr}
 80017be:	af00      	add	r7, sp, #0
  uwTick += (uint32_t)uwTickFreq;
 80017c0:	4b05      	ldr	r3, [pc, #20]	@ (80017d8 <HAL_IncTick+0x1c>)
 80017c2:	781b      	ldrb	r3, [r3, #0]
 80017c4:	001a      	movs	r2, r3
 80017c6:	4b05      	ldr	r3, [pc, #20]	@ (80017dc <HAL_IncTick+0x20>)
 80017c8:	681b      	ldr	r3, [r3, #0]
 80017ca:	18d2      	adds	r2, r2, r3
 80017cc:	4b03      	ldr	r3, [pc, #12]	@ (80017dc <HAL_IncTick+0x20>)
 80017ce:	601a      	str	r2, [r3, #0]
}
 80017d0:	46c0      	nop			@ (mov r8, r8)
 80017d2:	46bd      	mov	sp, r7
 80017d4:	bd80      	pop	{r7, pc}
 80017d6:	46c0      	nop			@ (mov r8, r8)
 80017d8:	2000001c 	.word	0x2000001c
 80017dc:	20000234 	.word	0x20000234

080017e0 <HAL_GetTick>:
  * @note This function is declared as __weak to be overwritten in case of other
  *       implementations in user file.
  * @retval tick value
  */
__weak uint32_t HAL_GetTick(void)
{
 80017e0:	b580      	push	{r7, lr}
 80017e2:	af00      	add	r7, sp, #0
  return uwTick;
 80017e4:	4b02      	ldr	r3, [pc, #8]	@ (80017f0 <HAL_GetTick+0x10>)
 80017e6:	681b      	ldr	r3, [r3, #0]
}
 80017e8:	0018      	movs	r0, r3
 80017ea:	46bd      	mov	sp, r7
 80017ec:	bd80      	pop	{r7, pc}
 80017ee:	46c0      	nop			@ (mov r8, r8)
 80017f0:	20000234 	.word	0x20000234

080017f4 <HAL_Delay>:
  *       implementations in user file.
  * @param Delay  specifies the delay time length, in milliseconds.
  * @retval None
  */
__weak void HAL_Delay(uint32_t Delay)
{
 80017f4:	b580      	push	{r7, lr}
 80017f6:	b084      	sub	sp, #16
 80017f8:	af00      	add	r7, sp, #0
 80017fa:	6078      	str	r0, [r7, #4]
  uint32_t tickstart = HAL_GetTick();
 80017fc:	f7ff fff0 	bl	80017e0 <HAL_GetTick>
 8001800:	0003      	movs	r3, r0
 8001802:	60bb      	str	r3, [r7, #8]
  uint32_t wait = Delay;
 8001804:	687b      	ldr	r3, [r7, #4]
 8001806:	60fb      	str	r3, [r7, #12]

  /* Add a freq to guarantee minimum wait */
  if (wait < HAL_MAX_DELAY)
 8001808:	68fb      	ldr	r3, [r7, #12]
 800180a:	3301      	adds	r3, #1
 800180c:	d005      	beq.n	800181a <HAL_Delay+0x26>
  {
    wait += (uint32_t)(uwTickFreq);
 800180e:	4b0a      	ldr	r3, [pc, #40]	@ (8001838 <HAL_Delay+0x44>)
 8001810:	781b      	ldrb	r3, [r3, #0]
 8001812:	001a      	movs	r2, r3
 8001814:	68fb      	ldr	r3, [r7, #12]
 8001816:	189b      	adds	r3, r3, r2
 8001818:	60fb      	str	r3, [r7, #12]
  }

  while ((HAL_GetTick() - tickstart) < wait)
 800181a:	46c0      	nop			@ (mov r8, r8)
 800181c:	f7ff ffe0 	bl	80017e0 <HAL_GetTick>
 8001820:	0002      	movs	r2, r0
 8001822:	68bb      	ldr	r3, [r7, #8]
 8001824:	1ad3      	subs	r3, r2, r3
 8001826:	68fa      	ldr	r2, [r7, #12]
 8001828:	429a      	cmp	r2, r3
 800182a:	d8f7      	bhi.n	800181c <HAL_Delay+0x28>
  {
  }
}
 800182c:	46c0      	nop			@ (mov r8, r8)
 800182e:	46c0      	nop			@ (mov r8, r8)
 8001830:	46bd      	mov	sp, r7
 8001832:	b004      	add	sp, #16
 8001834:	bd80      	pop	{r7, pc}
 8001836:	46c0      	nop			@ (mov r8, r8)
 8001838:	2000001c 	.word	0x2000001c

0800183c <HAL_SuspendTick>:
  * @note This function is declared as __weak to be overwritten in case of other
  *       implementations in user file.
  * @retval None
  */
__weak void HAL_SuspendTick(void)
{
 800183c:	b580      	push	{r7, lr}
 800183e:	af00      	add	r7, sp, #0
  /* Disable SysTick Interrupt */
  CLEAR_BIT(SysTick->CTRL, SysTick_CTRL_TICKINT_Msk);
 8001840:	4b04      	ldr	r3, [pc, #16]	@ (8001854 <HAL_SuspendTick+0x18>)
 8001842:	681a      	ldr	r2, [r3, #0]
 8001844:	4b03      	ldr	r3, [pc, #12]	@ (8001854 <HAL_SuspendTick+0x18>)
 8001846:	2102      	movs	r1, #2
 8001848:	438a      	bics	r2, r1
 800184a:	601a      	str	r2, [r3, #0]
}
 800184c:	46c0      	nop			@ (mov r8, r8)
 800184e:	46bd      	mov	sp, r7
 8001850:	bd80      	pop	{r7, pc}
 8001852:	46c0      	nop			@ (mov r8, r8)
 8001854:	e000e010 	.word	0xe000e010

08001858 <__NVIC_EnableIRQ>:
  \details Enables a device specific interrupt in the NVIC interrupt controller.
  \param [in]      IRQn  Device specific interrupt number.
  \note    IRQn must not be negative.
 */
__STATIC_INLINE void __NVIC_EnableIRQ(IRQn_Type IRQn)
{
 8001858:	b580      	push	{r7, lr}
 800185a:	b082      	sub	sp, #8
 800185c:	af00      	add	r7, sp, #0
 800185e:	0002      	movs	r2, r0
 8001860:	1dfb      	adds	r3, r7, #7
 8001862:	701a      	strb	r2, [r3, #0]
  if ((int32_t)(IRQn) >= 0)
 8001864:	1dfb      	adds	r3, r7, #7
 8001866:	781b      	ldrb	r3, [r3, #0]
 8001868:	2b7f      	cmp	r3, #127	@ 0x7f
 800186a:	d809      	bhi.n	8001880 <__NVIC_EnableIRQ+0x28>
  {
    __COMPILER_BARRIER();
    NVIC->ISER[0U] = (uint32_t)(1UL << (((uint32_t)IRQn) & 0x1FUL));
 800186c:	1dfb      	adds	r3, r7, #7
 800186e:	781b      	ldrb	r3, [r3, #0]
 8001870:	001a      	movs	r2, r3
 8001872:	231f      	movs	r3, #31
 8001874:	401a      	ands	r2, r3
 8001876:	4b04      	ldr	r3, [pc, #16]	@ (8001888 <__NVIC_EnableIRQ+0x30>)
 8001878:	2101      	movs	r1, #1
 800187a:	4091      	lsls	r1, r2
 800187c:	000a      	movs	r2, r1
 800187e:	601a      	str	r2, [r3, #0]
    __COMPILER_BARRIER();
  }
}
 8001880:	46c0      	nop			@ (mov r8, r8)
 8001882:	46bd      	mov	sp, r7
 8001884:	b002      	add	sp, #8
 8001886:	bd80      	pop	{r7, pc}
 8001888:	e000e100 	.word	0xe000e100

0800188c <__NVIC_SetPriority>:
  \param [in]      IRQn  Interrupt number.
  \param [in]  priority  Priority to set.
  \note    The priority cannot be set for every processor exception.
 */
__STATIC_INLINE void __NVIC_SetPriority(IRQn_Type IRQn, uint32_t priority)
{
 800188c:	b590      	push	{r4, r7, lr}
 800188e:	b083      	sub	sp, #12
 8001890:	af00      	add	r7, sp, #0
 8001892:	0002      	movs	r2, r0
 8001894:	6039      	str	r1, [r7, #0]
 8001896:	1dfb      	adds	r3, r7, #7
 8001898:	701a      	strb	r2, [r3, #0]
  if ((int32_t)(IRQn) >= 0)
 800189a:	1dfb      	adds	r3, r7, #7
 800189c:	781b      	ldrb	r3, [r3, #0]
 800189e:	2b7f      	cmp	r3, #127	@ 0x7f
 80018a0:	d828      	bhi.n	80018f4 <__NVIC_SetPriority+0x68>
  {
    NVIC->IP[_IP_IDX(IRQn)]  = ((uint32_t)(NVIC->IP[_IP_IDX(IRQn)]  & ~(0xFFUL << _BIT_SHIFT(IRQn))) |
 80018a2:	4a2f      	ldr	r2, [pc, #188]	@ (8001960 <__NVIC_SetPriority+0xd4>)
 80018a4:	1dfb      	adds	r3, r7, #7
 80018a6:	781b      	ldrb	r3, [r3, #0]
 80018a8:	b25b      	sxtb	r3, r3
 80018aa:	089b      	lsrs	r3, r3, #2
 80018ac:	33c0      	adds	r3, #192	@ 0xc0
 80018ae:	009b      	lsls	r3, r3, #2
 80018b0:	589b      	ldr	r3, [r3, r2]
 80018b2:	1dfa      	adds	r2, r7, #7
 80018b4:	7812      	ldrb	r2, [r2, #0]
 80018b6:	0011      	movs	r1, r2
 80018b8:	2203      	movs	r2, #3
 80018ba:	400a      	ands	r2, r1
 80018bc:	00d2      	lsls	r2, r2, #3
 80018be:	21ff      	movs	r1, #255	@ 0xff
 80018c0:	4091      	lsls	r1, r2
 80018c2:	000a      	movs	r2, r1
 80018c4:	43d2      	mvns	r2, r2
 80018c6:	401a      	ands	r2, r3
 80018c8:	0011      	movs	r1, r2
       (((priority << (8U - __NVIC_PRIO_BITS)) & (uint32_t)0xFFUL) << _BIT_SHIFT(IRQn)));
 80018ca:	683b      	ldr	r3, [r7, #0]
 80018cc:	019b      	lsls	r3, r3, #6
 80018ce:	22ff      	movs	r2, #255	@ 0xff
 80018d0:	401a      	ands	r2, r3
 80018d2:	1dfb      	adds	r3, r7, #7
 80018d4:	781b      	ldrb	r3, [r3, #0]
 80018d6:	0018      	movs	r0, r3
 80018d8:	2303      	movs	r3, #3
 80018da:	4003      	ands	r3, r0
 80018dc:	00db      	lsls	r3, r3, #3
 80018de:	409a      	lsls	r2, r3
    NVIC->IP[_IP_IDX(IRQn)]  = ((uint32_t)(NVIC->IP[_IP_IDX(IRQn)]  & ~(0xFFUL << _BIT_SHIFT(IRQn))) |
 80018e0:	481f      	ldr	r0, [pc, #124]	@ (8001960 <__NVIC_SetPriority+0xd4>)
 80018e2:	1dfb      	adds	r3, r7, #7
 80018e4:	781b      	ldrb	r3, [r3, #0]
 80018e6:	b25b      	sxtb	r3, r3
 80018e8:	089b      	lsrs	r3, r3, #2
 80018ea:	430a      	orrs	r2, r1
 80018ec:	33c0      	adds	r3, #192	@ 0xc0
 80018ee:	009b      	lsls	r3, r3, #2
 80018f0:	501a      	str	r2, [r3, r0]
  else
  {
    SCB->SHP[_SHP_IDX(IRQn)] = ((uint32_t)(SCB->SHP[_SHP_IDX(IRQn)] & ~(0xFFUL << _BIT_SHIFT(IRQn))) |
       (((priority << (8U - __NVIC_PRIO_BITS)) & (uint32_t)0xFFUL) << _BIT_SHIFT(IRQn)));
  }
}
 80018f2:	e031      	b.n	8001958 <__NVIC_SetPriority+0xcc>
    SCB->SHP[_SHP_IDX(IRQn)] = ((uint32_t)(SCB->SHP[_SHP_IDX(IRQn)] & ~(0xFFUL << _BIT_SHIFT(IRQn))) |
 80018f4:	4a1b      	ldr	r2, [pc, #108]	@ (8001964 <__NVIC_SetPriority+0xd8>)
 80018f6:	1dfb      	adds	r3, r7, #7
 80018f8:	781b      	ldrb	r3, [r3, #0]
 80018fa:	0019      	movs	r1, r3
 80018fc:	230f      	movs	r3, #15
 80018fe:	400b      	ands	r3, r1
 8001900:	3b08      	subs	r3, #8
 8001902:	089b      	lsrs	r3, r3, #2
 8001904:	3306      	adds	r3, #6
 8001906:	009b      	lsls	r3, r3, #2
 8001908:	18d3      	adds	r3, r2, r3
 800190a:	3304      	adds	r3, #4
 800190c:	681b      	ldr	r3, [r3, #0]
 800190e:	1dfa      	adds	r2, r7, #7
 8001910:	7812      	ldrb	r2, [r2, #0]
 8001912:	0011      	movs	r1, r2
 8001914:	2203      	movs	r2, #3
 8001916:	400a      	ands	r2, r1
 8001918:	00d2      	lsls	r2, r2, #3
 800191a:	21ff      	movs	r1, #255	@ 0xff
 800191c:	4091      	lsls	r1, r2
 800191e:	000a      	movs	r2, r1
 8001920:	43d2      	mvns	r2, r2
 8001922:	401a      	ands	r2, r3
 8001924:	0011      	movs	r1, r2
       (((priority << (8U - __NVIC_PRIO_BITS)) & (uint32_t)0xFFUL) << _BIT_SHIFT(IRQn)));
 8001926:	683b      	ldr	r3, [r7, #0]
 8001928:	019b      	lsls	r3, r3, #6
 800192a:	22ff      	movs	r2, #255	@ 0xff
 800192c:	401a      	ands	r2, r3
 800192e:	1dfb      	adds	r3, r7, #7
 8001930:	781b      	ldrb	r3, [r3, #0]
 8001932:	0018      	movs	r0, r3
 8001934:	2303      	movs	r3, #3
 8001936:	4003      	ands	r3, r0
 8001938:	00db      	lsls	r3, r3, #3
 800193a:	409a      	lsls	r2, r3
    SCB->SHP[_SHP_IDX(IRQn)] = ((uint32_t)(SCB->SHP[_SHP_IDX(IRQn)] & ~(0xFFUL << _BIT_SHIFT(IRQn))) |
 800193c:	4809      	ldr	r0, [pc, #36]	@ (8001964 <__NVIC_SetPriority+0xd8>)
 800193e:	1dfb      	adds	r3, r7, #7
 8001940:	781b      	ldrb	r3, [r3, #0]
 8001942:	001c      	movs	r4, r3
 8001944:	230f      	movs	r3, #15
 8001946:	4023      	ands	r3, r4
 8001948:	3b08      	subs	r3, #8
 800194a:	089b      	lsrs	r3, r3, #2
 800194c:	430a      	orrs	r2, r1
 800194e:	3306      	adds	r3, #6
 8001950:	009b      	lsls	r3, r3, #2
 8001952:	18c3      	adds	r3, r0, r3
 8001954:	3304      	adds	r3, #4
 8001956:	601a      	str	r2, [r3, #0]
}
 8001958:	46c0      	nop			@ (mov r8, r8)
 800195a:	46bd      	mov	sp, r7
 800195c:	b003      	add	sp, #12
 800195e:	bd90      	pop	{r4, r7, pc}
 8001960:	e000e100 	.word	0xe000e100
 8001964:	e000ed00 	.word	0xe000ed00

08001968 <SysTick_Config>:
  \note    When the variable <b>__Vendor_SysTickConfig</b> is set to 1, then the
           function <b>SysTick_Config</b> is not included. In this case, the file <b><i>device</i>.h</b>
           must contain a vendor-specific implementation of this function.
 */
__STATIC_INLINE uint32_t SysTick_Config(uint32_t ticks)
{
 8001968:	b580      	push	{r7, lr}
 800196a:	b082      	sub	sp, #8
 800196c:	af00      	add	r7, sp, #0
 800196e:	6078      	str	r0, [r7, #4]
  if ((ticks - 1UL) > SysTick_LOAD_RELOAD_Msk)
 8001970:	687b      	ldr	r3, [r7, #4]
 8001972:	1e5a      	subs	r2, r3, #1
 8001974:	2380      	movs	r3, #128	@ 0x80
 8001976:	045b      	lsls	r3, r3, #17
 8001978:	429a      	cmp	r2, r3
 800197a:	d301      	bcc.n	8001980 <SysTick_Config+0x18>
  {
    return (1UL);                                                   /* Reload value impossible */
 800197c:	2301      	movs	r3, #1
 800197e:	e010      	b.n	80019a2 <SysTick_Config+0x3a>
  }

  SysTick->LOAD  = (uint32_t)(ticks - 1UL);                         /* set reload register */
 8001980:	4b0a      	ldr	r3, [pc, #40]	@ (80019ac <SysTick_Config+0x44>)
 8001982:	687a      	ldr	r2, [r7, #4]
 8001984:	3a01      	subs	r2, #1
 8001986:	605a      	str	r2, [r3, #4]
  NVIC_SetPriority (SysTick_IRQn, (1UL << __NVIC_PRIO_BITS) - 1UL); /* set Priority for Systick Interrupt */
 8001988:	2301      	movs	r3, #1
 800198a:	425b      	negs	r3, r3
 800198c:	2103      	movs	r1, #3
 800198e:	0018      	movs	r0, r3
 8001990:	f7ff ff7c 	bl	800188c <__NVIC_SetPriority>
  SysTick->VAL   = 0UL;                                             /* Load the SysTick Counter Value */
 8001994:	4b05      	ldr	r3, [pc, #20]	@ (80019ac <SysTick_Config+0x44>)
 8001996:	2200      	movs	r2, #0
 8001998:	609a      	str	r2, [r3, #8]
  SysTick->CTRL  = SysTick_CTRL_CLKSOURCE_Msk |
 800199a:	4b04      	ldr	r3, [pc, #16]	@ (80019ac <SysTick_Config+0x44>)
 800199c:	2207      	movs	r2, #7
 800199e:	601a      	str	r2, [r3, #0]
                   SysTick_CTRL_TICKINT_Msk   |
                   SysTick_CTRL_ENABLE_Msk;                         /* Enable SysTick IRQ and SysTick Timer */
  return (0UL);                                                     /* Function successful */
 80019a0:	2300      	movs	r3, #0
}
 80019a2:	0018      	movs	r0, r3
 80019a4:	46bd      	mov	sp, r7
 80019a6:	b002      	add	sp, #8
 80019a8:	bd80      	pop	{r7, pc}
 80019aa:	46c0      	nop			@ (mov r8, r8)
 80019ac:	e000e010 	.word	0xe000e010

080019b0 <HAL_NVIC_SetPriority>:
  *         with stm32u0xx devices, this parameter is a dummy value and it is ignored, because
  *         no subpriority supported in Cortex M0+ based products.
  * @retval None
  */
void HAL_NVIC_SetPriority(IRQn_Type IRQn, uint32_t PreemptPriority, uint32_t SubPriority)
{
 80019b0:	b580      	push	{r7, lr}
 80019b2:	b084      	sub	sp, #16
 80019b4:	af00      	add	r7, sp, #0
 80019b6:	60b9      	str	r1, [r7, #8]
 80019b8:	607a      	str	r2, [r7, #4]
 80019ba:	210f      	movs	r1, #15
 80019bc:	187b      	adds	r3, r7, r1
 80019be:	1c02      	adds	r2, r0, #0
 80019c0:	701a      	strb	r2, [r3, #0]
  /* Prevent unused argument(s) compilation warning */
  (void)(SubPriority);
  /* Check the parameters */
  assert_param(IS_NVIC_PREEMPTION_PRIORITY(PreemptPriority));
  NVIC_SetPriority(IRQn, PreemptPriority);
 80019c2:	68ba      	ldr	r2, [r7, #8]
 80019c4:	187b      	adds	r3, r7, r1
 80019c6:	781b      	ldrb	r3, [r3, #0]
 80019c8:	b25b      	sxtb	r3, r3
 80019ca:	0011      	movs	r1, r2
 80019cc:	0018      	movs	r0, r3
 80019ce:	f7ff ff5d 	bl	800188c <__NVIC_SetPriority>
}
 80019d2:	46c0      	nop			@ (mov r8, r8)
 80019d4:	46bd      	mov	sp, r7
 80019d6:	b004      	add	sp, #16
 80019d8:	bd80      	pop	{r7, pc}

080019da <HAL_NVIC_EnableIRQ>:
  *         (For the complete STM32 Devices IRQ Channels list, please refer to the appropriate
  *         CMSIS device file (stm32u0xxxx.h))
  * @retval None
  */
void HAL_NVIC_EnableIRQ(IRQn_Type IRQn)
{
 80019da:	b580      	push	{r7, lr}
 80019dc:	b082      	sub	sp, #8
 80019de:	af00      	add	r7, sp, #0
 80019e0:	0002      	movs	r2, r0
 80019e2:	1dfb      	adds	r3, r7, #7
 80019e4:	701a      	strb	r2, [r3, #0]
  /* Check the parameters */
  assert_param(IS_NVIC_DEVICE_IRQ(IRQn));

  /* Enable interrupt */
  NVIC_EnableIRQ(IRQn);
 80019e6:	1dfb      	adds	r3, r7, #7
 80019e8:	781b      	ldrb	r3, [r3, #0]
 80019ea:	b25b      	sxtb	r3, r3
 80019ec:	0018      	movs	r0, r3
 80019ee:	f7ff ff33 	bl	8001858 <__NVIC_EnableIRQ>
}
 80019f2:	46c0      	nop			@ (mov r8, r8)
 80019f4:	46bd      	mov	sp, r7
 80019f6:	b002      	add	sp, #8
 80019f8:	bd80      	pop	{r7, pc}

080019fa <HAL_SYSTICK_Config>:
  * @param  TicksNumb Specifies the ticks Number of ticks between two interrupts.
  * @retval status:  - 0  Function succeeded.
  *                  - 1  Function failed.
  */
uint32_t HAL_SYSTICK_Config(uint32_t TicksNumb)
{
 80019fa:	b580      	push	{r7, lr}
 80019fc:	b082      	sub	sp, #8
 80019fe:	af00      	add	r7, sp, #0
 8001a00:	6078      	str	r0, [r7, #4]
  return SysTick_Config(TicksNumb);
 8001a02:	687b      	ldr	r3, [r7, #4]
 8001a04:	0018      	movs	r0, r3
 8001a06:	f7ff ffaf 	bl	8001968 <SysTick_Config>
 8001a0a:	0003      	movs	r3, r0
}
 8001a0c:	0018      	movs	r0, r3
 8001a0e:	46bd      	mov	sp, r7
 8001a10:	b002      	add	sp, #8
 8001a12:	bd80      	pop	{r7, pc}

08001a14 <HAL_SYSTICK_IRQHandler>:
/**
  * @brief  Handle SYSTICK interrupt request.
  * @retval None
  */
void HAL_SYSTICK_IRQHandler(void)
{
 8001a14:	b580      	push	{r7, lr}
 8001a16:	af00      	add	r7, sp, #0
  HAL_SYSTICK_Callback();
 8001a18:	f7ff fb12 	bl	8001040 <HAL_SYSTICK_Callback>
}
 8001a1c:	46c0      	nop			@ (mov r8, r8)
 8001a1e:	46bd      	mov	sp, r7
 8001a20:	bd80      	pop	{r7, pc}

08001a22 <HAL_EXTI_RegisterCallback>:
  * @param  pPendingCbfn function pointer to be stored as callback.
  * @retval HAL Status.
  */
HAL_StatusTypeDef HAL_EXTI_RegisterCallback(EXTI_HandleTypeDef *hexti, EXTI_CallbackIDTypeDef CallbackID,
                                            void (*pPendingCbfn)(void))
{
 8001a22:	b580      	push	{r7, lr}
 8001a24:	b086      	sub	sp, #24
 8001a26:	af00      	add	r7, sp, #0
 8001a28:	60f8      	str	r0, [r7, #12]
 8001a2a:	607a      	str	r2, [r7, #4]
 8001a2c:	200b      	movs	r0, #11
 8001a2e:	183b      	adds	r3, r7, r0
 8001a30:	1c0a      	adds	r2, r1, #0
 8001a32:	701a      	strb	r2, [r3, #0]
  HAL_StatusTypeDef status = HAL_OK;
 8001a34:	2317      	movs	r3, #23
 8001a36:	18fb      	adds	r3, r7, r3
 8001a38:	2200      	movs	r2, #0
 8001a3a:	701a      	strb	r2, [r3, #0]

  switch (CallbackID)
 8001a3c:	183b      	adds	r3, r7, r0
 8001a3e:	781b      	ldrb	r3, [r3, #0]
 8001a40:	2b02      	cmp	r3, #2
 8001a42:	d010      	beq.n	8001a66 <HAL_EXTI_RegisterCallback+0x44>
 8001a44:	dc13      	bgt.n	8001a6e <HAL_EXTI_RegisterCallback+0x4c>
 8001a46:	2b00      	cmp	r3, #0
 8001a48:	d002      	beq.n	8001a50 <HAL_EXTI_RegisterCallback+0x2e>
 8001a4a:	2b01      	cmp	r3, #1
 8001a4c:	d007      	beq.n	8001a5e <HAL_EXTI_RegisterCallback+0x3c>
 8001a4e:	e00e      	b.n	8001a6e <HAL_EXTI_RegisterCallback+0x4c>
  {
    case  HAL_EXTI_COMMON_CB_ID:
      hexti->RisingCallback = pPendingCbfn;
 8001a50:	68fb      	ldr	r3, [r7, #12]
 8001a52:	687a      	ldr	r2, [r7, #4]
 8001a54:	605a      	str	r2, [r3, #4]
      hexti->FallingCallback = pPendingCbfn;
 8001a56:	68fb      	ldr	r3, [r7, #12]
 8001a58:	687a      	ldr	r2, [r7, #4]
 8001a5a:	609a      	str	r2, [r3, #8]
      break;
 8001a5c:	e00c      	b.n	8001a78 <HAL_EXTI_RegisterCallback+0x56>

    case  HAL_EXTI_RISING_CB_ID:
      hexti->RisingCallback = pPendingCbfn;
 8001a5e:	68fb      	ldr	r3, [r7, #12]
 8001a60:	687a      	ldr	r2, [r7, #4]
 8001a62:	605a      	str	r2, [r3, #4]
      break;
 8001a64:	e008      	b.n	8001a78 <HAL_EXTI_RegisterCallback+0x56>

    case  HAL_EXTI_FALLING_CB_ID:
      hexti->FallingCallback = pPendingCbfn;
 8001a66:	68fb      	ldr	r3, [r7, #12]
 8001a68:	687a      	ldr	r2, [r7, #4]
 8001a6a:	609a      	str	r2, [r3, #8]
      break;
 8001a6c:	e004      	b.n	8001a78 <HAL_EXTI_RegisterCallback+0x56>

    default:
      status = HAL_ERROR;
 8001a6e:	2317      	movs	r3, #23
 8001a70:	18fb      	adds	r3, r7, r3
 8001a72:	2201      	movs	r2, #1
 8001a74:	701a      	strb	r2, [r3, #0]
      break;
 8001a76:	46c0      	nop			@ (mov r8, r8)
  }

  return status;
 8001a78:	2317      	movs	r3, #23
 8001a7a:	18fb      	adds	r3, r7, r3
 8001a7c:	781b      	ldrb	r3, [r3, #0]
}
 8001a7e:	0018      	movs	r0, r3
 8001a80:	46bd      	mov	sp, r7
 8001a82:	b006      	add	sp, #24
 8001a84:	bd80      	pop	{r7, pc}

08001a86 <HAL_EXTI_GetHandle>:
  * @param  ExtiLine Exti line number.
  *         This parameter can be from 0 to @ref EXTI_LINE_NB.
  * @retval HAL Status.
  */
HAL_StatusTypeDef HAL_EXTI_GetHandle(EXTI_HandleTypeDef *hexti, uint32_t ExtiLine)
{
 8001a86:	b580      	push	{r7, lr}
 8001a88:	b082      	sub	sp, #8
 8001a8a:	af00      	add	r7, sp, #0
 8001a8c:	6078      	str	r0, [r7, #4]
 8001a8e:	6039      	str	r1, [r7, #0]
  /* Check the parameters */
  assert_param(IS_EXTI_LINE(ExtiLine));

  /* Check null pointer */
  if (hexti == NULL)
 8001a90:	687b      	ldr	r3, [r7, #4]
 8001a92:	2b00      	cmp	r3, #0
 8001a94:	d101      	bne.n	8001a9a <HAL_EXTI_GetHandle+0x14>
  {
    return HAL_ERROR;
 8001a96:	2301      	movs	r3, #1
 8001a98:	e003      	b.n	8001aa2 <HAL_EXTI_GetHandle+0x1c>
  }
  else
  {
    /* Store line number as handle private field */
    hexti->Line = ExtiLine;
 8001a9a:	687b      	ldr	r3, [r7, #4]
 8001a9c:	683a      	ldr	r2, [r7, #0]
 8001a9e:	601a      	str	r2, [r3, #0]

    return HAL_OK;
 8001aa0:	2300      	movs	r3, #0
  }
}
 8001aa2:	0018      	movs	r0, r3
 8001aa4:	46bd      	mov	sp, r7
 8001aa6:	b002      	add	sp, #8
 8001aa8:	bd80      	pop	{r7, pc}
	...

08001aac <HAL_GPIO_Init>:
  * @param  GPIO_Init pointer to a GPIO_InitTypeDef structure that contains
  *         the configuration information for the specified GPIO peripheral.
  * @retval None
  */
void HAL_GPIO_Init(GPIO_TypeDef  *GPIOx, const GPIO_InitTypeDef *GPIO_Init)
{
 8001aac:	b580      	push	{r7, lr}
 8001aae:	b086      	sub	sp, #24
 8001ab0:	af00      	add	r7, sp, #0
 8001ab2:	6078      	str	r0, [r7, #4]
 8001ab4:	6039      	str	r1, [r7, #0]
  uint32_t position = 0x00u;
 8001ab6:	2300      	movs	r3, #0
 8001ab8:	617b      	str	r3, [r7, #20]
  assert_param(IS_GPIO_ALL_INSTANCE(GPIOx));
  assert_param(IS_GPIO_PIN(GPIO_Init->Pin));
  assert_param(IS_GPIO_MODE(GPIO_Init->Mode));

  /* Configure the port pins */
  while (((GPIO_Init->Pin) >> position) != 0x00u)
 8001aba:	e14d      	b.n	8001d58 <HAL_GPIO_Init+0x2ac>
  {
    /* Get current io position */
    iocurrent = (GPIO_Init->Pin) & (1uL << position);
 8001abc:	683b      	ldr	r3, [r7, #0]
 8001abe:	681b      	ldr	r3, [r3, #0]
 8001ac0:	2101      	movs	r1, #1
 8001ac2:	697a      	ldr	r2, [r7, #20]
 8001ac4:	4091      	lsls	r1, r2
 8001ac6:	000a      	movs	r2, r1
 8001ac8:	4013      	ands	r3, r2
 8001aca:	60fb      	str	r3, [r7, #12]

    if (iocurrent != 0x00u)
 8001acc:	68fb      	ldr	r3, [r7, #12]
 8001ace:	2b00      	cmp	r3, #0
 8001ad0:	d100      	bne.n	8001ad4 <HAL_GPIO_Init+0x28>
 8001ad2:	e13e      	b.n	8001d52 <HAL_GPIO_Init+0x2a6>
    {
      /*--------------------- GPIO Mode Configuration ------------------------*/
      /* In case of Output or Alternate function mode selection */
      if (((GPIO_Init->Mode & GPIO_MODE) == MODE_OUTPUT) || ((GPIO_Init->Mode & GPIO_MODE) == MODE_AF))
 8001ad4:	683b      	ldr	r3, [r7, #0]
 8001ad6:	685b      	ldr	r3, [r3, #4]
 8001ad8:	2203      	movs	r2, #3
 8001ada:	4013      	ands	r3, r2
 8001adc:	2b01      	cmp	r3, #1
 8001ade:	d005      	beq.n	8001aec <HAL_GPIO_Init+0x40>
 8001ae0:	683b      	ldr	r3, [r7, #0]
 8001ae2:	685b      	ldr	r3, [r3, #4]
 8001ae4:	2203      	movs	r2, #3
 8001ae6:	4013      	ands	r3, r2
 8001ae8:	2b02      	cmp	r3, #2
 8001aea:	d130      	bne.n	8001b4e <HAL_GPIO_Init+0xa2>
      {
        /* Check the Speed parameter */
        assert_param(IS_GPIO_SPEED(GPIO_Init->Speed));

        /* Configure the IO Speed */
        temp = GPIOx->OSPEEDR;
 8001aec:	687b      	ldr	r3, [r7, #4]
 8001aee:	689b      	ldr	r3, [r3, #8]
 8001af0:	613b      	str	r3, [r7, #16]
        temp &= ~(GPIO_OSPEEDR_OSPEED0 << (position * GPIO_OSPEEDR_OSPEED1_Pos));
 8001af2:	697b      	ldr	r3, [r7, #20]
 8001af4:	005b      	lsls	r3, r3, #1
 8001af6:	2203      	movs	r2, #3
 8001af8:	409a      	lsls	r2, r3
 8001afa:	0013      	movs	r3, r2
 8001afc:	43da      	mvns	r2, r3
 8001afe:	693b      	ldr	r3, [r7, #16]
 8001b00:	4013      	ands	r3, r2
 8001b02:	613b      	str	r3, [r7, #16]
        temp |= (GPIO_Init->Speed << (position * GPIO_OSPEEDR_OSPEED1_Pos));
 8001b04:	683b      	ldr	r3, [r7, #0]
 8001b06:	68da      	ldr	r2, [r3, #12]
 8001b08:	697b      	ldr	r3, [r7, #20]
 8001b0a:	005b      	lsls	r3, r3, #1
 8001b0c:	409a      	lsls	r2, r3
 8001b0e:	0013      	movs	r3, r2
 8001b10:	693a      	ldr	r2, [r7, #16]
 8001b12:	4313      	orrs	r3, r2
 8001b14:	613b      	str	r3, [r7, #16]
        GPIOx->OSPEEDR = temp;
 8001b16:	687b      	ldr	r3, [r7, #4]
 8001b18:	693a      	ldr	r2, [r7, #16]
 8001b1a:	609a      	str	r2, [r3, #8]

        /* Configure the IO Output Type */
        temp = GPIOx->OTYPER;
 8001b1c:	687b      	ldr	r3, [r7, #4]
 8001b1e:	685b      	ldr	r3, [r3, #4]
 8001b20:	613b      	str	r3, [r7, #16]
        temp &= ~(GPIO_OTYPER_OT0 << position) ;
 8001b22:	2201      	movs	r2, #1
 8001b24:	697b      	ldr	r3, [r7, #20]
 8001b26:	409a      	lsls	r2, r3
 8001b28:	0013      	movs	r3, r2
 8001b2a:	43da      	mvns	r2, r3
 8001b2c:	693b      	ldr	r3, [r7, #16]
 8001b2e:	4013      	ands	r3, r2
 8001b30:	613b      	str	r3, [r7, #16]
        temp |= (((GPIO_Init->Mode & OUTPUT_TYPE) >> OUTPUT_TYPE_POS) << position);
 8001b32:	683b      	ldr	r3, [r7, #0]
 8001b34:	685b      	ldr	r3, [r3, #4]
 8001b36:	091b      	lsrs	r3, r3, #4
 8001b38:	2201      	movs	r2, #1
 8001b3a:	401a      	ands	r2, r3
 8001b3c:	697b      	ldr	r3, [r7, #20]
 8001b3e:	409a      	lsls	r2, r3
 8001b40:	0013      	movs	r3, r2
 8001b42:	693a      	ldr	r2, [r7, #16]
 8001b44:	4313      	orrs	r3, r2
 8001b46:	613b      	str	r3, [r7, #16]
        GPIOx->OTYPER = temp;
 8001b48:	687b      	ldr	r3, [r7, #4]
 8001b4a:	693a      	ldr	r2, [r7, #16]
 8001b4c:	605a      	str	r2, [r3, #4]
      }

      if ((GPIO_Init->Mode & GPIO_MODE) != MODE_ANALOG)
 8001b4e:	683b      	ldr	r3, [r7, #0]
 8001b50:	685b      	ldr	r3, [r3, #4]
 8001b52:	2203      	movs	r2, #3
 8001b54:	4013      	ands	r3, r2
 8001b56:	2b03      	cmp	r3, #3
 8001b58:	d017      	beq.n	8001b8a <HAL_GPIO_Init+0xde>
      {
        /* Check the Pull parameter */
        assert_param(IS_GPIO_PULL(GPIO_Init->Pull));

        /* Activate the Pull-up or Pull down resistor for the current IO */
        temp = GPIOx->PUPDR;
 8001b5a:	687b      	ldr	r3, [r7, #4]
 8001b5c:	68db      	ldr	r3, [r3, #12]
 8001b5e:	613b      	str	r3, [r7, #16]
        temp &= ~(GPIO_PUPDR_PUPD0 << (position * GPIO_PUPDR_PUPD1_Pos));
 8001b60:	697b      	ldr	r3, [r7, #20]
 8001b62:	005b      	lsls	r3, r3, #1
 8001b64:	2203      	movs	r2, #3
 8001b66:	409a      	lsls	r2, r3
 8001b68:	0013      	movs	r3, r2
 8001b6a:	43da      	mvns	r2, r3
 8001b6c:	693b      	ldr	r3, [r7, #16]
 8001b6e:	4013      	ands	r3, r2
 8001b70:	613b      	str	r3, [r7, #16]
        temp |= ((GPIO_Init->Pull) << (position * GPIO_PUPDR_PUPD1_Pos));
 8001b72:	683b      	ldr	r3, [r7, #0]
 8001b74:	689a      	ldr	r2, [r3, #8]
 8001b76:	697b      	ldr	r3, [r7, #20]
 8001b78:	005b      	lsls	r3, r3, #1
 8001b7a:	409a      	lsls	r2, r3
 8001b7c:	0013      	movs	r3, r2
 8001b7e:	693a      	ldr	r2, [r7, #16]
 8001b80:	4313      	orrs	r3, r2
 8001b82:	613b      	str	r3, [r7, #16]
        GPIOx->PUPDR = temp;
 8001b84:	687b      	ldr	r3, [r7, #4]
 8001b86:	693a      	ldr	r2, [r7, #16]
 8001b88:	60da      	str	r2, [r3, #12]
      }

      /* In case of Alternate function mode selection */
      if ((GPIO_Init->Mode & GPIO_MODE) == MODE_AF)
 8001b8a:	683b      	ldr	r3, [r7, #0]
 8001b8c:	685b      	ldr	r3, [r3, #4]
 8001b8e:	2203      	movs	r2, #3
 8001b90:	4013      	ands	r3, r2
 8001b92:	2b02      	cmp	r3, #2
 8001b94:	d123      	bne.n	8001bde <HAL_GPIO_Init+0x132>
        /* Check the Alternate function parameters */
        assert_param(IS_GPIO_AF_INSTANCE(GPIOx));
        assert_param(IS_GPIO_AF(GPIO_Init->Alternate));

        /* Configure Alternate function mapped with the current IO */
        temp = GPIOx->AFR[position >> 3u];
 8001b96:	697b      	ldr	r3, [r7, #20]
 8001b98:	08da      	lsrs	r2, r3, #3
 8001b9a:	687b      	ldr	r3, [r7, #4]
 8001b9c:	3208      	adds	r2, #8
 8001b9e:	0092      	lsls	r2, r2, #2
 8001ba0:	58d3      	ldr	r3, [r2, r3]
 8001ba2:	613b      	str	r3, [r7, #16]
        temp &= ~(0xFu << ((position & 0x07u) * GPIO_AFRL_AFSEL1_Pos));
 8001ba4:	697b      	ldr	r3, [r7, #20]
 8001ba6:	2207      	movs	r2, #7
 8001ba8:	4013      	ands	r3, r2
 8001baa:	009b      	lsls	r3, r3, #2
 8001bac:	220f      	movs	r2, #15
 8001bae:	409a      	lsls	r2, r3
 8001bb0:	0013      	movs	r3, r2
 8001bb2:	43da      	mvns	r2, r3
 8001bb4:	693b      	ldr	r3, [r7, #16]
 8001bb6:	4013      	ands	r3, r2
 8001bb8:	613b      	str	r3, [r7, #16]
        temp |= ((GPIO_Init->Alternate) << ((position & 0x07u) * GPIO_AFRL_AFSEL1_Pos));
 8001bba:	683b      	ldr	r3, [r7, #0]
 8001bbc:	691a      	ldr	r2, [r3, #16]
 8001bbe:	697b      	ldr	r3, [r7, #20]
 8001bc0:	2107      	movs	r1, #7
 8001bc2:	400b      	ands	r3, r1
 8001bc4:	009b      	lsls	r3, r3, #2
 8001bc6:	409a      	lsls	r2, r3
 8001bc8:	0013      	movs	r3, r2
 8001bca:	693a      	ldr	r2, [r7, #16]
 8001bcc:	4313      	orrs	r3, r2
 8001bce:	613b      	str	r3, [r7, #16]
        GPIOx->AFR[position >> 3u] = temp;
 8001bd0:	697b      	ldr	r3, [r7, #20]
 8001bd2:	08da      	lsrs	r2, r3, #3
 8001bd4:	687b      	ldr	r3, [r7, #4]
 8001bd6:	3208      	adds	r2, #8
 8001bd8:	0092      	lsls	r2, r2, #2
 8001bda:	6939      	ldr	r1, [r7, #16]
 8001bdc:	50d1      	str	r1, [r2, r3]
      }

      /* Configure IO Direction mode (Input, Output, Alternate or Analog) */
      temp = GPIOx->MODER;
 8001bde:	687b      	ldr	r3, [r7, #4]
 8001be0:	681b      	ldr	r3, [r3, #0]
 8001be2:	613b      	str	r3, [r7, #16]
      temp &= ~(GPIO_MODER_MODE0 << (position * GPIO_MODER_MODE1_Pos));
 8001be4:	697b      	ldr	r3, [r7, #20]
 8001be6:	005b      	lsls	r3, r3, #1
 8001be8:	2203      	movs	r2, #3
 8001bea:	409a      	lsls	r2, r3
 8001bec:	0013      	movs	r3, r2
 8001bee:	43da      	mvns	r2, r3
 8001bf0:	693b      	ldr	r3, [r7, #16]
 8001bf2:	4013      	ands	r3, r2
 8001bf4:	613b      	str	r3, [r7, #16]
      temp |= ((GPIO_Init->Mode & GPIO_MODE) << (position * GPIO_MODER_MODE1_Pos));
 8001bf6:	683b      	ldr	r3, [r7, #0]
 8001bf8:	685b      	ldr	r3, [r3, #4]
 8001bfa:	2203      	movs	r2, #3
 8001bfc:	401a      	ands	r2, r3
 8001bfe:	697b      	ldr	r3, [r7, #20]
 8001c00:	005b      	lsls	r3, r3, #1
 8001c02:	409a      	lsls	r2, r3
 8001c04:	0013      	movs	r3, r2
 8001c06:	693a      	ldr	r2, [r7, #16]
 8001c08:	4313      	orrs	r3, r2
 8001c0a:	613b      	str	r3, [r7, #16]
      GPIOx->MODER = temp;
 8001c0c:	687b      	ldr	r3, [r7, #4]
 8001c0e:	693a      	ldr	r2, [r7, #16]
 8001c10:	601a      	str	r2, [r3, #0]

      /*--------------------- EXTI Mode Configuration ------------------------*/
      /* Configure the External Interrupt or event for the current IO */
      if ((GPIO_Init->Mode & EXTI_MODE) != 0x00u)
 8001c12:	683b      	ldr	r3, [r7, #0]
 8001c14:	685a      	ldr	r2, [r3, #4]
 8001c16:	23c0      	movs	r3, #192	@ 0xc0
 8001c18:	029b      	lsls	r3, r3, #10
 8001c1a:	4013      	ands	r3, r2
 8001c1c:	d100      	bne.n	8001c20 <HAL_GPIO_Init+0x174>
 8001c1e:	e098      	b.n	8001d52 <HAL_GPIO_Init+0x2a6>
      {
        temp = EXTI->EXTICR[position >> 2u];
 8001c20:	4a53      	ldr	r2, [pc, #332]	@ (8001d70 <HAL_GPIO_Init+0x2c4>)
 8001c22:	697b      	ldr	r3, [r7, #20]
 8001c24:	089b      	lsrs	r3, r3, #2
 8001c26:	3318      	adds	r3, #24
 8001c28:	009b      	lsls	r3, r3, #2
 8001c2a:	589b      	ldr	r3, [r3, r2]
 8001c2c:	613b      	str	r3, [r7, #16]
        temp &= ~(0x0FuL << (EXTI_EXTICR1_EXTI1_Pos * (position & 0x03u)));
 8001c2e:	697b      	ldr	r3, [r7, #20]
 8001c30:	2203      	movs	r2, #3
 8001c32:	4013      	ands	r3, r2
 8001c34:	00db      	lsls	r3, r3, #3
 8001c36:	220f      	movs	r2, #15
 8001c38:	409a      	lsls	r2, r3
 8001c3a:	0013      	movs	r3, r2
 8001c3c:	43da      	mvns	r2, r3
 8001c3e:	693b      	ldr	r3, [r7, #16]
 8001c40:	4013      	ands	r3, r2
 8001c42:	613b      	str	r3, [r7, #16]
        temp |= (GPIO_GET_INDEX(GPIOx) << (EXTI_EXTICR1_EXTI1_Pos * (position & 0x03u)));
 8001c44:	687a      	ldr	r2, [r7, #4]
 8001c46:	23a0      	movs	r3, #160	@ 0xa0
 8001c48:	05db      	lsls	r3, r3, #23
 8001c4a:	429a      	cmp	r2, r3
 8001c4c:	d019      	beq.n	8001c82 <HAL_GPIO_Init+0x1d6>
 8001c4e:	687b      	ldr	r3, [r7, #4]
 8001c50:	4a48      	ldr	r2, [pc, #288]	@ (8001d74 <HAL_GPIO_Init+0x2c8>)
 8001c52:	4293      	cmp	r3, r2
 8001c54:	d013      	beq.n	8001c7e <HAL_GPIO_Init+0x1d2>
 8001c56:	687b      	ldr	r3, [r7, #4]
 8001c58:	4a47      	ldr	r2, [pc, #284]	@ (8001d78 <HAL_GPIO_Init+0x2cc>)
 8001c5a:	4293      	cmp	r3, r2
 8001c5c:	d00d      	beq.n	8001c7a <HAL_GPIO_Init+0x1ce>
 8001c5e:	687b      	ldr	r3, [r7, #4]
 8001c60:	4a46      	ldr	r2, [pc, #280]	@ (8001d7c <HAL_GPIO_Init+0x2d0>)
 8001c62:	4293      	cmp	r3, r2
 8001c64:	d007      	beq.n	8001c76 <HAL_GPIO_Init+0x1ca>
 8001c66:	687b      	ldr	r3, [r7, #4]
 8001c68:	4a45      	ldr	r2, [pc, #276]	@ (8001d80 <HAL_GPIO_Init+0x2d4>)
 8001c6a:	4293      	cmp	r3, r2
 8001c6c:	d101      	bne.n	8001c72 <HAL_GPIO_Init+0x1c6>
 8001c6e:	2305      	movs	r3, #5
 8001c70:	e008      	b.n	8001c84 <HAL_GPIO_Init+0x1d8>
 8001c72:	2306      	movs	r3, #6
 8001c74:	e006      	b.n	8001c84 <HAL_GPIO_Init+0x1d8>
 8001c76:	2303      	movs	r3, #3
 8001c78:	e004      	b.n	8001c84 <HAL_GPIO_Init+0x1d8>
 8001c7a:	2302      	movs	r3, #2
 8001c7c:	e002      	b.n	8001c84 <HAL_GPIO_Init+0x1d8>
 8001c7e:	2301      	movs	r3, #1
 8001c80:	e000      	b.n	8001c84 <HAL_GPIO_Init+0x1d8>
 8001c82:	2300      	movs	r3, #0
 8001c84:	697a      	ldr	r2, [r7, #20]
 8001c86:	2103      	movs	r1, #3
 8001c88:	400a      	ands	r2, r1
 8001c8a:	00d2      	lsls	r2, r2, #3
 8001c8c:	4093      	lsls	r3, r2
 8001c8e:	693a      	ldr	r2, [r7, #16]
 8001c90:	4313      	orrs	r3, r2
 8001c92:	613b      	str	r3, [r7, #16]
        EXTI->EXTICR[position >> 2u] = temp;
 8001c94:	4936      	ldr	r1, [pc, #216]	@ (8001d70 <HAL_GPIO_Init+0x2c4>)
 8001c96:	697b      	ldr	r3, [r7, #20]
 8001c98:	089b      	lsrs	r3, r3, #2
 8001c9a:	3318      	adds	r3, #24
 8001c9c:	009b      	lsls	r3, r3, #2
 8001c9e:	693a      	ldr	r2, [r7, #16]
 8001ca0:	505a      	str	r2, [r3, r1]

        /* Clear Rising Falling edge configuration */
        temp = EXTI->RTSR1;
 8001ca2:	4b33      	ldr	r3, [pc, #204]	@ (8001d70 <HAL_GPIO_Init+0x2c4>)
 8001ca4:	681b      	ldr	r3, [r3, #0]
 8001ca6:	613b      	str	r3, [r7, #16]
        temp &= ~(iocurrent);
 8001ca8:	68fb      	ldr	r3, [r7, #12]
 8001caa:	43da      	mvns	r2, r3
 8001cac:	693b      	ldr	r3, [r7, #16]
 8001cae:	4013      	ands	r3, r2
 8001cb0:	613b      	str	r3, [r7, #16]
        if ((GPIO_Init->Mode & TRIGGER_RISING) != 0x00u)
 8001cb2:	683b      	ldr	r3, [r7, #0]
 8001cb4:	685a      	ldr	r2, [r3, #4]
 8001cb6:	2380      	movs	r3, #128	@ 0x80
 8001cb8:	035b      	lsls	r3, r3, #13
 8001cba:	4013      	ands	r3, r2
 8001cbc:	d003      	beq.n	8001cc6 <HAL_GPIO_Init+0x21a>
        {
          temp |= iocurrent;
 8001cbe:	693a      	ldr	r2, [r7, #16]
 8001cc0:	68fb      	ldr	r3, [r7, #12]
 8001cc2:	4313      	orrs	r3, r2
 8001cc4:	613b      	str	r3, [r7, #16]
        }
        EXTI->RTSR1 = temp;
 8001cc6:	4b2a      	ldr	r3, [pc, #168]	@ (8001d70 <HAL_GPIO_Init+0x2c4>)
 8001cc8:	693a      	ldr	r2, [r7, #16]
 8001cca:	601a      	str	r2, [r3, #0]

        temp = EXTI->FTSR1;
 8001ccc:	4b28      	ldr	r3, [pc, #160]	@ (8001d70 <HAL_GPIO_Init+0x2c4>)
 8001cce:	685b      	ldr	r3, [r3, #4]
 8001cd0:	613b      	str	r3, [r7, #16]
        temp &= ~(iocurrent);
 8001cd2:	68fb      	ldr	r3, [r7, #12]
 8001cd4:	43da      	mvns	r2, r3
 8001cd6:	693b      	ldr	r3, [r7, #16]
 8001cd8:	4013      	ands	r3, r2
 8001cda:	613b      	str	r3, [r7, #16]
        if ((GPIO_Init->Mode & TRIGGER_FALLING) != 0x00u)
 8001cdc:	683b      	ldr	r3, [r7, #0]
 8001cde:	685a      	ldr	r2, [r3, #4]
 8001ce0:	2380      	movs	r3, #128	@ 0x80
 8001ce2:	039b      	lsls	r3, r3, #14
 8001ce4:	4013      	ands	r3, r2
 8001ce6:	d003      	beq.n	8001cf0 <HAL_GPIO_Init+0x244>
        {
          temp |= iocurrent;
 8001ce8:	693a      	ldr	r2, [r7, #16]
 8001cea:	68fb      	ldr	r3, [r7, #12]
 8001cec:	4313      	orrs	r3, r2
 8001cee:	613b      	str	r3, [r7, #16]
        }
        EXTI->FTSR1 = temp;
 8001cf0:	4b1f      	ldr	r3, [pc, #124]	@ (8001d70 <HAL_GPIO_Init+0x2c4>)
 8001cf2:	693a      	ldr	r2, [r7, #16]
 8001cf4:	605a      	str	r2, [r3, #4]

        /* Clear EXTI line configuration */
        temp = EXTI->EMR1;
 8001cf6:	4a1e      	ldr	r2, [pc, #120]	@ (8001d70 <HAL_GPIO_Init+0x2c4>)
 8001cf8:	2384      	movs	r3, #132	@ 0x84
 8001cfa:	58d3      	ldr	r3, [r2, r3]
 8001cfc:	613b      	str	r3, [r7, #16]
        temp &= ~(iocurrent);
 8001cfe:	68fb      	ldr	r3, [r7, #12]
 8001d00:	43da      	mvns	r2, r3
 8001d02:	693b      	ldr	r3, [r7, #16]
 8001d04:	4013      	ands	r3, r2
 8001d06:	613b      	str	r3, [r7, #16]
        if ((GPIO_Init->Mode & EXTI_EVT) != 0x00u)
 8001d08:	683b      	ldr	r3, [r7, #0]
 8001d0a:	685a      	ldr	r2, [r3, #4]
 8001d0c:	2380      	movs	r3, #128	@ 0x80
 8001d0e:	029b      	lsls	r3, r3, #10
 8001d10:	4013      	ands	r3, r2
 8001d12:	d003      	beq.n	8001d1c <HAL_GPIO_Init+0x270>
        {
          temp |= iocurrent;
 8001d14:	693a      	ldr	r2, [r7, #16]
 8001d16:	68fb      	ldr	r3, [r7, #12]
 8001d18:	4313      	orrs	r3, r2
 8001d1a:	613b      	str	r3, [r7, #16]
        }
        EXTI->EMR1 = temp;
 8001d1c:	4914      	ldr	r1, [pc, #80]	@ (8001d70 <HAL_GPIO_Init+0x2c4>)
 8001d1e:	2284      	movs	r2, #132	@ 0x84
 8001d20:	693b      	ldr	r3, [r7, #16]
 8001d22:	508b      	str	r3, [r1, r2]

        temp = EXTI->IMR1;
 8001d24:	4a12      	ldr	r2, [pc, #72]	@ (8001d70 <HAL_GPIO_Init+0x2c4>)
 8001d26:	2380      	movs	r3, #128	@ 0x80
 8001d28:	58d3      	ldr	r3, [r2, r3]
 8001d2a:	613b      	str	r3, [r7, #16]
        temp &= ~(iocurrent);
 8001d2c:	68fb      	ldr	r3, [r7, #12]
 8001d2e:	43da      	mvns	r2, r3
 8001d30:	693b      	ldr	r3, [r7, #16]
 8001d32:	4013      	ands	r3, r2
 8001d34:	613b      	str	r3, [r7, #16]
        if ((GPIO_Init->Mode & EXTI_IT) != 0x00u)
 8001d36:	683b      	ldr	r3, [r7, #0]
 8001d38:	685a      	ldr	r2, [r3, #4]
 8001d3a:	2380      	movs	r3, #128	@ 0x80
 8001d3c:	025b      	lsls	r3, r3, #9
 8001d3e:	4013      	ands	r3, r2
 8001d40:	d003      	beq.n	8001d4a <HAL_GPIO_Init+0x29e>
        {
          temp |= iocurrent;
 8001d42:	693a      	ldr	r2, [r7, #16]
 8001d44:	68fb      	ldr	r3, [r7, #12]
 8001d46:	4313      	orrs	r3, r2
 8001d48:	613b      	str	r3, [r7, #16]
        }
        EXTI->IMR1 = temp;
 8001d4a:	4909      	ldr	r1, [pc, #36]	@ (8001d70 <HAL_GPIO_Init+0x2c4>)
 8001d4c:	2280      	movs	r2, #128	@ 0x80
 8001d4e:	693b      	ldr	r3, [r7, #16]
 8001d50:	508b      	str	r3, [r1, r2]
      }
    }

    position++;
 8001d52:	697b      	ldr	r3, [r7, #20]
 8001d54:	3301      	adds	r3, #1
 8001d56:	617b      	str	r3, [r7, #20]
  while (((GPIO_Init->Pin) >> position) != 0x00u)
 8001d58:	683b      	ldr	r3, [r7, #0]
 8001d5a:	681a      	ldr	r2, [r3, #0]
 8001d5c:	697b      	ldr	r3, [r7, #20]
 8001d5e:	40da      	lsrs	r2, r3
 8001d60:	1e13      	subs	r3, r2, #0
 8001d62:	d000      	beq.n	8001d66 <HAL_GPIO_Init+0x2ba>
 8001d64:	e6aa      	b.n	8001abc <HAL_GPIO_Init+0x10>
  }
}
 8001d66:	46c0      	nop			@ (mov r8, r8)
 8001d68:	46c0      	nop			@ (mov r8, r8)
 8001d6a:	46bd      	mov	sp, r7
 8001d6c:	b006      	add	sp, #24
 8001d6e:	bd80      	pop	{r7, pc}
 8001d70:	40021800 	.word	0x40021800
 8001d74:	50000400 	.word	0x50000400
 8001d78:	50000800 	.word	0x50000800
 8001d7c:	50000c00 	.word	0x50000c00
 8001d80:	50001400 	.word	0x50001400

08001d84 <HAL_GPIO_WritePin>:
  *            @arg GPIO_PIN_RESET: to clear the port pin
  *            @arg GPIO_PIN_SET: to set the port pin
  * @retval None
  */
void HAL_GPIO_WritePin(GPIO_TypeDef *GPIOx, uint16_t GPIO_Pin, GPIO_PinState PinState)
{
 8001d84:	b580      	push	{r7, lr}
 8001d86:	b082      	sub	sp, #8
 8001d88:	af00      	add	r7, sp, #0
 8001d8a:	6078      	str	r0, [r7, #4]
 8001d8c:	0008      	movs	r0, r1
 8001d8e:	0011      	movs	r1, r2
 8001d90:	1cbb      	adds	r3, r7, #2
 8001d92:	1c02      	adds	r2, r0, #0
 8001d94:	801a      	strh	r2, [r3, #0]
 8001d96:	1c7b      	adds	r3, r7, #1
 8001d98:	1c0a      	adds	r2, r1, #0
 8001d9a:	701a      	strb	r2, [r3, #0]
  /* Check the parameters */
  assert_param(IS_GPIO_PIN(GPIO_Pin));
  assert_param(IS_GPIO_PIN_ACTION(PinState));

  if (PinState != GPIO_PIN_RESET)
 8001d9c:	1c7b      	adds	r3, r7, #1
 8001d9e:	781b      	ldrb	r3, [r3, #0]
 8001da0:	2b00      	cmp	r3, #0
 8001da2:	d004      	beq.n	8001dae <HAL_GPIO_WritePin+0x2a>
  {
    GPIOx->BSRR = (uint32_t)GPIO_Pin;
 8001da4:	1cbb      	adds	r3, r7, #2
 8001da6:	881a      	ldrh	r2, [r3, #0]
 8001da8:	687b      	ldr	r3, [r7, #4]
 8001daa:	619a      	str	r2, [r3, #24]
  }
  else
  {
    GPIOx->BRR = (uint32_t)GPIO_Pin;
  }
}
 8001dac:	e003      	b.n	8001db6 <HAL_GPIO_WritePin+0x32>
    GPIOx->BRR = (uint32_t)GPIO_Pin;
 8001dae:	1cbb      	adds	r3, r7, #2
 8001db0:	881a      	ldrh	r2, [r3, #0]
 8001db2:	687b      	ldr	r3, [r7, #4]
 8001db4:	629a      	str	r2, [r3, #40]	@ 0x28
}
 8001db6:	46c0      	nop			@ (mov r8, r8)
 8001db8:	46bd      	mov	sp, r7
 8001dba:	b002      	add	sp, #8
 8001dbc:	bd80      	pop	{r7, pc}

08001dbe <HAL_GPIO_TogglePin>:
  * @param  GPIO_Pin specifies the pin to be toggled.
  *         This parameter can be any combination of GPIO_Pin_x where x can be (0..15).
  * @retval None
  */
void HAL_GPIO_TogglePin(GPIO_TypeDef *GPIOx, uint16_t GPIO_Pin)
{
 8001dbe:	b580      	push	{r7, lr}
 8001dc0:	b084      	sub	sp, #16
 8001dc2:	af00      	add	r7, sp, #0
 8001dc4:	6078      	str	r0, [r7, #4]
 8001dc6:	000a      	movs	r2, r1
 8001dc8:	1cbb      	adds	r3, r7, #2
 8001dca:	801a      	strh	r2, [r3, #0]

  /* Check the parameters */
  assert_param(IS_GPIO_PIN(GPIO_Pin));

  /* get current Output Data Register value */
  odr = GPIOx->ODR;
 8001dcc:	687b      	ldr	r3, [r7, #4]
 8001dce:	695b      	ldr	r3, [r3, #20]
 8001dd0:	60fb      	str	r3, [r7, #12]

  /* Set selected pins that were at low level, and reset ones that were high */
  GPIOx->BSRR = ((odr & GPIO_Pin) << GPIO_NUMBER) | (~odr & GPIO_Pin);
 8001dd2:	1cbb      	adds	r3, r7, #2
 8001dd4:	881b      	ldrh	r3, [r3, #0]
 8001dd6:	68fa      	ldr	r2, [r7, #12]
 8001dd8:	4013      	ands	r3, r2
 8001dda:	041a      	lsls	r2, r3, #16
 8001ddc:	68fb      	ldr	r3, [r7, #12]
 8001dde:	43db      	mvns	r3, r3
 8001de0:	1cb9      	adds	r1, r7, #2
 8001de2:	8809      	ldrh	r1, [r1, #0]
 8001de4:	400b      	ands	r3, r1
 8001de6:	431a      	orrs	r2, r3
 8001de8:	687b      	ldr	r3, [r7, #4]
 8001dea:	619a      	str	r2, [r3, #24]
}
 8001dec:	46c0      	nop			@ (mov r8, r8)
 8001dee:	46bd      	mov	sp, r7
 8001df0:	b004      	add	sp, #16
 8001df2:	bd80      	pop	{r7, pc}

08001df4 <HAL_GPIO_EXTI_IRQHandler>:
  * @brief  Handle EXTI interrupt request.
  * @param  GPIO_Pin Specifies the port pin connected to corresponding EXTI line.
  * @retval None
  */
void HAL_GPIO_EXTI_IRQHandler(uint16_t GPIO_Pin)
{
 8001df4:	b580      	push	{r7, lr}
 8001df6:	b082      	sub	sp, #8
 8001df8:	af00      	add	r7, sp, #0
 8001dfa:	0002      	movs	r2, r0
 8001dfc:	1dbb      	adds	r3, r7, #6
 8001dfe:	801a      	strh	r2, [r3, #0]
  /* EXTI line interrupt detected */
  if (__HAL_GPIO_EXTI_GET_RISING_IT(GPIO_Pin) != 0x00u)
 8001e00:	4b10      	ldr	r3, [pc, #64]	@ (8001e44 <HAL_GPIO_EXTI_IRQHandler+0x50>)
 8001e02:	68db      	ldr	r3, [r3, #12]
 8001e04:	1dba      	adds	r2, r7, #6
 8001e06:	8812      	ldrh	r2, [r2, #0]
 8001e08:	4013      	ands	r3, r2
 8001e0a:	d008      	beq.n	8001e1e <HAL_GPIO_EXTI_IRQHandler+0x2a>
  {
    __HAL_GPIO_EXTI_CLEAR_RISING_IT(GPIO_Pin);
 8001e0c:	4b0d      	ldr	r3, [pc, #52]	@ (8001e44 <HAL_GPIO_EXTI_IRQHandler+0x50>)
 8001e0e:	1dba      	adds	r2, r7, #6
 8001e10:	8812      	ldrh	r2, [r2, #0]
 8001e12:	60da      	str	r2, [r3, #12]
    HAL_GPIO_EXTI_Rising_Callback(GPIO_Pin);
 8001e14:	1dbb      	adds	r3, r7, #6
 8001e16:	881b      	ldrh	r3, [r3, #0]
 8001e18:	0018      	movs	r0, r3
 8001e1a:	f000 f815 	bl	8001e48 <HAL_GPIO_EXTI_Rising_Callback>
  }

  if (__HAL_GPIO_EXTI_GET_FALLING_IT(GPIO_Pin) != 0x00u)
 8001e1e:	4b09      	ldr	r3, [pc, #36]	@ (8001e44 <HAL_GPIO_EXTI_IRQHandler+0x50>)
 8001e20:	691b      	ldr	r3, [r3, #16]
 8001e22:	1dba      	adds	r2, r7, #6
 8001e24:	8812      	ldrh	r2, [r2, #0]
 8001e26:	4013      	ands	r3, r2
 8001e28:	d008      	beq.n	8001e3c <HAL_GPIO_EXTI_IRQHandler+0x48>
  {
    __HAL_GPIO_EXTI_CLEAR_FALLING_IT(GPIO_Pin);
 8001e2a:	4b06      	ldr	r3, [pc, #24]	@ (8001e44 <HAL_GPIO_EXTI_IRQHandler+0x50>)
 8001e2c:	1dba      	adds	r2, r7, #6
 8001e2e:	8812      	ldrh	r2, [r2, #0]
 8001e30:	611a      	str	r2, [r3, #16]
    HAL_GPIO_EXTI_Falling_Callback(GPIO_Pin);
 8001e32:	1dbb      	adds	r3, r7, #6
 8001e34:	881b      	ldrh	r3, [r3, #0]
 8001e36:	0018      	movs	r0, r3
 8001e38:	f7ff f91a 	bl	8001070 <HAL_GPIO_EXTI_Falling_Callback>
  }
}
 8001e3c:	46c0      	nop			@ (mov r8, r8)
 8001e3e:	46bd      	mov	sp, r7
 8001e40:	b002      	add	sp, #8
 8001e42:	bd80      	pop	{r7, pc}
 8001e44:	40021800 	.word	0x40021800

08001e48 <HAL_GPIO_EXTI_Rising_Callback>:
  * @brief  EXTI line detection callback.
  * @param  GPIO_Pin Specifies the port pin connected to corresponding EXTI line.
  * @retval None
  */
__weak void HAL_GPIO_EXTI_Rising_Callback(uint16_t GPIO_Pin)
{
 8001e48:	b580      	push	{r7, lr}
 8001e4a:	b082      	sub	sp, #8
 8001e4c:	af00      	add	r7, sp, #0
 8001e4e:	0002      	movs	r2, r0
 8001e50:	1dbb      	adds	r3, r7, #6
 8001e52:	801a      	strh	r2, [r3, #0]
  UNUSED(GPIO_Pin);

  /* NOTE: This function should not be modified, when the callback is needed,
           the HAL_GPIO_EXTI_Rising_Callback could be implemented in the user file
   */
}
 8001e54:	46c0      	nop			@ (mov r8, r8)
 8001e56:	46bd      	mov	sp, r7
 8001e58:	b002      	add	sp, #8
 8001e5a:	bd80      	pop	{r7, pc}

08001e5c <HAL_LPTIM_Init>:
  *         LPTIM_InitTypeDef and initialize the associated handle.
  * @param  hlptim LPTIM handle
  * @retval HAL status
  */
HAL_StatusTypeDef HAL_LPTIM_Init(LPTIM_HandleTypeDef *hlptim)
{
 8001e5c:	b580      	push	{r7, lr}
 8001e5e:	b084      	sub	sp, #16
 8001e60:	af00      	add	r7, sp, #0
 8001e62:	6078      	str	r0, [r7, #4]
  uint32_t tmpcfgr;

  /* Check the LPTIM handle allocation */
  if (hlptim == NULL)
 8001e64:	687b      	ldr	r3, [r7, #4]
 8001e66:	2b00      	cmp	r3, #0
 8001e68:	d101      	bne.n	8001e6e <HAL_LPTIM_Init+0x12>
  {
    return HAL_ERROR;
 8001e6a:	2301      	movs	r3, #1
 8001e6c:	e139      	b.n	80020e2 <HAL_LPTIM_Init+0x286>
  }
  assert_param(IS_LPTIM_UPDATE_MODE(hlptim->Init.UpdateMode));
  assert_param(IS_LPTIM_COUNTER_SOURCE(hlptim->Init.CounterSource));
  assert_param(IS_LPTIM_REPETITION(hlptim->Init.RepetitionCounter));

  if (hlptim->State == HAL_LPTIM_STATE_RESET)
 8001e6e:	687b      	ldr	r3, [r7, #4]
 8001e70:	2252      	movs	r2, #82	@ 0x52
 8001e72:	5c9b      	ldrb	r3, [r3, r2]
 8001e74:	b2db      	uxtb	r3, r3
 8001e76:	2b00      	cmp	r3, #0
 8001e78:	d113      	bne.n	8001ea2 <HAL_LPTIM_Init+0x46>
  {
    /* Allocate lock resource and initialize it */
    hlptim->Lock = HAL_UNLOCKED;
 8001e7a:	687b      	ldr	r3, [r7, #4]
 8001e7c:	2251      	movs	r2, #81	@ 0x51
 8001e7e:	2100      	movs	r1, #0
 8001e80:	5499      	strb	r1, [r3, r2]

#if (USE_HAL_LPTIM_REGISTER_CALLBACKS == 1)
    /* Reset interrupt callbacks to legacy weak callbacks */
    LPTIM_ResetCallback(hlptim);
 8001e82:	687b      	ldr	r3, [r7, #4]
 8001e84:	0018      	movs	r0, r3
 8001e86:	f000 fce5 	bl	8002854 <LPTIM_ResetCallback>

    if (hlptim->MspInitCallback == NULL)
 8001e8a:	687b      	ldr	r3, [r7, #4]
 8001e8c:	6d9b      	ldr	r3, [r3, #88]	@ 0x58
 8001e8e:	2b00      	cmp	r3, #0
 8001e90:	d102      	bne.n	8001e98 <HAL_LPTIM_Init+0x3c>
    {
      hlptim->MspInitCallback = HAL_LPTIM_MspInit;
 8001e92:	687b      	ldr	r3, [r7, #4]
 8001e94:	4a95      	ldr	r2, [pc, #596]	@ (80020ec <HAL_LPTIM_Init+0x290>)
 8001e96:	659a      	str	r2, [r3, #88]	@ 0x58
    }

    /* Init the low level hardware : GPIO, CLOCK, NVIC */
    hlptim->MspInitCallback(hlptim);
 8001e98:	687b      	ldr	r3, [r7, #4]
 8001e9a:	6d9b      	ldr	r3, [r3, #88]	@ 0x58
 8001e9c:	687a      	ldr	r2, [r7, #4]
 8001e9e:	0010      	movs	r0, r2
 8001ea0:	4798      	blx	r3
    HAL_LPTIM_MspInit(hlptim);
#endif /* USE_HAL_LPTIM_REGISTER_CALLBACKS */
  }

  /* Change the LPTIM state */
  hlptim->State = HAL_LPTIM_STATE_BUSY;
 8001ea2:	687b      	ldr	r3, [r7, #4]
 8001ea4:	2252      	movs	r2, #82	@ 0x52
 8001ea6:	2102      	movs	r1, #2
 8001ea8:	5499      	strb	r1, [r3, r2]

  /* Enable the Peripheral */
  __HAL_LPTIM_ENABLE(hlptim);
 8001eaa:	687b      	ldr	r3, [r7, #4]
 8001eac:	681b      	ldr	r3, [r3, #0]
 8001eae:	691a      	ldr	r2, [r3, #16]
 8001eb0:	687b      	ldr	r3, [r7, #4]
 8001eb2:	681b      	ldr	r3, [r3, #0]
 8001eb4:	2101      	movs	r1, #1
 8001eb6:	430a      	orrs	r2, r1
 8001eb8:	611a      	str	r2, [r3, #16]

  /* Clear flag */
  __HAL_LPTIM_CLEAR_FLAG(hlptim, LPTIM_FLAG_REPOK);
 8001eba:	687b      	ldr	r3, [r7, #4]
 8001ebc:	681b      	ldr	r3, [r3, #0]
 8001ebe:	2280      	movs	r2, #128	@ 0x80
 8001ec0:	0052      	lsls	r2, r2, #1
 8001ec2:	605a      	str	r2, [r3, #4]

  /* Set the repetition counter */
  __HAL_LPTIM_REPETITIONCOUNTER_SET(hlptim, hlptim->Init.RepetitionCounter);
 8001ec4:	687b      	ldr	r3, [r7, #4]
 8001ec6:	681b      	ldr	r3, [r3, #0]
 8001ec8:	687a      	ldr	r2, [r7, #4]
 8001eca:	6b52      	ldr	r2, [r2, #52]	@ 0x34
 8001ecc:	629a      	str	r2, [r3, #40]	@ 0x28

  /* Wait for the completion of the write operation to the LPTIM_RCR register */
  if (LPTIM_WaitForFlag(hlptim, LPTIM_FLAG_REPOK) == HAL_TIMEOUT)
 8001ece:	2380      	movs	r3, #128	@ 0x80
 8001ed0:	005a      	lsls	r2, r3, #1
 8001ed2:	687b      	ldr	r3, [r7, #4]
 8001ed4:	0011      	movs	r1, r2
 8001ed6:	0018      	movs	r0, r3
 8001ed8:	f000 fd10 	bl	80028fc <LPTIM_WaitForFlag>
 8001edc:	0003      	movs	r3, r0
 8001ede:	2b03      	cmp	r3, #3
 8001ee0:	d101      	bne.n	8001ee6 <HAL_LPTIM_Init+0x8a>
  {
    return HAL_TIMEOUT;
 8001ee2:	2303      	movs	r3, #3
 8001ee4:	e0fd      	b.n	80020e2 <HAL_LPTIM_Init+0x286>
  }


  /* Clear flag */
  __HAL_LPTIM_CLEAR_FLAG(hlptim, LPTIM_FLAG_ARROK);
 8001ee6:	687b      	ldr	r3, [r7, #4]
 8001ee8:	681b      	ldr	r3, [r3, #0]
 8001eea:	2210      	movs	r2, #16
 8001eec:	605a      	str	r2, [r3, #4]

  /* Set LPTIM Period */
  __HAL_LPTIM_AUTORELOAD_SET(hlptim, hlptim->Init.Period);
 8001eee:	687b      	ldr	r3, [r7, #4]
 8001ef0:	681b      	ldr	r3, [r3, #0]
 8001ef2:	687a      	ldr	r2, [r7, #4]
 8001ef4:	6a12      	ldr	r2, [r2, #32]
 8001ef6:	619a      	str	r2, [r3, #24]

  /* Wait for the completion of the write operation to the LPTIM_ARR register */
  if (LPTIM_WaitForFlag(hlptim, LPTIM_FLAG_ARROK) == HAL_TIMEOUT)
 8001ef8:	687b      	ldr	r3, [r7, #4]
 8001efa:	2110      	movs	r1, #16
 8001efc:	0018      	movs	r0, r3
 8001efe:	f000 fcfd 	bl	80028fc <LPTIM_WaitForFlag>
 8001f02:	0003      	movs	r3, r0
 8001f04:	2b03      	cmp	r3, #3
 8001f06:	d101      	bne.n	8001f0c <HAL_LPTIM_Init+0xb0>
  {
    return HAL_TIMEOUT;
 8001f08:	2303      	movs	r3, #3
 8001f0a:	e0ea      	b.n	80020e2 <HAL_LPTIM_Init+0x286>
  }

  /* Disable the Peripheral */
  __HAL_LPTIM_DISABLE(hlptim);
 8001f0c:	687b      	ldr	r3, [r7, #4]
 8001f0e:	681b      	ldr	r3, [r3, #0]
 8001f10:	4a77      	ldr	r2, [pc, #476]	@ (80020f0 <HAL_LPTIM_Init+0x294>)
 8001f12:	4293      	cmp	r3, r2
 8001f14:	d004      	beq.n	8001f20 <HAL_LPTIM_Init+0xc4>
 8001f16:	687b      	ldr	r3, [r7, #4]
 8001f18:	681b      	ldr	r3, [r3, #0]
 8001f1a:	4a76      	ldr	r2, [pc, #472]	@ (80020f4 <HAL_LPTIM_Init+0x298>)
 8001f1c:	4293      	cmp	r3, r2
 8001f1e:	d101      	bne.n	8001f24 <HAL_LPTIM_Init+0xc8>
 8001f20:	2301      	movs	r3, #1
 8001f22:	e000      	b.n	8001f26 <HAL_LPTIM_Init+0xca>
 8001f24:	2300      	movs	r3, #0
 8001f26:	2b01      	cmp	r3, #1
 8001f28:	d122      	bne.n	8001f70 <HAL_LPTIM_Init+0x114>
 8001f2a:	687b      	ldr	r3, [r7, #4]
 8001f2c:	681b      	ldr	r3, [r3, #0]
 8001f2e:	6adb      	ldr	r3, [r3, #44]	@ 0x2c
 8001f30:	2202      	movs	r2, #2
 8001f32:	4013      	ands	r3, r2
 8001f34:	d149      	bne.n	8001fca <HAL_LPTIM_Init+0x16e>
 8001f36:	687b      	ldr	r3, [r7, #4]
 8001f38:	681b      	ldr	r3, [r3, #0]
 8001f3a:	6ada      	ldr	r2, [r3, #44]	@ 0x2c
 8001f3c:	2380      	movs	r3, #128	@ 0x80
 8001f3e:	029b      	lsls	r3, r3, #10
 8001f40:	4013      	ands	r3, r2
 8001f42:	d142      	bne.n	8001fca <HAL_LPTIM_Init+0x16e>
 8001f44:	687b      	ldr	r3, [r7, #4]
 8001f46:	681b      	ldr	r3, [r3, #0]
 8001f48:	6b1b      	ldr	r3, [r3, #48]	@ 0x30
 8001f4a:	2202      	movs	r2, #2
 8001f4c:	4013      	ands	r3, r2
 8001f4e:	d13c      	bne.n	8001fca <HAL_LPTIM_Init+0x16e>
 8001f50:	687b      	ldr	r3, [r7, #4]
 8001f52:	681b      	ldr	r3, [r3, #0]
 8001f54:	6b1a      	ldr	r2, [r3, #48]	@ 0x30
 8001f56:	2380      	movs	r3, #128	@ 0x80
 8001f58:	029b      	lsls	r3, r3, #10
 8001f5a:	4013      	ands	r3, r2
 8001f5c:	d135      	bne.n	8001fca <HAL_LPTIM_Init+0x16e>
 8001f5e:	687b      	ldr	r3, [r7, #4]
 8001f60:	681b      	ldr	r3, [r3, #0]
 8001f62:	691a      	ldr	r2, [r3, #16]
 8001f64:	687b      	ldr	r3, [r7, #4]
 8001f66:	681b      	ldr	r3, [r3, #0]
 8001f68:	2101      	movs	r1, #1
 8001f6a:	438a      	bics	r2, r1
 8001f6c:	611a      	str	r2, [r3, #16]
 8001f6e:	e02c      	b.n	8001fca <HAL_LPTIM_Init+0x16e>
 8001f70:	687b      	ldr	r3, [r7, #4]
 8001f72:	681b      	ldr	r3, [r3, #0]
 8001f74:	4a5e      	ldr	r2, [pc, #376]	@ (80020f0 <HAL_LPTIM_Init+0x294>)
 8001f76:	4293      	cmp	r3, r2
 8001f78:	d004      	beq.n	8001f84 <HAL_LPTIM_Init+0x128>
 8001f7a:	687b      	ldr	r3, [r7, #4]
 8001f7c:	681b      	ldr	r3, [r3, #0]
 8001f7e:	4a5d      	ldr	r2, [pc, #372]	@ (80020f4 <HAL_LPTIM_Init+0x298>)
 8001f80:	4293      	cmp	r3, r2
 8001f82:	d101      	bne.n	8001f88 <HAL_LPTIM_Init+0x12c>
 8001f84:	2301      	movs	r3, #1
 8001f86:	e000      	b.n	8001f8a <HAL_LPTIM_Init+0x12e>
 8001f88:	2300      	movs	r3, #0
 8001f8a:	2b01      	cmp	r3, #1
 8001f8c:	d115      	bne.n	8001fba <HAL_LPTIM_Init+0x15e>
 8001f8e:	687b      	ldr	r3, [r7, #4]
 8001f90:	681b      	ldr	r3, [r3, #0]
 8001f92:	6adb      	ldr	r3, [r3, #44]	@ 0x2c
 8001f94:	2202      	movs	r2, #2
 8001f96:	4013      	ands	r3, r2
 8001f98:	d117      	bne.n	8001fca <HAL_LPTIM_Init+0x16e>
 8001f9a:	687b      	ldr	r3, [r7, #4]
 8001f9c:	681b      	ldr	r3, [r3, #0]
 8001f9e:	6ada      	ldr	r2, [r3, #44]	@ 0x2c
 8001fa0:	2380      	movs	r3, #128	@ 0x80
 8001fa2:	029b      	lsls	r3, r3, #10
 8001fa4:	4013      	ands	r3, r2
 8001fa6:	d110      	bne.n	8001fca <HAL_LPTIM_Init+0x16e>
 8001fa8:	687b      	ldr	r3, [r7, #4]
 8001faa:	681b      	ldr	r3, [r3, #0]
 8001fac:	691a      	ldr	r2, [r3, #16]
 8001fae:	687b      	ldr	r3, [r7, #4]
 8001fb0:	681b      	ldr	r3, [r3, #0]
 8001fb2:	2101      	movs	r1, #1
 8001fb4:	438a      	bics	r2, r1
 8001fb6:	611a      	str	r2, [r3, #16]
 8001fb8:	e007      	b.n	8001fca <HAL_LPTIM_Init+0x16e>
 8001fba:	687b      	ldr	r3, [r7, #4]
 8001fbc:	681b      	ldr	r3, [r3, #0]
 8001fbe:	691a      	ldr	r2, [r3, #16]
 8001fc0:	687b      	ldr	r3, [r7, #4]
 8001fc2:	681b      	ldr	r3, [r3, #0]
 8001fc4:	2101      	movs	r1, #1
 8001fc6:	438a      	bics	r2, r1
 8001fc8:	611a      	str	r2, [r3, #16]

  /* Get the LPTIMx CFGR value */
  tmpcfgr = hlptim->Instance->CFGR;
 8001fca:	687b      	ldr	r3, [r7, #4]
 8001fcc:	681b      	ldr	r3, [r3, #0]
 8001fce:	68db      	ldr	r3, [r3, #12]
 8001fd0:	60fb      	str	r3, [r7, #12]

  if ((hlptim->Init.Clock.Source == LPTIM_CLOCKSOURCE_ULPTIM)
 8001fd2:	687b      	ldr	r3, [r7, #4]
 8001fd4:	685b      	ldr	r3, [r3, #4]
 8001fd6:	2b01      	cmp	r3, #1
 8001fd8:	d005      	beq.n	8001fe6 <HAL_LPTIM_Init+0x18a>
      || (hlptim->Init.CounterSource == LPTIM_COUNTERSOURCE_EXTERNAL))
 8001fda:	687b      	ldr	r3, [r7, #4]
 8001fdc:	6a9a      	ldr	r2, [r3, #40]	@ 0x28
 8001fde:	2380      	movs	r3, #128	@ 0x80
 8001fe0:	041b      	lsls	r3, r3, #16
 8001fe2:	429a      	cmp	r2, r3
 8001fe4:	d103      	bne.n	8001fee <HAL_LPTIM_Init+0x192>
  {
    tmpcfgr &= (uint32_t)(~(LPTIM_CFGR_CKPOL | LPTIM_CFGR_CKFLT));
 8001fe6:	68fb      	ldr	r3, [r7, #12]
 8001fe8:	221e      	movs	r2, #30
 8001fea:	4393      	bics	r3, r2
 8001fec:	60fb      	str	r3, [r7, #12]
  }
  if (hlptim->Init.Trigger.Source != LPTIM_TRIGSOURCE_SOFTWARE)
 8001fee:	687b      	ldr	r3, [r7, #4]
 8001ff0:	695b      	ldr	r3, [r3, #20]
 8001ff2:	4a41      	ldr	r2, [pc, #260]	@ (80020f8 <HAL_LPTIM_Init+0x29c>)
 8001ff4:	4293      	cmp	r3, r2
 8001ff6:	d003      	beq.n	8002000 <HAL_LPTIM_Init+0x1a4>
  {
    tmpcfgr &= (uint32_t)(~(LPTIM_CFGR_TRGFLT | LPTIM_CFGR_TRIGSEL));
 8001ff8:	68fb      	ldr	r3, [r7, #12]
 8001ffa:	4a40      	ldr	r2, [pc, #256]	@ (80020fc <HAL_LPTIM_Init+0x2a0>)
 8001ffc:	4013      	ands	r3, r2
 8001ffe:	60fb      	str	r3, [r7, #12]
  }

  /* Clear CKSEL, PRESC, TRIGEN, TRGFLT, WAVPOL, PRELOAD & COUNTMODE bits */
  tmpcfgr &= (uint32_t)(~(LPTIM_CFGR_CKSEL | LPTIM_CFGR_TRIGEN | LPTIM_CFGR_PRELOAD |
 8002000:	68fb      	ldr	r3, [r7, #12]
 8002002:	4a3f      	ldr	r2, [pc, #252]	@ (8002100 <HAL_LPTIM_Init+0x2a4>)
 8002004:	4013      	ands	r3, r2
 8002006:	60fb      	str	r3, [r7, #12]
                          LPTIM_CFGR_PRESC | LPTIM_CFGR_COUNTMODE));

  /* Set initialization parameters */
  tmpcfgr |= (hlptim->Init.Clock.Source    |
 8002008:	687b      	ldr	r3, [r7, #4]
 800200a:	685a      	ldr	r2, [r3, #4]
              hlptim->Init.Clock.Prescaler |
 800200c:	687b      	ldr	r3, [r7, #4]
 800200e:	689b      	ldr	r3, [r3, #8]
  tmpcfgr |= (hlptim->Init.Clock.Source    |
 8002010:	431a      	orrs	r2, r3
              hlptim->Init.UpdateMode      |
 8002012:	687b      	ldr	r3, [r7, #4]
 8002014:	6a5b      	ldr	r3, [r3, #36]	@ 0x24
              hlptim->Init.Clock.Prescaler |
 8002016:	431a      	orrs	r2, r3
              hlptim->Init.CounterSource);
 8002018:	687b      	ldr	r3, [r7, #4]
 800201a:	6a9b      	ldr	r3, [r3, #40]	@ 0x28
              hlptim->Init.UpdateMode      |
 800201c:	4313      	orrs	r3, r2
  tmpcfgr |= (hlptim->Init.Clock.Source    |
 800201e:	68fa      	ldr	r2, [r7, #12]
 8002020:	4313      	orrs	r3, r2
 8002022:	60fb      	str	r3, [r7, #12]

  /* Glitch filters for internal triggers and  external inputs are configured
   * only if an internal clock source is provided to the LPTIM
   */
  if (hlptim->Init.Clock.Source == LPTIM_CLOCKSOURCE_APBCLOCK_LPOSC)
 8002024:	687b      	ldr	r3, [r7, #4]
 8002026:	685b      	ldr	r3, [r3, #4]
 8002028:	2b00      	cmp	r3, #0
 800202a:	d107      	bne.n	800203c <HAL_LPTIM_Init+0x1e0>
  {
    tmpcfgr |= (hlptim->Init.Trigger.SampleTime |
 800202c:	687b      	ldr	r3, [r7, #4]
 800202e:	69da      	ldr	r2, [r3, #28]
                hlptim->Init.UltraLowPowerClock.SampleTime);
 8002030:	687b      	ldr	r3, [r7, #4]
 8002032:	691b      	ldr	r3, [r3, #16]
    tmpcfgr |= (hlptim->Init.Trigger.SampleTime |
 8002034:	4313      	orrs	r3, r2
 8002036:	68fa      	ldr	r2, [r7, #12]
 8002038:	4313      	orrs	r3, r2
 800203a:	60fb      	str	r3, [r7, #12]
  }

  /* Configure LPTIM external clock polarity and digital filter */
  if ((hlptim->Init.Clock.Source == LPTIM_CLOCKSOURCE_ULPTIM)
 800203c:	687b      	ldr	r3, [r7, #4]
 800203e:	685b      	ldr	r3, [r3, #4]
 8002040:	2b01      	cmp	r3, #1
 8002042:	d005      	beq.n	8002050 <HAL_LPTIM_Init+0x1f4>
      || (hlptim->Init.CounterSource == LPTIM_COUNTERSOURCE_EXTERNAL))
 8002044:	687b      	ldr	r3, [r7, #4]
 8002046:	6a9a      	ldr	r2, [r3, #40]	@ 0x28
 8002048:	2380      	movs	r3, #128	@ 0x80
 800204a:	041b      	lsls	r3, r3, #16
 800204c:	429a      	cmp	r2, r3
 800204e:	d107      	bne.n	8002060 <HAL_LPTIM_Init+0x204>
  {
    tmpcfgr |= (hlptim->Init.UltraLowPowerClock.Polarity |
 8002050:	687b      	ldr	r3, [r7, #4]
 8002052:	68da      	ldr	r2, [r3, #12]
                hlptim->Init.UltraLowPowerClock.SampleTime);
 8002054:	687b      	ldr	r3, [r7, #4]
 8002056:	691b      	ldr	r3, [r3, #16]
    tmpcfgr |= (hlptim->Init.UltraLowPowerClock.Polarity |
 8002058:	4313      	orrs	r3, r2
 800205a:	68fa      	ldr	r2, [r7, #12]
 800205c:	4313      	orrs	r3, r2
 800205e:	60fb      	str	r3, [r7, #12]
  }

  /* Configure LPTIM external trigger */
  if (hlptim->Init.Trigger.Source != LPTIM_TRIGSOURCE_SOFTWARE)
 8002060:	687b      	ldr	r3, [r7, #4]
 8002062:	695b      	ldr	r3, [r3, #20]
 8002064:	4a24      	ldr	r2, [pc, #144]	@ (80020f8 <HAL_LPTIM_Init+0x29c>)
 8002066:	4293      	cmp	r3, r2
 8002068:	d00a      	beq.n	8002080 <HAL_LPTIM_Init+0x224>
  {
    /* Enable External trigger and set the trigger source */
    tmpcfgr |= (hlptim->Init.Trigger.Source     |
 800206a:	687b      	ldr	r3, [r7, #4]
 800206c:	695a      	ldr	r2, [r3, #20]
                hlptim->Init.Trigger.ActiveEdge |
 800206e:	687b      	ldr	r3, [r7, #4]
 8002070:	699b      	ldr	r3, [r3, #24]
    tmpcfgr |= (hlptim->Init.Trigger.Source     |
 8002072:	431a      	orrs	r2, r3
                hlptim->Init.Trigger.SampleTime);
 8002074:	687b      	ldr	r3, [r7, #4]
 8002076:	69db      	ldr	r3, [r3, #28]
                hlptim->Init.Trigger.ActiveEdge |
 8002078:	4313      	orrs	r3, r2
    tmpcfgr |= (hlptim->Init.Trigger.Source     |
 800207a:	68fa      	ldr	r2, [r7, #12]
 800207c:	4313      	orrs	r3, r2
 800207e:	60fb      	str	r3, [r7, #12]
  }

  /* Write to LPTIMx CFGR */
  hlptim->Instance->CFGR = tmpcfgr;
 8002080:	687b      	ldr	r3, [r7, #4]
 8002082:	681b      	ldr	r3, [r3, #0]
 8002084:	68fa      	ldr	r2, [r7, #12]
 8002086:	60da      	str	r2, [r3, #12]

  /* Configure LPTIM input sources */
#if defined(LPTIM3)
  if ((hlptim->Instance == LPTIM1) || (hlptim->Instance == LPTIM3))
#else
  if (hlptim->Instance == LPTIM1)
 8002088:	687b      	ldr	r3, [r7, #4]
 800208a:	681b      	ldr	r3, [r3, #0]
 800208c:	4a18      	ldr	r2, [pc, #96]	@ (80020f0 <HAL_LPTIM_Init+0x294>)
 800208e:	4293      	cmp	r3, r2
 8002090:	d108      	bne.n	80020a4 <HAL_LPTIM_Init+0x248>
    /* Check LPTIM Input1 and Input2 sources */
    assert_param(IS_LPTIM_INPUT1_SOURCE(hlptim->Instance, hlptim->Init.Input1Source));
    assert_param(IS_LPTIM_INPUT2_SOURCE(hlptim->Instance, hlptim->Init.Input2Source));

    /* Configure LPTIM Input1 and Input2 sources */
    hlptim->Instance->CFGR2 = (hlptim->Init.Input1Source | hlptim->Init.Input2Source);
 8002092:	687b      	ldr	r3, [r7, #4]
 8002094:	6ad9      	ldr	r1, [r3, #44]	@ 0x2c
 8002096:	687b      	ldr	r3, [r7, #4]
 8002098:	6b1a      	ldr	r2, [r3, #48]	@ 0x30
 800209a:	687b      	ldr	r3, [r7, #4]
 800209c:	681b      	ldr	r3, [r3, #0]
 800209e:	430a      	orrs	r2, r1
 80020a0:	625a      	str	r2, [r3, #36]	@ 0x24
 80020a2:	e009      	b.n	80020b8 <HAL_LPTIM_Init+0x25c>
  }
  else
  {
    if (hlptim->Instance == LPTIM2)
 80020a4:	687b      	ldr	r3, [r7, #4]
 80020a6:	681b      	ldr	r3, [r3, #0]
 80020a8:	4a12      	ldr	r2, [pc, #72]	@ (80020f4 <HAL_LPTIM_Init+0x298>)
 80020aa:	4293      	cmp	r3, r2
 80020ac:	d104      	bne.n	80020b8 <HAL_LPTIM_Init+0x25c>
    {
      /* Check LPTIM Input1 source */
      assert_param(IS_LPTIM_INPUT1_SOURCE(hlptim->Instance, hlptim->Init.Input1Source));

      /* Configure LPTIM Input1 source */
      hlptim->Instance->CFGR2 = hlptim->Init.Input1Source;
 80020ae:	687b      	ldr	r3, [r7, #4]
 80020b0:	681b      	ldr	r3, [r3, #0]
 80020b2:	687a      	ldr	r2, [r7, #4]
 80020b4:	6ad2      	ldr	r2, [r2, #44]	@ 0x2c
 80020b6:	625a      	str	r2, [r3, #36]	@ 0x24
    }
  }

  /* Initialize the LPTIM channels state */
  LPTIM_CHANNEL_STATE_SET_ALL(hlptim, HAL_LPTIM_CHANNEL_STATE_READY);
 80020b8:	687b      	ldr	r3, [r7, #4]
 80020ba:	2253      	movs	r2, #83	@ 0x53
 80020bc:	2101      	movs	r1, #1
 80020be:	5499      	strb	r1, [r3, r2]
 80020c0:	687b      	ldr	r3, [r7, #4]
 80020c2:	2254      	movs	r2, #84	@ 0x54
 80020c4:	2101      	movs	r1, #1
 80020c6:	5499      	strb	r1, [r3, r2]
 80020c8:	687b      	ldr	r3, [r7, #4]
 80020ca:	2255      	movs	r2, #85	@ 0x55
 80020cc:	2101      	movs	r1, #1
 80020ce:	5499      	strb	r1, [r3, r2]
 80020d0:	687b      	ldr	r3, [r7, #4]
 80020d2:	2256      	movs	r2, #86	@ 0x56
 80020d4:	2101      	movs	r1, #1
 80020d6:	5499      	strb	r1, [r3, r2]

  /* Change the LPTIM state */
  hlptim->State = HAL_LPTIM_STATE_READY;
 80020d8:	687b      	ldr	r3, [r7, #4]
 80020da:	2252      	movs	r2, #82	@ 0x52
 80020dc:	2101      	movs	r1, #1
 80020de:	5499      	strb	r1, [r3, r2]

  /* Return function status */
  return HAL_OK;
 80020e0:	2300      	movs	r3, #0
}
 80020e2:	0018      	movs	r0, r3
 80020e4:	46bd      	mov	sp, r7
 80020e6:	b004      	add	sp, #16
 80020e8:	bd80      	pop	{r7, pc}
 80020ea:	46c0      	nop			@ (mov r8, r8)
 80020ec:	0800115d 	.word	0x0800115d
 80020f0:	40007c00 	.word	0x40007c00
 80020f4:	40009400 	.word	0x40009400
 80020f8:	0000ffff 	.word	0x0000ffff
 80020fc:	ffff1f3f 	.word	0xffff1f3f
 8002100:	ff39f1fe 	.word	0xff39f1fe

08002104 <HAL_LPTIM_Counter_Start_IT>:
  * @brief  Start the Counter mode in interrupt mode.
  * @param  hlptim LPTIM handle
  * @retval HAL status
  */
HAL_StatusTypeDef HAL_LPTIM_Counter_Start_IT(LPTIM_HandleTypeDef *hlptim)
{
 8002104:	b580      	push	{r7, lr}
 8002106:	b082      	sub	sp, #8
 8002108:	af00      	add	r7, sp, #0
 800210a:	6078      	str	r0, [r7, #4]
  /* Check the parameters */
  assert_param(IS_LPTIM_INSTANCE(hlptim->Instance));

  /* Set the LPTIM state */
  hlptim->State = HAL_LPTIM_STATE_BUSY;
 800210c:	687b      	ldr	r3, [r7, #4]
 800210e:	2252      	movs	r2, #82	@ 0x52
 8002110:	2102      	movs	r1, #2
 8002112:	5499      	strb	r1, [r3, r2]

  /* If clock source is not ULPTIM clock and counter source is external, then it must not be prescaled */
  if ((hlptim->Init.Clock.Source != LPTIM_CLOCKSOURCE_ULPTIM)
 8002114:	687b      	ldr	r3, [r7, #4]
 8002116:	685b      	ldr	r3, [r3, #4]
 8002118:	2b01      	cmp	r3, #1
 800211a:	d00d      	beq.n	8002138 <HAL_LPTIM_Counter_Start_IT+0x34>
      && (hlptim->Init.CounterSource == LPTIM_COUNTERSOURCE_EXTERNAL))
 800211c:	687b      	ldr	r3, [r7, #4]
 800211e:	6a9a      	ldr	r2, [r3, #40]	@ 0x28
 8002120:	2380      	movs	r3, #128	@ 0x80
 8002122:	041b      	lsls	r3, r3, #16
 8002124:	429a      	cmp	r2, r3
 8002126:	d107      	bne.n	8002138 <HAL_LPTIM_Counter_Start_IT+0x34>
  {
    /* Check if clock is prescaled */
    assert_param(IS_LPTIM_CLOCK_PRESCALERDIV1(hlptim->Init.Clock.Prescaler));
    /* Set clock prescaler to 0 */
    hlptim->Instance->CFGR &= ~LPTIM_CFGR_PRESC;
 8002128:	687b      	ldr	r3, [r7, #4]
 800212a:	681b      	ldr	r3, [r3, #0]
 800212c:	68da      	ldr	r2, [r3, #12]
 800212e:	687b      	ldr	r3, [r7, #4]
 8002130:	681b      	ldr	r3, [r3, #0]
 8002132:	491b      	ldr	r1, [pc, #108]	@ (80021a0 <HAL_LPTIM_Counter_Start_IT+0x9c>)
 8002134:	400a      	ands	r2, r1
 8002136:	60da      	str	r2, [r3, #12]
  }

  /* Enable the Peripheral */
  __HAL_LPTIM_ENABLE(hlptim);
 8002138:	687b      	ldr	r3, [r7, #4]
 800213a:	681b      	ldr	r3, [r3, #0]
 800213c:	691a      	ldr	r2, [r3, #16]
 800213e:	687b      	ldr	r3, [r7, #4]
 8002140:	681b      	ldr	r3, [r3, #0]
 8002142:	2101      	movs	r1, #1
 8002144:	430a      	orrs	r2, r1
 8002146:	611a      	str	r2, [r3, #16]

  /* Clear flag */
  __HAL_LPTIM_CLEAR_FLAG(hlptim, LPTIM_FLAG_DIEROK);
 8002148:	687b      	ldr	r3, [r7, #4]
 800214a:	681b      	ldr	r3, [r3, #0]
 800214c:	2280      	movs	r2, #128	@ 0x80
 800214e:	0452      	lsls	r2, r2, #17
 8002150:	605a      	str	r2, [r3, #4]

  /* Enable interrupt */
  __HAL_LPTIM_ENABLE_IT(hlptim, LPTIM_IT_ARROK | LPTIM_IT_ARRM | LPTIM_IT_REPOK | LPTIM_IT_UPDATE);
 8002152:	687b      	ldr	r3, [r7, #4]
 8002154:	681b      	ldr	r3, [r3, #0]
 8002156:	689a      	ldr	r2, [r3, #8]
 8002158:	687b      	ldr	r3, [r7, #4]
 800215a:	681b      	ldr	r3, [r3, #0]
 800215c:	21c9      	movs	r1, #201	@ 0xc9
 800215e:	0049      	lsls	r1, r1, #1
 8002160:	430a      	orrs	r2, r1
 8002162:	609a      	str	r2, [r3, #8]

  /* Wait for the completion of the write operation to the LPTIM_DIER register */
  if (LPTIM_WaitForFlag(hlptim, LPTIM_FLAG_DIEROK) == HAL_TIMEOUT)
 8002164:	2380      	movs	r3, #128	@ 0x80
 8002166:	045a      	lsls	r2, r3, #17
 8002168:	687b      	ldr	r3, [r7, #4]
 800216a:	0011      	movs	r1, r2
 800216c:	0018      	movs	r0, r3
 800216e:	f000 fbc5 	bl	80028fc <LPTIM_WaitForFlag>
 8002172:	0003      	movs	r3, r0
 8002174:	2b03      	cmp	r3, #3
 8002176:	d101      	bne.n	800217c <HAL_LPTIM_Counter_Start_IT+0x78>
  {
    return HAL_TIMEOUT;
 8002178:	2303      	movs	r3, #3
 800217a:	e00c      	b.n	8002196 <HAL_LPTIM_Counter_Start_IT+0x92>
  }

  /* Start timer in continuous mode */
  __HAL_LPTIM_START_CONTINUOUS(hlptim);
 800217c:	687b      	ldr	r3, [r7, #4]
 800217e:	681b      	ldr	r3, [r3, #0]
 8002180:	691a      	ldr	r2, [r3, #16]
 8002182:	687b      	ldr	r3, [r7, #4]
 8002184:	681b      	ldr	r3, [r3, #0]
 8002186:	2104      	movs	r1, #4
 8002188:	430a      	orrs	r2, r1
 800218a:	611a      	str	r2, [r3, #16]

  /* Change the LPTIM state */
  hlptim->State = HAL_LPTIM_STATE_READY;
 800218c:	687b      	ldr	r3, [r7, #4]
 800218e:	2252      	movs	r2, #82	@ 0x52
 8002190:	2101      	movs	r1, #1
 8002192:	5499      	strb	r1, [r3, r2]

  /* Return function status */
  return HAL_OK;
 8002194:	2300      	movs	r3, #0
}
 8002196:	0018      	movs	r0, r3
 8002198:	46bd      	mov	sp, r7
 800219a:	b002      	add	sp, #8
 800219c:	bd80      	pop	{r7, pc}
 800219e:	46c0      	nop			@ (mov r8, r8)
 80021a0:	fffff1ff 	.word	0xfffff1ff

080021a4 <HAL_LPTIM_IRQHandler>:
  * @brief  Handle LPTIM interrupt request.
  * @param  hlptim LPTIM handle
  * @retval None
  */
void HAL_LPTIM_IRQHandler(LPTIM_HandleTypeDef *hlptim)
{
 80021a4:	b580      	push	{r7, lr}
 80021a6:	b082      	sub	sp, #8
 80021a8:	af00      	add	r7, sp, #0
 80021aa:	6078      	str	r0, [r7, #4]
  /* Capture Compare 1 interrupt */
  if (__HAL_LPTIM_GET_FLAG(hlptim, LPTIM_FLAG_CC1) != RESET)
 80021ac:	687b      	ldr	r3, [r7, #4]
 80021ae:	681b      	ldr	r3, [r3, #0]
 80021b0:	681b      	ldr	r3, [r3, #0]
 80021b2:	2201      	movs	r2, #1
 80021b4:	4013      	ands	r3, r2
 80021b6:	2b01      	cmp	r3, #1
 80021b8:	d124      	bne.n	8002204 <HAL_LPTIM_IRQHandler+0x60>
  {
    if (__HAL_LPTIM_GET_IT_SOURCE(hlptim, LPTIM_FLAG_CC1) != RESET)
 80021ba:	687b      	ldr	r3, [r7, #4]
 80021bc:	681b      	ldr	r3, [r3, #0]
 80021be:	689b      	ldr	r3, [r3, #8]
 80021c0:	2201      	movs	r2, #1
 80021c2:	4013      	ands	r3, r2
 80021c4:	2b01      	cmp	r3, #1
 80021c6:	d11d      	bne.n	8002204 <HAL_LPTIM_IRQHandler+0x60>
    {
      __HAL_LPTIM_CLEAR_FLAG(hlptim, LPTIM_FLAG_CC1);
 80021c8:	687b      	ldr	r3, [r7, #4]
 80021ca:	681b      	ldr	r3, [r3, #0]
 80021cc:	2201      	movs	r2, #1
 80021ce:	605a      	str	r2, [r3, #4]
      hlptim->Channel = HAL_LPTIM_ACTIVE_CHANNEL_1;
 80021d0:	687b      	ldr	r3, [r7, #4]
 80021d2:	2238      	movs	r2, #56	@ 0x38
 80021d4:	2101      	movs	r1, #1
 80021d6:	5499      	strb	r1, [r3, r2]

      /* Input capture event */
      if ((hlptim->Instance->CCMR1 & LPTIM_CCMR1_CC1SEL) != 0x00U)
 80021d8:	687b      	ldr	r3, [r7, #4]
 80021da:	681b      	ldr	r3, [r3, #0]
 80021dc:	6adb      	ldr	r3, [r3, #44]	@ 0x2c
 80021de:	2201      	movs	r2, #1
 80021e0:	4013      	ands	r3, r2
 80021e2:	d006      	beq.n	80021f2 <HAL_LPTIM_IRQHandler+0x4e>
      {
#if (USE_HAL_LPTIM_REGISTER_CALLBACKS == 1)
        hlptim->IC_CaptureCallback(hlptim);
 80021e4:	687b      	ldr	r3, [r7, #4]
 80021e6:	228c      	movs	r2, #140	@ 0x8c
 80021e8:	589b      	ldr	r3, [r3, r2]
 80021ea:	687a      	ldr	r2, [r7, #4]
 80021ec:	0010      	movs	r0, r2
 80021ee:	4798      	blx	r3
 80021f0:	e004      	b.n	80021fc <HAL_LPTIM_IRQHandler+0x58>
      }
      /* Output compare event */
      else
      {
#if (USE_HAL_LPTIM_REGISTER_CALLBACKS == 1)
        hlptim->CompareMatchCallback(hlptim);
 80021f2:	687b      	ldr	r3, [r7, #4]
 80021f4:	6e1b      	ldr	r3, [r3, #96]	@ 0x60
 80021f6:	687a      	ldr	r2, [r7, #4]
 80021f8:	0010      	movs	r0, r2
 80021fa:	4798      	blx	r3
#else
        HAL_LPTIM_CompareMatchCallback(hlptim);
#endif /* USE_HAL_LPTIM_REGISTER_CALLBACKS */
      }
      hlptim->Channel = HAL_LPTIM_ACTIVE_CHANNEL_CLEARED;
 80021fc:	687b      	ldr	r3, [r7, #4]
 80021fe:	2238      	movs	r2, #56	@ 0x38
 8002200:	2100      	movs	r1, #0
 8002202:	5499      	strb	r1, [r3, r2]
    }
  }

  /* Capture Compare 2 interrupt */
  if (__HAL_LPTIM_GET_FLAG(hlptim, LPTIM_FLAG_CC2) != RESET)
 8002204:	687b      	ldr	r3, [r7, #4]
 8002206:	681b      	ldr	r3, [r3, #0]
 8002208:	681a      	ldr	r2, [r3, #0]
 800220a:	2380      	movs	r3, #128	@ 0x80
 800220c:	009b      	lsls	r3, r3, #2
 800220e:	401a      	ands	r2, r3
 8002210:	2380      	movs	r3, #128	@ 0x80
 8002212:	009b      	lsls	r3, r3, #2
 8002214:	429a      	cmp	r2, r3
 8002216:	d129      	bne.n	800226c <HAL_LPTIM_IRQHandler+0xc8>
  {
    if (__HAL_LPTIM_GET_IT_SOURCE(hlptim, LPTIM_FLAG_CC2) != RESET)
 8002218:	687b      	ldr	r3, [r7, #4]
 800221a:	681b      	ldr	r3, [r3, #0]
 800221c:	689a      	ldr	r2, [r3, #8]
 800221e:	2380      	movs	r3, #128	@ 0x80
 8002220:	009b      	lsls	r3, r3, #2
 8002222:	401a      	ands	r2, r3
 8002224:	2380      	movs	r3, #128	@ 0x80
 8002226:	009b      	lsls	r3, r3, #2
 8002228:	429a      	cmp	r2, r3
 800222a:	d11f      	bne.n	800226c <HAL_LPTIM_IRQHandler+0xc8>
    {
      __HAL_LPTIM_CLEAR_FLAG(hlptim, LPTIM_FLAG_CC2);
 800222c:	687b      	ldr	r3, [r7, #4]
 800222e:	681b      	ldr	r3, [r3, #0]
 8002230:	2280      	movs	r2, #128	@ 0x80
 8002232:	0092      	lsls	r2, r2, #2
 8002234:	605a      	str	r2, [r3, #4]
      hlptim->Channel = HAL_LPTIM_ACTIVE_CHANNEL_2;
 8002236:	687b      	ldr	r3, [r7, #4]
 8002238:	2238      	movs	r2, #56	@ 0x38
 800223a:	2102      	movs	r1, #2
 800223c:	5499      	strb	r1, [r3, r2]

      /* Input capture event */
      if ((hlptim->Instance->CCMR1 & LPTIM_CCMR1_CC2SEL) != 0x00U)
 800223e:	687b      	ldr	r3, [r7, #4]
 8002240:	681b      	ldr	r3, [r3, #0]
 8002242:	6ada      	ldr	r2, [r3, #44]	@ 0x2c
 8002244:	2380      	movs	r3, #128	@ 0x80
 8002246:	025b      	lsls	r3, r3, #9
 8002248:	4013      	ands	r3, r2
 800224a:	d006      	beq.n	800225a <HAL_LPTIM_IRQHandler+0xb6>
      {
#if (USE_HAL_LPTIM_REGISTER_CALLBACKS == 1)
        hlptim->IC_CaptureCallback(hlptim);
 800224c:	687b      	ldr	r3, [r7, #4]
 800224e:	228c      	movs	r2, #140	@ 0x8c
 8002250:	589b      	ldr	r3, [r3, r2]
 8002252:	687a      	ldr	r2, [r7, #4]
 8002254:	0010      	movs	r0, r2
 8002256:	4798      	blx	r3
 8002258:	e004      	b.n	8002264 <HAL_LPTIM_IRQHandler+0xc0>
      }
      /* Output compare event */
      else
      {
#if (USE_HAL_LPTIM_REGISTER_CALLBACKS == 1)
        hlptim->CompareMatchCallback(hlptim);
 800225a:	687b      	ldr	r3, [r7, #4]
 800225c:	6e1b      	ldr	r3, [r3, #96]	@ 0x60
 800225e:	687a      	ldr	r2, [r7, #4]
 8002260:	0010      	movs	r0, r2
 8002262:	4798      	blx	r3
#else
        HAL_LPTIM_CompareMatchCallback(hlptim);
#endif /* USE_HAL_LPTIM_REGISTER_CALLBACKS */
      }
      hlptim->Channel = HAL_LPTIM_ACTIVE_CHANNEL_CLEARED;
 8002264:	687b      	ldr	r3, [r7, #4]
 8002266:	2238      	movs	r2, #56	@ 0x38
 8002268:	2100      	movs	r1, #0
 800226a:	5499      	strb	r1, [r3, r2]
    }
  }

  /* Capture Compare 3 interrupt */
  if (__HAL_LPTIM_GET_FLAG(hlptim, LPTIM_FLAG_CC3) != RESET)
 800226c:	687b      	ldr	r3, [r7, #4]
 800226e:	681b      	ldr	r3, [r3, #0]
 8002270:	681a      	ldr	r2, [r3, #0]
 8002272:	2380      	movs	r3, #128	@ 0x80
 8002274:	00db      	lsls	r3, r3, #3
 8002276:	401a      	ands	r2, r3
 8002278:	2380      	movs	r3, #128	@ 0x80
 800227a:	00db      	lsls	r3, r3, #3
 800227c:	429a      	cmp	r2, r3
 800227e:	d128      	bne.n	80022d2 <HAL_LPTIM_IRQHandler+0x12e>
  {
    if (__HAL_LPTIM_GET_IT_SOURCE(hlptim, LPTIM_FLAG_CC3) != RESET)
 8002280:	687b      	ldr	r3, [r7, #4]
 8002282:	681b      	ldr	r3, [r3, #0]
 8002284:	689a      	ldr	r2, [r3, #8]
 8002286:	2380      	movs	r3, #128	@ 0x80
 8002288:	00db      	lsls	r3, r3, #3
 800228a:	401a      	ands	r2, r3
 800228c:	2380      	movs	r3, #128	@ 0x80
 800228e:	00db      	lsls	r3, r3, #3
 8002290:	429a      	cmp	r2, r3
 8002292:	d11e      	bne.n	80022d2 <HAL_LPTIM_IRQHandler+0x12e>
    {
      __HAL_LPTIM_CLEAR_FLAG(hlptim, LPTIM_FLAG_CC3);
 8002294:	687b      	ldr	r3, [r7, #4]
 8002296:	681b      	ldr	r3, [r3, #0]
 8002298:	2280      	movs	r2, #128	@ 0x80
 800229a:	00d2      	lsls	r2, r2, #3
 800229c:	605a      	str	r2, [r3, #4]
      hlptim->Channel = HAL_LPTIM_ACTIVE_CHANNEL_3;
 800229e:	687b      	ldr	r3, [r7, #4]
 80022a0:	2238      	movs	r2, #56	@ 0x38
 80022a2:	2104      	movs	r1, #4
 80022a4:	5499      	strb	r1, [r3, r2]

      /* Input capture event */
      if ((hlptim->Instance->CCMR2 & LPTIM_CCMR2_CC3SEL) != 0x00U)
 80022a6:	687b      	ldr	r3, [r7, #4]
 80022a8:	681b      	ldr	r3, [r3, #0]
 80022aa:	6b1b      	ldr	r3, [r3, #48]	@ 0x30
 80022ac:	2201      	movs	r2, #1
 80022ae:	4013      	ands	r3, r2
 80022b0:	d006      	beq.n	80022c0 <HAL_LPTIM_IRQHandler+0x11c>
      {
#if (USE_HAL_LPTIM_REGISTER_CALLBACKS == 1)
        hlptim->IC_CaptureCallback(hlptim);
 80022b2:	687b      	ldr	r3, [r7, #4]
 80022b4:	228c      	movs	r2, #140	@ 0x8c
 80022b6:	589b      	ldr	r3, [r3, r2]
 80022b8:	687a      	ldr	r2, [r7, #4]
 80022ba:	0010      	movs	r0, r2
 80022bc:	4798      	blx	r3
 80022be:	e004      	b.n	80022ca <HAL_LPTIM_IRQHandler+0x126>
      }
      /* Output compare event */
      else
      {
#if (USE_HAL_LPTIM_REGISTER_CALLBACKS == 1)
        hlptim->CompareMatchCallback(hlptim);
 80022c0:	687b      	ldr	r3, [r7, #4]
 80022c2:	6e1b      	ldr	r3, [r3, #96]	@ 0x60
 80022c4:	687a      	ldr	r2, [r7, #4]
 80022c6:	0010      	movs	r0, r2
 80022c8:	4798      	blx	r3
#else
        HAL_LPTIM_CompareMatchCallback(hlptim);
#endif /* USE_HAL_LPTIM_REGISTER_CALLBACKS */
      }
      hlptim->Channel = HAL_LPTIM_ACTIVE_CHANNEL_CLEARED;
 80022ca:	687b      	ldr	r3, [r7, #4]
 80022cc:	2238      	movs	r2, #56	@ 0x38
 80022ce:	2100      	movs	r1, #0
 80022d0:	5499      	strb	r1, [r3, r2]
    }
  }

  /* Capture Compare 4 interrupt */
  if (__HAL_LPTIM_GET_FLAG(hlptim, LPTIM_FLAG_CC4) != RESET)
 80022d2:	687b      	ldr	r3, [r7, #4]
 80022d4:	681b      	ldr	r3, [r3, #0]
 80022d6:	681a      	ldr	r2, [r3, #0]
 80022d8:	2380      	movs	r3, #128	@ 0x80
 80022da:	011b      	lsls	r3, r3, #4
 80022dc:	401a      	ands	r2, r3
 80022de:	2380      	movs	r3, #128	@ 0x80
 80022e0:	011b      	lsls	r3, r3, #4
 80022e2:	429a      	cmp	r2, r3
 80022e4:	d129      	bne.n	800233a <HAL_LPTIM_IRQHandler+0x196>
  {
    if (__HAL_LPTIM_GET_IT_SOURCE(hlptim, LPTIM_FLAG_CC4) != RESET)
 80022e6:	687b      	ldr	r3, [r7, #4]
 80022e8:	681b      	ldr	r3, [r3, #0]
 80022ea:	689a      	ldr	r2, [r3, #8]
 80022ec:	2380      	movs	r3, #128	@ 0x80
 80022ee:	011b      	lsls	r3, r3, #4
 80022f0:	401a      	ands	r2, r3
 80022f2:	2380      	movs	r3, #128	@ 0x80
 80022f4:	011b      	lsls	r3, r3, #4
 80022f6:	429a      	cmp	r2, r3
 80022f8:	d11f      	bne.n	800233a <HAL_LPTIM_IRQHandler+0x196>
    {
      __HAL_LPTIM_CLEAR_FLAG(hlptim, LPTIM_FLAG_CC4);
 80022fa:	687b      	ldr	r3, [r7, #4]
 80022fc:	681b      	ldr	r3, [r3, #0]
 80022fe:	2280      	movs	r2, #128	@ 0x80
 8002300:	0112      	lsls	r2, r2, #4
 8002302:	605a      	str	r2, [r3, #4]
      hlptim->Channel = HAL_LPTIM_ACTIVE_CHANNEL_4;
 8002304:	687b      	ldr	r3, [r7, #4]
 8002306:	2238      	movs	r2, #56	@ 0x38
 8002308:	2108      	movs	r1, #8
 800230a:	5499      	strb	r1, [r3, r2]

      /* Input capture event */
      if ((hlptim->Instance->CCMR2 & LPTIM_CCMR2_CC4SEL) != 0x00U)
 800230c:	687b      	ldr	r3, [r7, #4]
 800230e:	681b      	ldr	r3, [r3, #0]
 8002310:	6b1a      	ldr	r2, [r3, #48]	@ 0x30
 8002312:	2380      	movs	r3, #128	@ 0x80
 8002314:	025b      	lsls	r3, r3, #9
 8002316:	4013      	ands	r3, r2
 8002318:	d006      	beq.n	8002328 <HAL_LPTIM_IRQHandler+0x184>
      {
#if (USE_HAL_LPTIM_REGISTER_CALLBACKS == 1)
        hlptim->IC_CaptureCallback(hlptim);
 800231a:	687b      	ldr	r3, [r7, #4]
 800231c:	228c      	movs	r2, #140	@ 0x8c
 800231e:	589b      	ldr	r3, [r3, r2]
 8002320:	687a      	ldr	r2, [r7, #4]
 8002322:	0010      	movs	r0, r2
 8002324:	4798      	blx	r3
 8002326:	e004      	b.n	8002332 <HAL_LPTIM_IRQHandler+0x18e>
      }
      /* Output compare event */
      else
      {
#if (USE_HAL_LPTIM_REGISTER_CALLBACKS == 1)
        hlptim->CompareMatchCallback(hlptim);
 8002328:	687b      	ldr	r3, [r7, #4]
 800232a:	6e1b      	ldr	r3, [r3, #96]	@ 0x60
 800232c:	687a      	ldr	r2, [r7, #4]
 800232e:	0010      	movs	r0, r2
 8002330:	4798      	blx	r3
#else
        HAL_LPTIM_CompareMatchCallback(hlptim);
#endif /* USE_HAL_LPTIM_REGISTER_CALLBACKS */
      }
      hlptim->Channel = HAL_LPTIM_ACTIVE_CHANNEL_CLEARED;
 8002332:	687b      	ldr	r3, [r7, #4]
 8002334:	2238      	movs	r2, #56	@ 0x38
 8002336:	2100      	movs	r1, #0
 8002338:	5499      	strb	r1, [r3, r2]
    }
  }

  /* Over Capture 1 interrupt */
  if (__HAL_LPTIM_GET_FLAG(hlptim, LPTIM_FLAG_CC1O) != RESET)
 800233a:	687b      	ldr	r3, [r7, #4]
 800233c:	681b      	ldr	r3, [r3, #0]
 800233e:	681a      	ldr	r2, [r3, #0]
 8002340:	2380      	movs	r3, #128	@ 0x80
 8002342:	015b      	lsls	r3, r3, #5
 8002344:	401a      	ands	r2, r3
 8002346:	2380      	movs	r3, #128	@ 0x80
 8002348:	015b      	lsls	r3, r3, #5
 800234a:	429a      	cmp	r2, r3
 800234c:	d11c      	bne.n	8002388 <HAL_LPTIM_IRQHandler+0x1e4>
  {
    if (__HAL_LPTIM_GET_IT_SOURCE(hlptim, LPTIM_FLAG_CC1O) != RESET)
 800234e:	687b      	ldr	r3, [r7, #4]
 8002350:	681b      	ldr	r3, [r3, #0]
 8002352:	689a      	ldr	r2, [r3, #8]
 8002354:	2380      	movs	r3, #128	@ 0x80
 8002356:	015b      	lsls	r3, r3, #5
 8002358:	401a      	ands	r2, r3
 800235a:	2380      	movs	r3, #128	@ 0x80
 800235c:	015b      	lsls	r3, r3, #5
 800235e:	429a      	cmp	r2, r3
 8002360:	d112      	bne.n	8002388 <HAL_LPTIM_IRQHandler+0x1e4>
    {
      __HAL_LPTIM_CLEAR_FLAG(hlptim, LPTIM_FLAG_CC1O);
 8002362:	687b      	ldr	r3, [r7, #4]
 8002364:	681b      	ldr	r3, [r3, #0]
 8002366:	2280      	movs	r2, #128	@ 0x80
 8002368:	0152      	lsls	r2, r2, #5
 800236a:	605a      	str	r2, [r3, #4]
      hlptim->Channel = HAL_LPTIM_ACTIVE_CHANNEL_1;
 800236c:	687b      	ldr	r3, [r7, #4]
 800236e:	2238      	movs	r2, #56	@ 0x38
 8002370:	2101      	movs	r1, #1
 8002372:	5499      	strb	r1, [r3, r2]

      /* Over capture event */
#if (USE_HAL_LPTIM_REGISTER_CALLBACKS == 1)
      hlptim->IC_OverCaptureCallback(hlptim);
 8002374:	687b      	ldr	r3, [r7, #4]
 8002376:	2294      	movs	r2, #148	@ 0x94
 8002378:	589b      	ldr	r3, [r3, r2]
 800237a:	687a      	ldr	r2, [r7, #4]
 800237c:	0010      	movs	r0, r2
 800237e:	4798      	blx	r3
#else
      HAL_LPTIM_IC_OverCaptureCallback(hlptim);
#endif /* USE_HAL_LPTIM_REGISTER_CALLBACKS */
      hlptim->Channel = HAL_LPTIM_ACTIVE_CHANNEL_CLEARED;
 8002380:	687b      	ldr	r3, [r7, #4]
 8002382:	2238      	movs	r2, #56	@ 0x38
 8002384:	2100      	movs	r1, #0
 8002386:	5499      	strb	r1, [r3, r2]
    }
  }

  /* Over Capture 2 interrupt */
  if (__HAL_LPTIM_GET_FLAG(hlptim, LPTIM_FLAG_CC2O) != RESET)
 8002388:	687b      	ldr	r3, [r7, #4]
 800238a:	681b      	ldr	r3, [r3, #0]
 800238c:	681a      	ldr	r2, [r3, #0]
 800238e:	2380      	movs	r3, #128	@ 0x80
 8002390:	019b      	lsls	r3, r3, #6
 8002392:	401a      	ands	r2, r3
 8002394:	2380      	movs	r3, #128	@ 0x80
 8002396:	019b      	lsls	r3, r3, #6
 8002398:	429a      	cmp	r2, r3
 800239a:	d11c      	bne.n	80023d6 <HAL_LPTIM_IRQHandler+0x232>
  {
    if (__HAL_LPTIM_GET_IT_SOURCE(hlptim, LPTIM_FLAG_CC2O) != RESET)
 800239c:	687b      	ldr	r3, [r7, #4]
 800239e:	681b      	ldr	r3, [r3, #0]
 80023a0:	689a      	ldr	r2, [r3, #8]
 80023a2:	2380      	movs	r3, #128	@ 0x80
 80023a4:	019b      	lsls	r3, r3, #6
 80023a6:	401a      	ands	r2, r3
 80023a8:	2380      	movs	r3, #128	@ 0x80
 80023aa:	019b      	lsls	r3, r3, #6
 80023ac:	429a      	cmp	r2, r3
 80023ae:	d112      	bne.n	80023d6 <HAL_LPTIM_IRQHandler+0x232>
    {
      __HAL_LPTIM_CLEAR_FLAG(hlptim, LPTIM_FLAG_CC2O);
 80023b0:	687b      	ldr	r3, [r7, #4]
 80023b2:	681b      	ldr	r3, [r3, #0]
 80023b4:	2280      	movs	r2, #128	@ 0x80
 80023b6:	0192      	lsls	r2, r2, #6
 80023b8:	605a      	str	r2, [r3, #4]
      hlptim->Channel = HAL_LPTIM_ACTIVE_CHANNEL_2;
 80023ba:	687b      	ldr	r3, [r7, #4]
 80023bc:	2238      	movs	r2, #56	@ 0x38
 80023be:	2102      	movs	r1, #2
 80023c0:	5499      	strb	r1, [r3, r2]

      /* Over capture event */
#if (USE_HAL_LPTIM_REGISTER_CALLBACKS == 1)
      hlptim->IC_OverCaptureCallback(hlptim);
 80023c2:	687b      	ldr	r3, [r7, #4]
 80023c4:	2294      	movs	r2, #148	@ 0x94
 80023c6:	589b      	ldr	r3, [r3, r2]
 80023c8:	687a      	ldr	r2, [r7, #4]
 80023ca:	0010      	movs	r0, r2
 80023cc:	4798      	blx	r3
#else
      HAL_LPTIM_IC_OverCaptureCallback(hlptim);
#endif /* USE_HAL_LPTIM_REGISTER_CALLBACKS */
      hlptim->Channel = HAL_LPTIM_ACTIVE_CHANNEL_CLEARED;
 80023ce:	687b      	ldr	r3, [r7, #4]
 80023d0:	2238      	movs	r2, #56	@ 0x38
 80023d2:	2100      	movs	r1, #0
 80023d4:	5499      	strb	r1, [r3, r2]
    }
  }

  /* Over Capture 3 interrupt */
  if (__HAL_LPTIM_GET_FLAG(hlptim, LPTIM_FLAG_CC3O) != RESET)
 80023d6:	687b      	ldr	r3, [r7, #4]
 80023d8:	681b      	ldr	r3, [r3, #0]
 80023da:	681a      	ldr	r2, [r3, #0]
 80023dc:	2380      	movs	r3, #128	@ 0x80
 80023de:	01db      	lsls	r3, r3, #7
 80023e0:	401a      	ands	r2, r3
 80023e2:	2380      	movs	r3, #128	@ 0x80
 80023e4:	01db      	lsls	r3, r3, #7
 80023e6:	429a      	cmp	r2, r3
 80023e8:	d11c      	bne.n	8002424 <HAL_LPTIM_IRQHandler+0x280>
  {
    if (__HAL_LPTIM_GET_IT_SOURCE(hlptim, LPTIM_FLAG_CC3O) != RESET)
 80023ea:	687b      	ldr	r3, [r7, #4]
 80023ec:	681b      	ldr	r3, [r3, #0]
 80023ee:	689a      	ldr	r2, [r3, #8]
 80023f0:	2380      	movs	r3, #128	@ 0x80
 80023f2:	01db      	lsls	r3, r3, #7
 80023f4:	401a      	ands	r2, r3
 80023f6:	2380      	movs	r3, #128	@ 0x80
 80023f8:	01db      	lsls	r3, r3, #7
 80023fa:	429a      	cmp	r2, r3
 80023fc:	d112      	bne.n	8002424 <HAL_LPTIM_IRQHandler+0x280>
    {
      __HAL_LPTIM_CLEAR_FLAG(hlptim, LPTIM_FLAG_CC3O);
 80023fe:	687b      	ldr	r3, [r7, #4]
 8002400:	681b      	ldr	r3, [r3, #0]
 8002402:	2280      	movs	r2, #128	@ 0x80
 8002404:	01d2      	lsls	r2, r2, #7
 8002406:	605a      	str	r2, [r3, #4]
      hlptim->Channel = HAL_LPTIM_ACTIVE_CHANNEL_3;
 8002408:	687b      	ldr	r3, [r7, #4]
 800240a:	2238      	movs	r2, #56	@ 0x38
 800240c:	2104      	movs	r1, #4
 800240e:	5499      	strb	r1, [r3, r2]

      /* Over capture event */
#if (USE_HAL_LPTIM_REGISTER_CALLBACKS == 1)
      hlptim->IC_OverCaptureCallback(hlptim);
 8002410:	687b      	ldr	r3, [r7, #4]
 8002412:	2294      	movs	r2, #148	@ 0x94
 8002414:	589b      	ldr	r3, [r3, r2]
 8002416:	687a      	ldr	r2, [r7, #4]
 8002418:	0010      	movs	r0, r2
 800241a:	4798      	blx	r3
#else
      HAL_LPTIM_IC_OverCaptureCallback(hlptim);
#endif /* USE_HAL_LPTIM_REGISTER_CALLBACKS */
      hlptim->Channel = HAL_LPTIM_ACTIVE_CHANNEL_CLEARED;
 800241c:	687b      	ldr	r3, [r7, #4]
 800241e:	2238      	movs	r2, #56	@ 0x38
 8002420:	2100      	movs	r1, #0
 8002422:	5499      	strb	r1, [r3, r2]
    }
  }

  /* Over Capture 4 interrupt */
  if (__HAL_LPTIM_GET_FLAG(hlptim, LPTIM_FLAG_CC4O) != RESET)
 8002424:	687b      	ldr	r3, [r7, #4]
 8002426:	681b      	ldr	r3, [r3, #0]
 8002428:	681a      	ldr	r2, [r3, #0]
 800242a:	2380      	movs	r3, #128	@ 0x80
 800242c:	021b      	lsls	r3, r3, #8
 800242e:	401a      	ands	r2, r3
 8002430:	2380      	movs	r3, #128	@ 0x80
 8002432:	021b      	lsls	r3, r3, #8
 8002434:	429a      	cmp	r2, r3
 8002436:	d11c      	bne.n	8002472 <HAL_LPTIM_IRQHandler+0x2ce>
  {
    if (__HAL_LPTIM_GET_IT_SOURCE(hlptim, LPTIM_FLAG_CC4O) != RESET)
 8002438:	687b      	ldr	r3, [r7, #4]
 800243a:	681b      	ldr	r3, [r3, #0]
 800243c:	689a      	ldr	r2, [r3, #8]
 800243e:	2380      	movs	r3, #128	@ 0x80
 8002440:	021b      	lsls	r3, r3, #8
 8002442:	401a      	ands	r2, r3
 8002444:	2380      	movs	r3, #128	@ 0x80
 8002446:	021b      	lsls	r3, r3, #8
 8002448:	429a      	cmp	r2, r3
 800244a:	d112      	bne.n	8002472 <HAL_LPTIM_IRQHandler+0x2ce>
    {
      __HAL_LPTIM_CLEAR_FLAG(hlptim, LPTIM_FLAG_CC4O);
 800244c:	687b      	ldr	r3, [r7, #4]
 800244e:	681b      	ldr	r3, [r3, #0]
 8002450:	2280      	movs	r2, #128	@ 0x80
 8002452:	0212      	lsls	r2, r2, #8
 8002454:	605a      	str	r2, [r3, #4]
      hlptim->Channel = HAL_LPTIM_ACTIVE_CHANNEL_4;
 8002456:	687b      	ldr	r3, [r7, #4]
 8002458:	2238      	movs	r2, #56	@ 0x38
 800245a:	2108      	movs	r1, #8
 800245c:	5499      	strb	r1, [r3, r2]

      /* Over capture event */
#if (USE_HAL_LPTIM_REGISTER_CALLBACKS == 1)
      hlptim->IC_OverCaptureCallback(hlptim);
 800245e:	687b      	ldr	r3, [r7, #4]
 8002460:	2294      	movs	r2, #148	@ 0x94
 8002462:	589b      	ldr	r3, [r3, r2]
 8002464:	687a      	ldr	r2, [r7, #4]
 8002466:	0010      	movs	r0, r2
 8002468:	4798      	blx	r3
#else
      HAL_LPTIM_IC_OverCaptureCallback(hlptim);
#endif /* USE_HAL_LPTIM_REGISTER_CALLBACKS */
      hlptim->Channel = HAL_LPTIM_ACTIVE_CHANNEL_CLEARED;
 800246a:	687b      	ldr	r3, [r7, #4]
 800246c:	2238      	movs	r2, #56	@ 0x38
 800246e:	2100      	movs	r1, #0
 8002470:	5499      	strb	r1, [r3, r2]
    }
  }

  /* Autoreload match interrupt */
  if (__HAL_LPTIM_GET_FLAG(hlptim, LPTIM_FLAG_ARRM) != RESET)
 8002472:	687b      	ldr	r3, [r7, #4]
 8002474:	681b      	ldr	r3, [r3, #0]
 8002476:	681b      	ldr	r3, [r3, #0]
 8002478:	2202      	movs	r2, #2
 800247a:	4013      	ands	r3, r2
 800247c:	2b02      	cmp	r3, #2
 800247e:	d10f      	bne.n	80024a0 <HAL_LPTIM_IRQHandler+0x2fc>
  {
    if (__HAL_LPTIM_GET_IT_SOURCE(hlptim, LPTIM_IT_ARRM) != RESET)
 8002480:	687b      	ldr	r3, [r7, #4]
 8002482:	681b      	ldr	r3, [r3, #0]
 8002484:	689b      	ldr	r3, [r3, #8]
 8002486:	2202      	movs	r2, #2
 8002488:	4013      	ands	r3, r2
 800248a:	2b02      	cmp	r3, #2
 800248c:	d108      	bne.n	80024a0 <HAL_LPTIM_IRQHandler+0x2fc>
    {
      /* Clear Autoreload match flag */
      __HAL_LPTIM_CLEAR_FLAG(hlptim, LPTIM_FLAG_ARRM);
 800248e:	687b      	ldr	r3, [r7, #4]
 8002490:	681b      	ldr	r3, [r3, #0]
 8002492:	2202      	movs	r2, #2
 8002494:	605a      	str	r2, [r3, #4]

      /* Autoreload match Callback */
#if (USE_HAL_LPTIM_REGISTER_CALLBACKS == 1)
      hlptim->AutoReloadMatchCallback(hlptim);
 8002496:	687b      	ldr	r3, [r7, #4]
 8002498:	6e5b      	ldr	r3, [r3, #100]	@ 0x64
 800249a:	687a      	ldr	r2, [r7, #4]
 800249c:	0010      	movs	r0, r2
 800249e:	4798      	blx	r3
#endif /* USE_HAL_LPTIM_REGISTER_CALLBACKS */
    }
  }

  /* Trigger detected interrupt */
  if (__HAL_LPTIM_GET_FLAG(hlptim, LPTIM_FLAG_EXTTRIG) != RESET)
 80024a0:	687b      	ldr	r3, [r7, #4]
 80024a2:	681b      	ldr	r3, [r3, #0]
 80024a4:	681b      	ldr	r3, [r3, #0]
 80024a6:	2204      	movs	r2, #4
 80024a8:	4013      	ands	r3, r2
 80024aa:	2b04      	cmp	r3, #4
 80024ac:	d10f      	bne.n	80024ce <HAL_LPTIM_IRQHandler+0x32a>
  {
    if (__HAL_LPTIM_GET_IT_SOURCE(hlptim, LPTIM_IT_EXTTRIG) != RESET)
 80024ae:	687b      	ldr	r3, [r7, #4]
 80024b0:	681b      	ldr	r3, [r3, #0]
 80024b2:	689b      	ldr	r3, [r3, #8]
 80024b4:	2204      	movs	r2, #4
 80024b6:	4013      	ands	r3, r2
 80024b8:	2b04      	cmp	r3, #4
 80024ba:	d108      	bne.n	80024ce <HAL_LPTIM_IRQHandler+0x32a>
    {
      /* Clear Trigger detected flag */
      __HAL_LPTIM_CLEAR_FLAG(hlptim, LPTIM_FLAG_EXTTRIG);
 80024bc:	687b      	ldr	r3, [r7, #4]
 80024be:	681b      	ldr	r3, [r3, #0]
 80024c0:	2204      	movs	r2, #4
 80024c2:	605a      	str	r2, [r3, #4]

      /* Trigger detected callback */
#if (USE_HAL_LPTIM_REGISTER_CALLBACKS == 1)
      hlptim->TriggerCallback(hlptim);
 80024c4:	687b      	ldr	r3, [r7, #4]
 80024c6:	6e9b      	ldr	r3, [r3, #104]	@ 0x68
 80024c8:	687a      	ldr	r2, [r7, #4]
 80024ca:	0010      	movs	r0, r2
 80024cc:	4798      	blx	r3
#endif /* USE_HAL_LPTIM_REGISTER_CALLBACKS */
    }
  }

  /* Compare write interrupt */
  if (__HAL_LPTIM_GET_FLAG(hlptim, LPTIM_FLAG_CMP1OK) != RESET)
 80024ce:	687b      	ldr	r3, [r7, #4]
 80024d0:	681b      	ldr	r3, [r3, #0]
 80024d2:	681b      	ldr	r3, [r3, #0]
 80024d4:	2208      	movs	r2, #8
 80024d6:	4013      	ands	r3, r2
 80024d8:	2b08      	cmp	r3, #8
 80024da:	d113      	bne.n	8002504 <HAL_LPTIM_IRQHandler+0x360>
  {
    if (__HAL_LPTIM_GET_IT_SOURCE(hlptim, LPTIM_IT_CMP1OK) != RESET)
 80024dc:	687b      	ldr	r3, [r7, #4]
 80024de:	681b      	ldr	r3, [r3, #0]
 80024e0:	689b      	ldr	r3, [r3, #8]
 80024e2:	2208      	movs	r2, #8
 80024e4:	4013      	ands	r3, r2
 80024e6:	2b08      	cmp	r3, #8
 80024e8:	d10c      	bne.n	8002504 <HAL_LPTIM_IRQHandler+0x360>
    {
      /* Clear Compare write flag */
      __HAL_LPTIM_CLEAR_FLAG(hlptim, LPTIM_FLAG_CMP1OK);
 80024ea:	687b      	ldr	r3, [r7, #4]
 80024ec:	681b      	ldr	r3, [r3, #0]
 80024ee:	2208      	movs	r2, #8
 80024f0:	605a      	str	r2, [r3, #4]
      hlptim->Channel = HAL_LPTIM_ACTIVE_CHANNEL_1;
 80024f2:	687b      	ldr	r3, [r7, #4]
 80024f4:	2238      	movs	r2, #56	@ 0x38
 80024f6:	2101      	movs	r1, #1
 80024f8:	5499      	strb	r1, [r3, r2]
      /* Compare write Callback */
#if (USE_HAL_LPTIM_REGISTER_CALLBACKS == 1)
      hlptim->CompareWriteCallback(hlptim);
 80024fa:	687b      	ldr	r3, [r7, #4]
 80024fc:	6edb      	ldr	r3, [r3, #108]	@ 0x6c
 80024fe:	687a      	ldr	r2, [r7, #4]
 8002500:	0010      	movs	r0, r2
 8002502:	4798      	blx	r3
#endif /* USE_HAL_LPTIM_REGISTER_CALLBACKS */
    }
  }

  /* Compare write interrupt */
  if (__HAL_LPTIM_GET_FLAG(hlptim, LPTIM_FLAG_CMP2OK) != RESET)
 8002504:	687b      	ldr	r3, [r7, #4]
 8002506:	681b      	ldr	r3, [r3, #0]
 8002508:	681a      	ldr	r2, [r3, #0]
 800250a:	2380      	movs	r3, #128	@ 0x80
 800250c:	031b      	lsls	r3, r3, #12
 800250e:	401a      	ands	r2, r3
 8002510:	2380      	movs	r3, #128	@ 0x80
 8002512:	031b      	lsls	r3, r3, #12
 8002514:	429a      	cmp	r2, r3
 8002516:	d117      	bne.n	8002548 <HAL_LPTIM_IRQHandler+0x3a4>
  {
    if (__HAL_LPTIM_GET_IT_SOURCE(hlptim, LPTIM_IT_CMP2OK) != RESET)
 8002518:	687b      	ldr	r3, [r7, #4]
 800251a:	681b      	ldr	r3, [r3, #0]
 800251c:	689a      	ldr	r2, [r3, #8]
 800251e:	2380      	movs	r3, #128	@ 0x80
 8002520:	031b      	lsls	r3, r3, #12
 8002522:	401a      	ands	r2, r3
 8002524:	2380      	movs	r3, #128	@ 0x80
 8002526:	031b      	lsls	r3, r3, #12
 8002528:	429a      	cmp	r2, r3
 800252a:	d10d      	bne.n	8002548 <HAL_LPTIM_IRQHandler+0x3a4>
    {
      /* Clear Compare write flag */
      __HAL_LPTIM_CLEAR_FLAG(hlptim, LPTIM_FLAG_CMP2OK);
 800252c:	687b      	ldr	r3, [r7, #4]
 800252e:	681b      	ldr	r3, [r3, #0]
 8002530:	2280      	movs	r2, #128	@ 0x80
 8002532:	0312      	lsls	r2, r2, #12
 8002534:	605a      	str	r2, [r3, #4]
      hlptim->Channel = HAL_LPTIM_ACTIVE_CHANNEL_2;
 8002536:	687b      	ldr	r3, [r7, #4]
 8002538:	2238      	movs	r2, #56	@ 0x38
 800253a:	2102      	movs	r1, #2
 800253c:	5499      	strb	r1, [r3, r2]
      /* Compare write Callback */
#if (USE_HAL_LPTIM_REGISTER_CALLBACKS == 1)
      hlptim->CompareWriteCallback(hlptim);
 800253e:	687b      	ldr	r3, [r7, #4]
 8002540:	6edb      	ldr	r3, [r3, #108]	@ 0x6c
 8002542:	687a      	ldr	r2, [r7, #4]
 8002544:	0010      	movs	r0, r2
 8002546:	4798      	blx	r3
#endif /* USE_HAL_LPTIM_REGISTER_CALLBACKS */
    }
  }

  /* Autoreload write interrupt */
  if (__HAL_LPTIM_GET_FLAG(hlptim, LPTIM_FLAG_ARROK) != RESET)
 8002548:	687b      	ldr	r3, [r7, #4]
 800254a:	681b      	ldr	r3, [r3, #0]
 800254c:	681b      	ldr	r3, [r3, #0]
 800254e:	2210      	movs	r2, #16
 8002550:	4013      	ands	r3, r2
 8002552:	2b10      	cmp	r3, #16
 8002554:	d10f      	bne.n	8002576 <HAL_LPTIM_IRQHandler+0x3d2>
  {
    if (__HAL_LPTIM_GET_IT_SOURCE(hlptim, LPTIM_IT_ARROK) != RESET)
 8002556:	687b      	ldr	r3, [r7, #4]
 8002558:	681b      	ldr	r3, [r3, #0]
 800255a:	689b      	ldr	r3, [r3, #8]
 800255c:	2210      	movs	r2, #16
 800255e:	4013      	ands	r3, r2
 8002560:	2b10      	cmp	r3, #16
 8002562:	d108      	bne.n	8002576 <HAL_LPTIM_IRQHandler+0x3d2>
    {
      /* Clear Autoreload write flag */
      __HAL_LPTIM_CLEAR_FLAG(hlptim, LPTIM_FLAG_ARROK);
 8002564:	687b      	ldr	r3, [r7, #4]
 8002566:	681b      	ldr	r3, [r3, #0]
 8002568:	2210      	movs	r2, #16
 800256a:	605a      	str	r2, [r3, #4]

      /* Autoreload write Callback */
#if (USE_HAL_LPTIM_REGISTER_CALLBACKS == 1)
      hlptim->AutoReloadWriteCallback(hlptim);
 800256c:	687b      	ldr	r3, [r7, #4]
 800256e:	6f1b      	ldr	r3, [r3, #112]	@ 0x70
 8002570:	687a      	ldr	r2, [r7, #4]
 8002572:	0010      	movs	r0, r2
 8002574:	4798      	blx	r3
#endif /* USE_HAL_LPTIM_REGISTER_CALLBACKS */
    }
  }

  /* Direction counter changed from Down to Up interrupt */
  if (__HAL_LPTIM_GET_FLAG(hlptim, LPTIM_FLAG_UP) != RESET)
 8002576:	687b      	ldr	r3, [r7, #4]
 8002578:	681b      	ldr	r3, [r3, #0]
 800257a:	681b      	ldr	r3, [r3, #0]
 800257c:	2220      	movs	r2, #32
 800257e:	4013      	ands	r3, r2
 8002580:	2b20      	cmp	r3, #32
 8002582:	d10f      	bne.n	80025a4 <HAL_LPTIM_IRQHandler+0x400>
  {
    if (__HAL_LPTIM_GET_IT_SOURCE(hlptim, LPTIM_IT_UP) != RESET)
 8002584:	687b      	ldr	r3, [r7, #4]
 8002586:	681b      	ldr	r3, [r3, #0]
 8002588:	689b      	ldr	r3, [r3, #8]
 800258a:	2220      	movs	r2, #32
 800258c:	4013      	ands	r3, r2
 800258e:	2b20      	cmp	r3, #32
 8002590:	d108      	bne.n	80025a4 <HAL_LPTIM_IRQHandler+0x400>
    {
      /* Clear Direction counter changed from Down to Up flag */
      __HAL_LPTIM_CLEAR_FLAG(hlptim, LPTIM_FLAG_UP);
 8002592:	687b      	ldr	r3, [r7, #4]
 8002594:	681b      	ldr	r3, [r3, #0]
 8002596:	2220      	movs	r2, #32
 8002598:	605a      	str	r2, [r3, #4]

      /* Direction counter changed from Down to Up Callback */
#if (USE_HAL_LPTIM_REGISTER_CALLBACKS == 1)
      hlptim->DirectionUpCallback(hlptim);
 800259a:	687b      	ldr	r3, [r7, #4]
 800259c:	6f5b      	ldr	r3, [r3, #116]	@ 0x74
 800259e:	687a      	ldr	r2, [r7, #4]
 80025a0:	0010      	movs	r0, r2
 80025a2:	4798      	blx	r3
#endif /* USE_HAL_LPTIM_REGISTER_CALLBACKS */
    }
  }

  /* Direction counter changed from Up to Down interrupt */
  if (__HAL_LPTIM_GET_FLAG(hlptim, LPTIM_FLAG_DOWN) != RESET)
 80025a4:	687b      	ldr	r3, [r7, #4]
 80025a6:	681b      	ldr	r3, [r3, #0]
 80025a8:	681b      	ldr	r3, [r3, #0]
 80025aa:	2240      	movs	r2, #64	@ 0x40
 80025ac:	4013      	ands	r3, r2
 80025ae:	2b40      	cmp	r3, #64	@ 0x40
 80025b0:	d10f      	bne.n	80025d2 <HAL_LPTIM_IRQHandler+0x42e>
  {
    if (__HAL_LPTIM_GET_IT_SOURCE(hlptim, LPTIM_IT_DOWN) != RESET)
 80025b2:	687b      	ldr	r3, [r7, #4]
 80025b4:	681b      	ldr	r3, [r3, #0]
 80025b6:	689b      	ldr	r3, [r3, #8]
 80025b8:	2240      	movs	r2, #64	@ 0x40
 80025ba:	4013      	ands	r3, r2
 80025bc:	2b40      	cmp	r3, #64	@ 0x40
 80025be:	d108      	bne.n	80025d2 <HAL_LPTIM_IRQHandler+0x42e>
    {
      /* Clear Direction counter changed from Up to Down flag */
      __HAL_LPTIM_CLEAR_FLAG(hlptim, LPTIM_FLAG_DOWN);
 80025c0:	687b      	ldr	r3, [r7, #4]
 80025c2:	681b      	ldr	r3, [r3, #0]
 80025c4:	2240      	movs	r2, #64	@ 0x40
 80025c6:	605a      	str	r2, [r3, #4]

      /* Direction counter changed from Up to Down Callback */
#if (USE_HAL_LPTIM_REGISTER_CALLBACKS == 1)
      hlptim->DirectionDownCallback(hlptim);
 80025c8:	687b      	ldr	r3, [r7, #4]
 80025ca:	6f9b      	ldr	r3, [r3, #120]	@ 0x78
 80025cc:	687a      	ldr	r2, [r7, #4]
 80025ce:	0010      	movs	r0, r2
 80025d0:	4798      	blx	r3
    }
  }

  /* Repetition counter underflowed (or contains zero) and the LPTIM counter
     overflowed */
  if (__HAL_LPTIM_GET_FLAG(hlptim, LPTIM_FLAG_UPDATE) != RESET)
 80025d2:	687b      	ldr	r3, [r7, #4]
 80025d4:	681b      	ldr	r3, [r3, #0]
 80025d6:	681b      	ldr	r3, [r3, #0]
 80025d8:	2280      	movs	r2, #128	@ 0x80
 80025da:	4013      	ands	r3, r2
 80025dc:	2b80      	cmp	r3, #128	@ 0x80
 80025de:	d10f      	bne.n	8002600 <HAL_LPTIM_IRQHandler+0x45c>
  {
    if (__HAL_LPTIM_GET_IT_SOURCE(hlptim, LPTIM_IT_UPDATE) != RESET)
 80025e0:	687b      	ldr	r3, [r7, #4]
 80025e2:	681b      	ldr	r3, [r3, #0]
 80025e4:	689b      	ldr	r3, [r3, #8]
 80025e6:	2280      	movs	r2, #128	@ 0x80
 80025e8:	4013      	ands	r3, r2
 80025ea:	2b80      	cmp	r3, #128	@ 0x80
 80025ec:	d108      	bne.n	8002600 <HAL_LPTIM_IRQHandler+0x45c>
    {
      /* Clear update event flag */
      __HAL_LPTIM_CLEAR_FLAG(hlptim, LPTIM_FLAG_UPDATE);
 80025ee:	687b      	ldr	r3, [r7, #4]
 80025f0:	681b      	ldr	r3, [r3, #0]
 80025f2:	2280      	movs	r2, #128	@ 0x80
 80025f4:	605a      	str	r2, [r3, #4]

      /* Update event Callback */
#if (USE_HAL_LPTIM_REGISTER_CALLBACKS == 1)
      hlptim->UpdateEventCallback(hlptim);
 80025f6:	687b      	ldr	r3, [r7, #4]
 80025f8:	6fdb      	ldr	r3, [r3, #124]	@ 0x7c
 80025fa:	687a      	ldr	r2, [r7, #4]
 80025fc:	0010      	movs	r0, r2
 80025fe:	4798      	blx	r3
#endif /* USE_HAL_LPTIM_REGISTER_CALLBACKS */
    }
  }

  /* Successful APB bus write to repetition counter register */
  if (__HAL_LPTIM_GET_FLAG(hlptim, LPTIM_FLAG_REPOK) != RESET)
 8002600:	687b      	ldr	r3, [r7, #4]
 8002602:	681b      	ldr	r3, [r3, #0]
 8002604:	681a      	ldr	r2, [r3, #0]
 8002606:	2380      	movs	r3, #128	@ 0x80
 8002608:	005b      	lsls	r3, r3, #1
 800260a:	401a      	ands	r2, r3
 800260c:	2380      	movs	r3, #128	@ 0x80
 800260e:	005b      	lsls	r3, r3, #1
 8002610:	429a      	cmp	r2, r3
 8002612:	d114      	bne.n	800263e <HAL_LPTIM_IRQHandler+0x49a>
  {
    if (__HAL_LPTIM_GET_IT_SOURCE(hlptim, LPTIM_IT_REPOK) != RESET)
 8002614:	687b      	ldr	r3, [r7, #4]
 8002616:	681b      	ldr	r3, [r3, #0]
 8002618:	689a      	ldr	r2, [r3, #8]
 800261a:	2380      	movs	r3, #128	@ 0x80
 800261c:	005b      	lsls	r3, r3, #1
 800261e:	401a      	ands	r2, r3
 8002620:	2380      	movs	r3, #128	@ 0x80
 8002622:	005b      	lsls	r3, r3, #1
 8002624:	429a      	cmp	r2, r3
 8002626:	d10a      	bne.n	800263e <HAL_LPTIM_IRQHandler+0x49a>
    {
      /* Clear successful APB bus write to repetition counter flag */
      __HAL_LPTIM_CLEAR_FLAG(hlptim, LPTIM_FLAG_REPOK);
 8002628:	687b      	ldr	r3, [r7, #4]
 800262a:	681b      	ldr	r3, [r3, #0]
 800262c:	2280      	movs	r2, #128	@ 0x80
 800262e:	0052      	lsls	r2, r2, #1
 8002630:	605a      	str	r2, [r3, #4]

      /* Successful APB bus write to repetition counter Callback */
#if (USE_HAL_LPTIM_REGISTER_CALLBACKS == 1)
      hlptim->RepCounterWriteCallback(hlptim);
 8002632:	687b      	ldr	r3, [r7, #4]
 8002634:	2280      	movs	r2, #128	@ 0x80
 8002636:	589b      	ldr	r3, [r3, r2]
 8002638:	687a      	ldr	r2, [r7, #4]
 800263a:	0010      	movs	r0, r2
 800263c:	4798      	blx	r3
#else
      HAL_LPTIM_RepCounterWriteCallback(hlptim);
#endif /* USE_HAL_LPTIM_REGISTER_CALLBACKS */
    }
  }
}
 800263e:	46c0      	nop			@ (mov r8, r8)
 8002640:	46bd      	mov	sp, r7
 8002642:	b002      	add	sp, #8
 8002644:	bd80      	pop	{r7, pc}

08002646 <HAL_LPTIM_CompareMatchCallback>:
  * @brief  Compare match callback in non-blocking mode.
  * @param  hlptim LPTIM handle
  * @retval None
  */
__weak void HAL_LPTIM_CompareMatchCallback(LPTIM_HandleTypeDef *hlptim)
{
 8002646:	b580      	push	{r7, lr}
 8002648:	b082      	sub	sp, #8
 800264a:	af00      	add	r7, sp, #0
 800264c:	6078      	str	r0, [r7, #4]
  UNUSED(hlptim);

  /* NOTE : This function should not be modified, when the callback is needed,
            the HAL_LPTIM_CompareMatchCallback could be implemented in the user file
   */
}
 800264e:	46c0      	nop			@ (mov r8, r8)
 8002650:	46bd      	mov	sp, r7
 8002652:	b002      	add	sp, #8
 8002654:	bd80      	pop	{r7, pc}

08002656 <HAL_LPTIM_AutoReloadMatchCallback>:
  * @brief  Autoreload match callback in non-blocking mode.
  * @param  hlptim LPTIM handle
  * @retval None
  */
__weak void HAL_LPTIM_AutoReloadMatchCallback(LPTIM_HandleTypeDef *hlptim)
{
 8002656:	b580      	push	{r7, lr}
 8002658:	b082      	sub	sp, #8
 800265a:	af00      	add	r7, sp, #0
 800265c:	6078      	str	r0, [r7, #4]
  UNUSED(hlptim);

  /* NOTE : This function should not be modified, when the callback is needed,
            the HAL_LPTIM_AutoReloadMatchCallback could be implemented in the user file
   */
}
 800265e:	46c0      	nop			@ (mov r8, r8)
 8002660:	46bd      	mov	sp, r7
 8002662:	b002      	add	sp, #8
 8002664:	bd80      	pop	{r7, pc}

08002666 <HAL_LPTIM_TriggerCallback>:
  * @brief  Trigger detected callback in non-blocking mode.
  * @param  hlptim LPTIM handle
  * @retval None
  */
__weak void HAL_LPTIM_TriggerCallback(LPTIM_HandleTypeDef *hlptim)
{
 8002666:	b580      	push	{r7, lr}
 8002668:	b082      	sub	sp, #8
 800266a:	af00      	add	r7, sp, #0
 800266c:	6078      	str	r0, [r7, #4]
  UNUSED(hlptim);

  /* NOTE : This function should not be modified, when the callback is needed,
            the HAL_LPTIM_TriggerCallback could be implemented in the user file
   */
}
 800266e:	46c0      	nop			@ (mov r8, r8)
 8002670:	46bd      	mov	sp, r7
 8002672:	b002      	add	sp, #8
 8002674:	bd80      	pop	{r7, pc}

08002676 <HAL_LPTIM_CompareWriteCallback>:
  * @brief  Compare write callback in non-blocking mode.
  * @param  hlptim LPTIM handle
  * @retval None
  */
__weak void HAL_LPTIM_CompareWriteCallback(LPTIM_HandleTypeDef *hlptim)
{
 8002676:	b580      	push	{r7, lr}
 8002678:	b082      	sub	sp, #8
 800267a:	af00      	add	r7, sp, #0
 800267c:	6078      	str	r0, [r7, #4]
  UNUSED(hlptim);

  /* NOTE : This function should not be modified, when the callback is needed,
            the HAL_LPTIM_CompareWriteCallback could be implemented in the user file
   */
}
 800267e:	46c0      	nop			@ (mov r8, r8)
 8002680:	46bd      	mov	sp, r7
 8002682:	b002      	add	sp, #8
 8002684:	bd80      	pop	{r7, pc}

08002686 <HAL_LPTIM_AutoReloadWriteCallback>:
  * @brief  Autoreload write callback in non-blocking mode.
  * @param  hlptim LPTIM handle
  * @retval None
  */
__weak void HAL_LPTIM_AutoReloadWriteCallback(LPTIM_HandleTypeDef *hlptim)
{
 8002686:	b580      	push	{r7, lr}
 8002688:	b082      	sub	sp, #8
 800268a:	af00      	add	r7, sp, #0
 800268c:	6078      	str	r0, [r7, #4]
  UNUSED(hlptim);

  /* NOTE : This function should not be modified, when the callback is needed,
            the HAL_LPTIM_AutoReloadWriteCallback could be implemented in the user file
   */
}
 800268e:	46c0      	nop			@ (mov r8, r8)
 8002690:	46bd      	mov	sp, r7
 8002692:	b002      	add	sp, #8
 8002694:	bd80      	pop	{r7, pc}

08002696 <HAL_LPTIM_DirectionUpCallback>:
  * @brief  Direction counter changed from Down to Up callback in non-blocking mode.
  * @param  hlptim LPTIM handle
  * @retval None
  */
__weak void HAL_LPTIM_DirectionUpCallback(LPTIM_HandleTypeDef *hlptim)
{
 8002696:	b580      	push	{r7, lr}
 8002698:	b082      	sub	sp, #8
 800269a:	af00      	add	r7, sp, #0
 800269c:	6078      	str	r0, [r7, #4]
  UNUSED(hlptim);

  /* NOTE : This function should not be modified, when the callback is needed,
            the HAL_LPTIM_DirectionUpCallback could be implemented in the user file
   */
}
 800269e:	46c0      	nop			@ (mov r8, r8)
 80026a0:	46bd      	mov	sp, r7
 80026a2:	b002      	add	sp, #8
 80026a4:	bd80      	pop	{r7, pc}

080026a6 <HAL_LPTIM_DirectionDownCallback>:
  * @brief  Direction counter changed from Up to Down callback in non-blocking mode.
  * @param  hlptim LPTIM handle
  * @retval None
  */
__weak void HAL_LPTIM_DirectionDownCallback(LPTIM_HandleTypeDef *hlptim)
{
 80026a6:	b580      	push	{r7, lr}
 80026a8:	b082      	sub	sp, #8
 80026aa:	af00      	add	r7, sp, #0
 80026ac:	6078      	str	r0, [r7, #4]
  UNUSED(hlptim);

  /* NOTE : This function should not be modified, when the callback is needed,
            the HAL_LPTIM_DirectionDownCallback could be implemented in the user file
   */
}
 80026ae:	46c0      	nop			@ (mov r8, r8)
 80026b0:	46bd      	mov	sp, r7
 80026b2:	b002      	add	sp, #8
 80026b4:	bd80      	pop	{r7, pc}

080026b6 <HAL_LPTIM_UpdateEventCallback>:
  * @brief Repetition counter underflowed (or contains zero) and LPTIM counter overflowed callback in non-blocking mode.
  * @param  hlptim LPTIM handle
  * @retval None
  */
__weak void HAL_LPTIM_UpdateEventCallback(LPTIM_HandleTypeDef *hlptim)
{
 80026b6:	b580      	push	{r7, lr}
 80026b8:	b082      	sub	sp, #8
 80026ba:	af00      	add	r7, sp, #0
 80026bc:	6078      	str	r0, [r7, #4]
  UNUSED(hlptim);

  /* NOTE : This function should not be modified, when the callback is needed,
            the HAL_LPTIM_UpdateEventCallback could be implemented in the user file
   */
}
 80026be:	46c0      	nop			@ (mov r8, r8)
 80026c0:	46bd      	mov	sp, r7
 80026c2:	b002      	add	sp, #8
 80026c4:	bd80      	pop	{r7, pc}

080026c6 <HAL_LPTIM_RepCounterWriteCallback>:
  * @brief  Successful APB bus write to repetition counter register callback in non-blocking mode.
  * @param  hlptim LPTIM handle
  * @retval None
  */
__weak void HAL_LPTIM_RepCounterWriteCallback(LPTIM_HandleTypeDef *hlptim)
{
 80026c6:	b580      	push	{r7, lr}
 80026c8:	b082      	sub	sp, #8
 80026ca:	af00      	add	r7, sp, #0
 80026cc:	6078      	str	r0, [r7, #4]
  UNUSED(hlptim);

  /* NOTE : This function should not be modified, when the callback is needed,
            the HAL_LPTIM_RepCounterWriteCallback could be implemented in the user file
   */
}
 80026ce:	46c0      	nop			@ (mov r8, r8)
 80026d0:	46bd      	mov	sp, r7
 80026d2:	b002      	add	sp, #8
 80026d4:	bd80      	pop	{r7, pc}

080026d6 <HAL_LPTIM_IC_CaptureCallback>:
  * @brief  Input Capture callback in non-blocking mode
  * @param  hlptim LPTIM handle
  * @retval None
  */
__weak void HAL_LPTIM_IC_CaptureCallback(LPTIM_HandleTypeDef *hlptim)
{
 80026d6:	b580      	push	{r7, lr}
 80026d8:	b082      	sub	sp, #8
 80026da:	af00      	add	r7, sp, #0
 80026dc:	6078      	str	r0, [r7, #4]
  UNUSED(hlptim);

  /* NOTE : This function should not be modified, when the callback is needed,
            the HAL_LPTIM_IC_CaptureCallback could be implemented in the user file
   */
}
 80026de:	46c0      	nop			@ (mov r8, r8)
 80026e0:	46bd      	mov	sp, r7
 80026e2:	b002      	add	sp, #8
 80026e4:	bd80      	pop	{r7, pc}

080026e6 <HAL_LPTIM_IC_OverCaptureCallback>:
  * @brief  Over Capture callback in non-blocking mode
  * @param  hlptim LPTIM handle
  * @retval None
  */
__weak void HAL_LPTIM_IC_OverCaptureCallback(LPTIM_HandleTypeDef *hlptim)
{
 80026e6:	b580      	push	{r7, lr}
 80026e8:	b082      	sub	sp, #8
 80026ea:	af00      	add	r7, sp, #0
 80026ec:	6078      	str	r0, [r7, #4]
  UNUSED(hlptim);

  /* NOTE : This function should not be modified, when the callback is needed,
            the HAL_LPTIM_IC_OverCaptureCallback could be implemented in the user file
   */
}
 80026ee:	46c0      	nop			@ (mov r8, r8)
 80026f0:	46bd      	mov	sp, r7
 80026f2:	b002      	add	sp, #8
 80026f4:	bd80      	pop	{r7, pc}

080026f6 <HAL_LPTIM_IC_CaptureHalfCpltCallback>:
  * @brief  Input Capture half complete callback in non-blocking mode
  * @param  hlptim LPTIM IC handle
  * @retval None
  */
__weak void HAL_LPTIM_IC_CaptureHalfCpltCallback(LPTIM_HandleTypeDef *hlptim)
{
 80026f6:	b580      	push	{r7, lr}
 80026f8:	b082      	sub	sp, #8
 80026fa:	af00      	add	r7, sp, #0
 80026fc:	6078      	str	r0, [r7, #4]
  UNUSED(hlptim);

  /* NOTE : This function should not be modified, when the callback is needed,
            the HAL_LPTIM_IC_CaptureHalfCpltCallback could be implemented in the user file
   */
}
 80026fe:	46c0      	nop			@ (mov r8, r8)
 8002700:	46bd      	mov	sp, r7
 8002702:	b002      	add	sp, #8
 8002704:	bd80      	pop	{r7, pc}

08002706 <HAL_LPTIM_UpdateEventHalfCpltCallback>:
  * @brief  Update event half complete callback in non-blocking mode
  * @param  hlptim LPTIM handle
  * @retval None
  */
__weak void HAL_LPTIM_UpdateEventHalfCpltCallback(LPTIM_HandleTypeDef *hlptim)
{
 8002706:	b580      	push	{r7, lr}
 8002708:	b082      	sub	sp, #8
 800270a:	af00      	add	r7, sp, #0
 800270c:	6078      	str	r0, [r7, #4]
  UNUSED(hlptim);

  /* NOTE : This function should not be modified, when the callback is needed,
            the HAL_LPTIM_UpdateEventHalfCpltCallback could be implemented in the user file
   */
}
 800270e:	46c0      	nop			@ (mov r8, r8)
 8002710:	46bd      	mov	sp, r7
 8002712:	b002      	add	sp, #8
 8002714:	bd80      	pop	{r7, pc}

08002716 <HAL_LPTIM_ErrorCallback>:
  * @brief  Error callback in non-blocking mode
  * @param  hlptim LPTIM handle
  * @retval None
  */
__weak void HAL_LPTIM_ErrorCallback(LPTIM_HandleTypeDef *hlptim)
{
 8002716:	b580      	push	{r7, lr}
 8002718:	b082      	sub	sp, #8
 800271a:	af00      	add	r7, sp, #0
 800271c:	6078      	str	r0, [r7, #4]
  UNUSED(hlptim);

  /* NOTE : This function should not be modified, when the callback is needed,
            the HAL_LPTIM_ErrorCallback could be implemented in the user file
   */
}
 800271e:	46c0      	nop			@ (mov r8, r8)
 8002720:	46bd      	mov	sp, r7
 8002722:	b002      	add	sp, #8
 8002724:	bd80      	pop	{r7, pc}
	...

08002728 <HAL_LPTIM_RegisterCallback>:
  * @retval status
  */
HAL_StatusTypeDef HAL_LPTIM_RegisterCallback(LPTIM_HandleTypeDef        *hlptim,
                                             HAL_LPTIM_CallbackIDTypeDef CallbackID,
                                             pLPTIM_CallbackTypeDef      pCallback)
{
 8002728:	b580      	push	{r7, lr}
 800272a:	b086      	sub	sp, #24
 800272c:	af00      	add	r7, sp, #0
 800272e:	60f8      	str	r0, [r7, #12]
 8002730:	607a      	str	r2, [r7, #4]
 8002732:	230b      	movs	r3, #11
 8002734:	18fb      	adds	r3, r7, r3
 8002736:	1c0a      	adds	r2, r1, #0
 8002738:	701a      	strb	r2, [r3, #0]
  HAL_StatusTypeDef status = HAL_OK;
 800273a:	2317      	movs	r3, #23
 800273c:	18fb      	adds	r3, r7, r3
 800273e:	2200      	movs	r2, #0
 8002740:	701a      	strb	r2, [r3, #0]

  if (pCallback == NULL)
 8002742:	687b      	ldr	r3, [r7, #4]
 8002744:	2b00      	cmp	r3, #0
 8002746:	d101      	bne.n	800274c <HAL_LPTIM_RegisterCallback+0x24>
  {
    return HAL_ERROR;
 8002748:	2301      	movs	r3, #1
 800274a:	e07c      	b.n	8002846 <HAL_LPTIM_RegisterCallback+0x11e>
  }

  if (hlptim->State == HAL_LPTIM_STATE_READY)
 800274c:	68fb      	ldr	r3, [r7, #12]
 800274e:	2252      	movs	r2, #82	@ 0x52
 8002750:	5c9b      	ldrb	r3, [r3, r2]
 8002752:	b2db      	uxtb	r3, r3
 8002754:	2b01      	cmp	r3, #1
 8002756:	d154      	bne.n	8002802 <HAL_LPTIM_RegisterCallback+0xda>
  {
    switch (CallbackID)
 8002758:	230b      	movs	r3, #11
 800275a:	18fb      	adds	r3, r7, r3
 800275c:	781b      	ldrb	r3, [r3, #0]
 800275e:	2b0f      	cmp	r3, #15
 8002760:	d84a      	bhi.n	80027f8 <HAL_LPTIM_RegisterCallback+0xd0>
 8002762:	009a      	lsls	r2, r3, #2
 8002764:	4b3a      	ldr	r3, [pc, #232]	@ (8002850 <HAL_LPTIM_RegisterCallback+0x128>)
 8002766:	18d3      	adds	r3, r2, r3
 8002768:	681b      	ldr	r3, [r3, #0]
 800276a:	469f      	mov	pc, r3
    {
      case HAL_LPTIM_MSPINIT_CB_ID :
        hlptim->MspInitCallback = pCallback;
 800276c:	68fb      	ldr	r3, [r7, #12]
 800276e:	687a      	ldr	r2, [r7, #4]
 8002770:	659a      	str	r2, [r3, #88]	@ 0x58
        break;
 8002772:	e065      	b.n	8002840 <HAL_LPTIM_RegisterCallback+0x118>

      case HAL_LPTIM_MSPDEINIT_CB_ID :
        hlptim->MspDeInitCallback = pCallback;
 8002774:	68fb      	ldr	r3, [r7, #12]
 8002776:	687a      	ldr	r2, [r7, #4]
 8002778:	65da      	str	r2, [r3, #92]	@ 0x5c
        break;
 800277a:	e061      	b.n	8002840 <HAL_LPTIM_RegisterCallback+0x118>

      case HAL_LPTIM_COMPARE_MATCH_CB_ID :
        hlptim->CompareMatchCallback = pCallback;
 800277c:	68fb      	ldr	r3, [r7, #12]
 800277e:	687a      	ldr	r2, [r7, #4]
 8002780:	661a      	str	r2, [r3, #96]	@ 0x60
        break;
 8002782:	e05d      	b.n	8002840 <HAL_LPTIM_RegisterCallback+0x118>

      case HAL_LPTIM_AUTORELOAD_MATCH_CB_ID :
        hlptim->AutoReloadMatchCallback = pCallback;
 8002784:	68fb      	ldr	r3, [r7, #12]
 8002786:	687a      	ldr	r2, [r7, #4]
 8002788:	665a      	str	r2, [r3, #100]	@ 0x64
        break;
 800278a:	e059      	b.n	8002840 <HAL_LPTIM_RegisterCallback+0x118>

      case HAL_LPTIM_TRIGGER_CB_ID :
        hlptim->TriggerCallback = pCallback;
 800278c:	68fb      	ldr	r3, [r7, #12]
 800278e:	687a      	ldr	r2, [r7, #4]
 8002790:	669a      	str	r2, [r3, #104]	@ 0x68
        break;
 8002792:	e055      	b.n	8002840 <HAL_LPTIM_RegisterCallback+0x118>

      case HAL_LPTIM_COMPARE_WRITE_CB_ID :
        hlptim->CompareWriteCallback = pCallback;
 8002794:	68fb      	ldr	r3, [r7, #12]
 8002796:	687a      	ldr	r2, [r7, #4]
 8002798:	66da      	str	r2, [r3, #108]	@ 0x6c
        break;
 800279a:	e051      	b.n	8002840 <HAL_LPTIM_RegisterCallback+0x118>

      case HAL_LPTIM_AUTORELOAD_WRITE_CB_ID :
        hlptim->AutoReloadWriteCallback = pCallback;
 800279c:	68fb      	ldr	r3, [r7, #12]
 800279e:	687a      	ldr	r2, [r7, #4]
 80027a0:	671a      	str	r2, [r3, #112]	@ 0x70
        break;
 80027a2:	e04d      	b.n	8002840 <HAL_LPTIM_RegisterCallback+0x118>

      case HAL_LPTIM_DIRECTION_UP_CB_ID :
        hlptim->DirectionUpCallback = pCallback;
 80027a4:	68fb      	ldr	r3, [r7, #12]
 80027a6:	687a      	ldr	r2, [r7, #4]
 80027a8:	675a      	str	r2, [r3, #116]	@ 0x74
        break;
 80027aa:	e049      	b.n	8002840 <HAL_LPTIM_RegisterCallback+0x118>

      case HAL_LPTIM_DIRECTION_DOWN_CB_ID :
        hlptim->DirectionDownCallback = pCallback;
 80027ac:	68fb      	ldr	r3, [r7, #12]
 80027ae:	687a      	ldr	r2, [r7, #4]
 80027b0:	679a      	str	r2, [r3, #120]	@ 0x78
        break;
 80027b2:	e045      	b.n	8002840 <HAL_LPTIM_RegisterCallback+0x118>

      case HAL_LPTIM_UPDATE_EVENT_CB_ID :
        hlptim->UpdateEventCallback = pCallback;
 80027b4:	68fb      	ldr	r3, [r7, #12]
 80027b6:	687a      	ldr	r2, [r7, #4]
 80027b8:	67da      	str	r2, [r3, #124]	@ 0x7c
        break;
 80027ba:	e041      	b.n	8002840 <HAL_LPTIM_RegisterCallback+0x118>

      case HAL_LPTIM_REP_COUNTER_WRITE_CB_ID :
        hlptim->RepCounterWriteCallback = pCallback;
 80027bc:	68fb      	ldr	r3, [r7, #12]
 80027be:	2180      	movs	r1, #128	@ 0x80
 80027c0:	687a      	ldr	r2, [r7, #4]
 80027c2:	505a      	str	r2, [r3, r1]
        break;
 80027c4:	e03c      	b.n	8002840 <HAL_LPTIM_RegisterCallback+0x118>

      case HAL_LPTIM_UPDATE_EVENT_HALF_CB_ID :
        hlptim->UpdateEventHalfCpltCallback = pCallback;
 80027c6:	68fb      	ldr	r3, [r7, #12]
 80027c8:	2184      	movs	r1, #132	@ 0x84
 80027ca:	687a      	ldr	r2, [r7, #4]
 80027cc:	505a      	str	r2, [r3, r1]
        break;
 80027ce:	e037      	b.n	8002840 <HAL_LPTIM_RegisterCallback+0x118>

      case HAL_LPTIM_ERROR_CB_ID :
        hlptim->ErrorCallback = pCallback;
 80027d0:	68fb      	ldr	r3, [r7, #12]
 80027d2:	2188      	movs	r1, #136	@ 0x88
 80027d4:	687a      	ldr	r2, [r7, #4]
 80027d6:	505a      	str	r2, [r3, r1]
        break;
 80027d8:	e032      	b.n	8002840 <HAL_LPTIM_RegisterCallback+0x118>

      case HAL_LPTIM_IC_CAPTURE_CB_ID :
        hlptim->IC_CaptureCallback = pCallback;
 80027da:	68fb      	ldr	r3, [r7, #12]
 80027dc:	218c      	movs	r1, #140	@ 0x8c
 80027de:	687a      	ldr	r2, [r7, #4]
 80027e0:	505a      	str	r2, [r3, r1]
        break;
 80027e2:	e02d      	b.n	8002840 <HAL_LPTIM_RegisterCallback+0x118>

      case HAL_LPTIM_IC_CAPTURE_HALF_CB_ID :
        hlptim->IC_CaptureHalfCpltCallback = pCallback;
 80027e4:	68fb      	ldr	r3, [r7, #12]
 80027e6:	2190      	movs	r1, #144	@ 0x90
 80027e8:	687a      	ldr	r2, [r7, #4]
 80027ea:	505a      	str	r2, [r3, r1]
        break;
 80027ec:	e028      	b.n	8002840 <HAL_LPTIM_RegisterCallback+0x118>

      case HAL_LPTIM_OVER_CAPTURE_CB_ID :
        hlptim->IC_OverCaptureCallback = pCallback;
 80027ee:	68fb      	ldr	r3, [r7, #12]
 80027f0:	2194      	movs	r1, #148	@ 0x94
 80027f2:	687a      	ldr	r2, [r7, #4]
 80027f4:	505a      	str	r2, [r3, r1]
        break;
 80027f6:	e023      	b.n	8002840 <HAL_LPTIM_RegisterCallback+0x118>

      default :
        /* Return error status */
        status =  HAL_ERROR;
 80027f8:	2317      	movs	r3, #23
 80027fa:	18fb      	adds	r3, r7, r3
 80027fc:	2201      	movs	r2, #1
 80027fe:	701a      	strb	r2, [r3, #0]
        break;
 8002800:	e01e      	b.n	8002840 <HAL_LPTIM_RegisterCallback+0x118>
    }
  }
  else if (hlptim->State == HAL_LPTIM_STATE_RESET)
 8002802:	68fb      	ldr	r3, [r7, #12]
 8002804:	2252      	movs	r2, #82	@ 0x52
 8002806:	5c9b      	ldrb	r3, [r3, r2]
 8002808:	b2db      	uxtb	r3, r3
 800280a:	2b00      	cmp	r3, #0
 800280c:	d114      	bne.n	8002838 <HAL_LPTIM_RegisterCallback+0x110>
  {
    switch (CallbackID)
 800280e:	230b      	movs	r3, #11
 8002810:	18fb      	adds	r3, r7, r3
 8002812:	781b      	ldrb	r3, [r3, #0]
 8002814:	2b00      	cmp	r3, #0
 8002816:	d002      	beq.n	800281e <HAL_LPTIM_RegisterCallback+0xf6>
 8002818:	2b01      	cmp	r3, #1
 800281a:	d004      	beq.n	8002826 <HAL_LPTIM_RegisterCallback+0xfe>
 800281c:	e007      	b.n	800282e <HAL_LPTIM_RegisterCallback+0x106>
    {
      case HAL_LPTIM_MSPINIT_CB_ID :
        hlptim->MspInitCallback = pCallback;
 800281e:	68fb      	ldr	r3, [r7, #12]
 8002820:	687a      	ldr	r2, [r7, #4]
 8002822:	659a      	str	r2, [r3, #88]	@ 0x58
        break;
 8002824:	e00c      	b.n	8002840 <HAL_LPTIM_RegisterCallback+0x118>

      case HAL_LPTIM_MSPDEINIT_CB_ID :
        hlptim->MspDeInitCallback = pCallback;
 8002826:	68fb      	ldr	r3, [r7, #12]
 8002828:	687a      	ldr	r2, [r7, #4]
 800282a:	65da      	str	r2, [r3, #92]	@ 0x5c
        break;
 800282c:	e008      	b.n	8002840 <HAL_LPTIM_RegisterCallback+0x118>

      default :
        /* Return error status */
        status =  HAL_ERROR;
 800282e:	2317      	movs	r3, #23
 8002830:	18fb      	adds	r3, r7, r3
 8002832:	2201      	movs	r2, #1
 8002834:	701a      	strb	r2, [r3, #0]
        break;
 8002836:	e003      	b.n	8002840 <HAL_LPTIM_RegisterCallback+0x118>
    }
  }
  else
  {
    /* Return error status */
    status =  HAL_ERROR;
 8002838:	2317      	movs	r3, #23
 800283a:	18fb      	adds	r3, r7, r3
 800283c:	2201      	movs	r2, #1
 800283e:	701a      	strb	r2, [r3, #0]
  }

  return status;
 8002840:	2317      	movs	r3, #23
 8002842:	18fb      	adds	r3, r7, r3
 8002844:	781b      	ldrb	r3, [r3, #0]
}
 8002846:	0018      	movs	r0, r3
 8002848:	46bd      	mov	sp, r7
 800284a:	b006      	add	sp, #24
 800284c:	bd80      	pop	{r7, pc}
 800284e:	46c0      	nop			@ (mov r8, r8)
 8002850:	08005ef8 	.word	0x08005ef8

08002854 <LPTIM_ResetCallback>:
  * @param  lptim pointer to a LPTIM_HandleTypeDef structure that contains
  *                the configuration information for LPTIM module.
  * @retval None
  */
static void LPTIM_ResetCallback(LPTIM_HandleTypeDef *lptim)
{
 8002854:	b580      	push	{r7, lr}
 8002856:	b082      	sub	sp, #8
 8002858:	af00      	add	r7, sp, #0
 800285a:	6078      	str	r0, [r7, #4]
  /* Reset the LPTIM callback to the legacy weak callbacks */
  lptim->CompareMatchCallback    = HAL_LPTIM_CompareMatchCallback;
 800285c:	687b      	ldr	r3, [r7, #4]
 800285e:	4a19      	ldr	r2, [pc, #100]	@ (80028c4 <LPTIM_ResetCallback+0x70>)
 8002860:	661a      	str	r2, [r3, #96]	@ 0x60
  lptim->AutoReloadMatchCallback = HAL_LPTIM_AutoReloadMatchCallback;
 8002862:	687b      	ldr	r3, [r7, #4]
 8002864:	4a18      	ldr	r2, [pc, #96]	@ (80028c8 <LPTIM_ResetCallback+0x74>)
 8002866:	665a      	str	r2, [r3, #100]	@ 0x64
  lptim->TriggerCallback         = HAL_LPTIM_TriggerCallback;
 8002868:	687b      	ldr	r3, [r7, #4]
 800286a:	4a18      	ldr	r2, [pc, #96]	@ (80028cc <LPTIM_ResetCallback+0x78>)
 800286c:	669a      	str	r2, [r3, #104]	@ 0x68
  lptim->CompareWriteCallback    = HAL_LPTIM_CompareWriteCallback;
 800286e:	687b      	ldr	r3, [r7, #4]
 8002870:	4a17      	ldr	r2, [pc, #92]	@ (80028d0 <LPTIM_ResetCallback+0x7c>)
 8002872:	66da      	str	r2, [r3, #108]	@ 0x6c
  lptim->AutoReloadWriteCallback = HAL_LPTIM_AutoReloadWriteCallback;
 8002874:	687b      	ldr	r3, [r7, #4]
 8002876:	4a17      	ldr	r2, [pc, #92]	@ (80028d4 <LPTIM_ResetCallback+0x80>)
 8002878:	671a      	str	r2, [r3, #112]	@ 0x70
  lptim->DirectionUpCallback     = HAL_LPTIM_DirectionUpCallback;
 800287a:	687b      	ldr	r3, [r7, #4]
 800287c:	4a16      	ldr	r2, [pc, #88]	@ (80028d8 <LPTIM_ResetCallback+0x84>)
 800287e:	675a      	str	r2, [r3, #116]	@ 0x74
  lptim->DirectionDownCallback   = HAL_LPTIM_DirectionDownCallback;
 8002880:	687b      	ldr	r3, [r7, #4]
 8002882:	4a16      	ldr	r2, [pc, #88]	@ (80028dc <LPTIM_ResetCallback+0x88>)
 8002884:	679a      	str	r2, [r3, #120]	@ 0x78
  lptim->UpdateEventCallback = HAL_LPTIM_UpdateEventCallback;
 8002886:	687b      	ldr	r3, [r7, #4]
 8002888:	4a15      	ldr	r2, [pc, #84]	@ (80028e0 <LPTIM_ResetCallback+0x8c>)
 800288a:	67da      	str	r2, [r3, #124]	@ 0x7c
  lptim->RepCounterWriteCallback = HAL_LPTIM_RepCounterWriteCallback;
 800288c:	687b      	ldr	r3, [r7, #4]
 800288e:	2180      	movs	r1, #128	@ 0x80
 8002890:	4a14      	ldr	r2, [pc, #80]	@ (80028e4 <LPTIM_ResetCallback+0x90>)
 8002892:	505a      	str	r2, [r3, r1]
  lptim->UpdateEventHalfCpltCallback = HAL_LPTIM_UpdateEventHalfCpltCallback;
 8002894:	687b      	ldr	r3, [r7, #4]
 8002896:	2184      	movs	r1, #132	@ 0x84
 8002898:	4a13      	ldr	r2, [pc, #76]	@ (80028e8 <LPTIM_ResetCallback+0x94>)
 800289a:	505a      	str	r2, [r3, r1]
  lptim->IC_CaptureCallback      = HAL_LPTIM_IC_CaptureCallback;
 800289c:	687b      	ldr	r3, [r7, #4]
 800289e:	218c      	movs	r1, #140	@ 0x8c
 80028a0:	4a12      	ldr	r2, [pc, #72]	@ (80028ec <LPTIM_ResetCallback+0x98>)
 80028a2:	505a      	str	r2, [r3, r1]
  lptim->IC_CaptureHalfCpltCallback = HAL_LPTIM_IC_CaptureHalfCpltCallback;
 80028a4:	687b      	ldr	r3, [r7, #4]
 80028a6:	2190      	movs	r1, #144	@ 0x90
 80028a8:	4a11      	ldr	r2, [pc, #68]	@ (80028f0 <LPTIM_ResetCallback+0x9c>)
 80028aa:	505a      	str	r2, [r3, r1]
  lptim->IC_OverCaptureCallback  = HAL_LPTIM_IC_OverCaptureCallback;
 80028ac:	687b      	ldr	r3, [r7, #4]
 80028ae:	2194      	movs	r1, #148	@ 0x94
 80028b0:	4a10      	ldr	r2, [pc, #64]	@ (80028f4 <LPTIM_ResetCallback+0xa0>)
 80028b2:	505a      	str	r2, [r3, r1]
  lptim->ErrorCallback           = HAL_LPTIM_ErrorCallback;
 80028b4:	687b      	ldr	r3, [r7, #4]
 80028b6:	2188      	movs	r1, #136	@ 0x88
 80028b8:	4a0f      	ldr	r2, [pc, #60]	@ (80028f8 <LPTIM_ResetCallback+0xa4>)
 80028ba:	505a      	str	r2, [r3, r1]
}
 80028bc:	46c0      	nop			@ (mov r8, r8)
 80028be:	46bd      	mov	sp, r7
 80028c0:	b002      	add	sp, #8
 80028c2:	bd80      	pop	{r7, pc}
 80028c4:	08002647 	.word	0x08002647
 80028c8:	08002657 	.word	0x08002657
 80028cc:	08002667 	.word	0x08002667
 80028d0:	08002677 	.word	0x08002677
 80028d4:	08002687 	.word	0x08002687
 80028d8:	08002697 	.word	0x08002697
 80028dc:	080026a7 	.word	0x080026a7
 80028e0:	080026b7 	.word	0x080026b7
 80028e4:	080026c7 	.word	0x080026c7
 80028e8:	08002707 	.word	0x08002707
 80028ec:	080026d7 	.word	0x080026d7
 80028f0:	080026f7 	.word	0x080026f7
 80028f4:	080026e7 	.word	0x080026e7
 80028f8:	08002717 	.word	0x08002717

080028fc <LPTIM_WaitForFlag>:
  *                the configuration information for LPTIM module.
  * @param  flag   The lptim flag
  * @retval HAL status
  */
static HAL_StatusTypeDef LPTIM_WaitForFlag(const LPTIM_HandleTypeDef *hlptim, uint32_t flag)
{
 80028fc:	b580      	push	{r7, lr}
 80028fe:	b084      	sub	sp, #16
 8002900:	af00      	add	r7, sp, #0
 8002902:	6078      	str	r0, [r7, #4]
 8002904:	6039      	str	r1, [r7, #0]
  HAL_StatusTypeDef result = HAL_OK;
 8002906:	230f      	movs	r3, #15
 8002908:	18fb      	adds	r3, r7, r3
 800290a:	2200      	movs	r2, #0
 800290c:	701a      	strb	r2, [r3, #0]
  uint32_t count = TIMEOUT * (SystemCoreClock / 20UL / 1000UL);
 800290e:	4b15      	ldr	r3, [pc, #84]	@ (8002964 <LPTIM_WaitForFlag+0x68>)
 8002910:	681b      	ldr	r3, [r3, #0]
 8002912:	4915      	ldr	r1, [pc, #84]	@ (8002968 <LPTIM_WaitForFlag+0x6c>)
 8002914:	0018      	movs	r0, r3
 8002916:	f7fd fc09 	bl	800012c <__udivsi3>
 800291a:	0003      	movs	r3, r0
 800291c:	001a      	movs	r2, r3
 800291e:	0013      	movs	r3, r2
 8002920:	015b      	lsls	r3, r3, #5
 8002922:	1a9b      	subs	r3, r3, r2
 8002924:	009b      	lsls	r3, r3, #2
 8002926:	189b      	adds	r3, r3, r2
 8002928:	00db      	lsls	r3, r3, #3
 800292a:	60bb      	str	r3, [r7, #8]
  do
  {
    count--;
 800292c:	68bb      	ldr	r3, [r7, #8]
 800292e:	3b01      	subs	r3, #1
 8002930:	60bb      	str	r3, [r7, #8]
    if (count == 0UL)
 8002932:	68bb      	ldr	r3, [r7, #8]
 8002934:	2b00      	cmp	r3, #0
 8002936:	d103      	bne.n	8002940 <LPTIM_WaitForFlag+0x44>
    {
      result = HAL_TIMEOUT;
 8002938:	230f      	movs	r3, #15
 800293a:	18fb      	adds	r3, r7, r3
 800293c:	2203      	movs	r2, #3
 800293e:	701a      	strb	r2, [r3, #0]
    }
  } while ((!(__HAL_LPTIM_GET_FLAG((hlptim), (flag)))) && (count != 0UL));
 8002940:	687b      	ldr	r3, [r7, #4]
 8002942:	681b      	ldr	r3, [r3, #0]
 8002944:	681b      	ldr	r3, [r3, #0]
 8002946:	683a      	ldr	r2, [r7, #0]
 8002948:	4013      	ands	r3, r2
 800294a:	683a      	ldr	r2, [r7, #0]
 800294c:	429a      	cmp	r2, r3
 800294e:	d002      	beq.n	8002956 <LPTIM_WaitForFlag+0x5a>
 8002950:	68bb      	ldr	r3, [r7, #8]
 8002952:	2b00      	cmp	r3, #0
 8002954:	d1ea      	bne.n	800292c <LPTIM_WaitForFlag+0x30>

  return result;
 8002956:	230f      	movs	r3, #15
 8002958:	18fb      	adds	r3, r7, r3
 800295a:	781b      	ldrb	r3, [r3, #0]
}
 800295c:	0018      	movs	r0, r3
 800295e:	46bd      	mov	sp, r7
 8002960:	b004      	add	sp, #16
 8002962:	bd80      	pop	{r7, pc}
 8002964:	20000014 	.word	0x20000014
 8002968:	00004e20 	.word	0x00004e20

0800296c <HAL_PWREx_ControlVoltageScaling>:
  *        cleared before returning the status. If the flag is not cleared within
  *        50 microseconds, HAL_TIMEOUT status is reported.
  * @retval HAL Status
  */
HAL_StatusTypeDef HAL_PWREx_ControlVoltageScaling(uint32_t VoltageScaling)
{
 800296c:	b580      	push	{r7, lr}
 800296e:	b084      	sub	sp, #16
 8002970:	af00      	add	r7, sp, #0
 8002972:	6078      	str	r0, [r7, #4]
  uint32_t wait_loop_index;
  assert_param(IS_PWR_VOLTAGE_SCALING_RANGE(VoltageScaling));

  /* If Set Range 1 */
  if (VoltageScaling == PWR_REGULATOR_VOLTAGE_SCALE1)
 8002974:	687a      	ldr	r2, [r7, #4]
 8002976:	2380      	movs	r3, #128	@ 0x80
 8002978:	009b      	lsls	r3, r3, #2
 800297a:	429a      	cmp	r2, r3
 800297c:	d137      	bne.n	80029ee <HAL_PWREx_ControlVoltageScaling+0x82>
  {
    if (READ_BIT(PWR->CR1, PWR_CR1_VOS) != PWR_REGULATOR_VOLTAGE_SCALE1)
 800297e:	4b27      	ldr	r3, [pc, #156]	@ (8002a1c <HAL_PWREx_ControlVoltageScaling+0xb0>)
 8002980:	681a      	ldr	r2, [r3, #0]
 8002982:	23c0      	movs	r3, #192	@ 0xc0
 8002984:	00db      	lsls	r3, r3, #3
 8002986:	401a      	ands	r2, r3
 8002988:	2380      	movs	r3, #128	@ 0x80
 800298a:	009b      	lsls	r3, r3, #2
 800298c:	429a      	cmp	r2, r3
 800298e:	d040      	beq.n	8002a12 <HAL_PWREx_ControlVoltageScaling+0xa6>
    {
      /* Set Range 1 */
      MODIFY_REG(PWR->CR1, PWR_CR1_VOS, PWR_REGULATOR_VOLTAGE_SCALE1);
 8002990:	4b22      	ldr	r3, [pc, #136]	@ (8002a1c <HAL_PWREx_ControlVoltageScaling+0xb0>)
 8002992:	681b      	ldr	r3, [r3, #0]
 8002994:	4a22      	ldr	r2, [pc, #136]	@ (8002a20 <HAL_PWREx_ControlVoltageScaling+0xb4>)
 8002996:	401a      	ands	r2, r3
 8002998:	4b20      	ldr	r3, [pc, #128]	@ (8002a1c <HAL_PWREx_ControlVoltageScaling+0xb0>)
 800299a:	2180      	movs	r1, #128	@ 0x80
 800299c:	0089      	lsls	r1, r1, #2
 800299e:	430a      	orrs	r2, r1
 80029a0:	601a      	str	r2, [r3, #0]
      /* Wait until VOSF is cleared */
      wait_loop_index = ((PWR_FLAG_SETTING_DELAY_US * SystemCoreClock) / 1000000U) + 1U;
 80029a2:	4b20      	ldr	r3, [pc, #128]	@ (8002a24 <HAL_PWREx_ControlVoltageScaling+0xb8>)
 80029a4:	681b      	ldr	r3, [r3, #0]
 80029a6:	2232      	movs	r2, #50	@ 0x32
 80029a8:	4353      	muls	r3, r2
 80029aa:	491f      	ldr	r1, [pc, #124]	@ (8002a28 <HAL_PWREx_ControlVoltageScaling+0xbc>)
 80029ac:	0018      	movs	r0, r3
 80029ae:	f7fd fbbd 	bl	800012c <__udivsi3>
 80029b2:	0003      	movs	r3, r0
 80029b4:	3301      	adds	r3, #1
 80029b6:	60fb      	str	r3, [r7, #12]
      while ((HAL_IS_BIT_SET(PWR->SR2, PWR_SR2_VOSF)) && (wait_loop_index != 0U))
 80029b8:	e002      	b.n	80029c0 <HAL_PWREx_ControlVoltageScaling+0x54>
      {
        wait_loop_index--;
 80029ba:	68fb      	ldr	r3, [r7, #12]
 80029bc:	3b01      	subs	r3, #1
 80029be:	60fb      	str	r3, [r7, #12]
      while ((HAL_IS_BIT_SET(PWR->SR2, PWR_SR2_VOSF)) && (wait_loop_index != 0U))
 80029c0:	4b16      	ldr	r3, [pc, #88]	@ (8002a1c <HAL_PWREx_ControlVoltageScaling+0xb0>)
 80029c2:	695a      	ldr	r2, [r3, #20]
 80029c4:	2380      	movs	r3, #128	@ 0x80
 80029c6:	00db      	lsls	r3, r3, #3
 80029c8:	401a      	ands	r2, r3
 80029ca:	2380      	movs	r3, #128	@ 0x80
 80029cc:	00db      	lsls	r3, r3, #3
 80029ce:	429a      	cmp	r2, r3
 80029d0:	d102      	bne.n	80029d8 <HAL_PWREx_ControlVoltageScaling+0x6c>
 80029d2:	68fb      	ldr	r3, [r7, #12]
 80029d4:	2b00      	cmp	r3, #0
 80029d6:	d1f0      	bne.n	80029ba <HAL_PWREx_ControlVoltageScaling+0x4e>
      }
      if (HAL_IS_BIT_SET(PWR->SR2, PWR_SR2_VOSF))
 80029d8:	4b10      	ldr	r3, [pc, #64]	@ (8002a1c <HAL_PWREx_ControlVoltageScaling+0xb0>)
 80029da:	695a      	ldr	r2, [r3, #20]
 80029dc:	2380      	movs	r3, #128	@ 0x80
 80029de:	00db      	lsls	r3, r3, #3
 80029e0:	401a      	ands	r2, r3
 80029e2:	2380      	movs	r3, #128	@ 0x80
 80029e4:	00db      	lsls	r3, r3, #3
 80029e6:	429a      	cmp	r2, r3
 80029e8:	d113      	bne.n	8002a12 <HAL_PWREx_ControlVoltageScaling+0xa6>
      {
        return HAL_TIMEOUT;
 80029ea:	2303      	movs	r3, #3
 80029ec:	e012      	b.n	8002a14 <HAL_PWREx_ControlVoltageScaling+0xa8>
      }
    }
  }
  else
  {
    if (READ_BIT(PWR->CR1, PWR_CR1_VOS) != PWR_REGULATOR_VOLTAGE_SCALE2)
 80029ee:	4b0b      	ldr	r3, [pc, #44]	@ (8002a1c <HAL_PWREx_ControlVoltageScaling+0xb0>)
 80029f0:	681a      	ldr	r2, [r3, #0]
 80029f2:	23c0      	movs	r3, #192	@ 0xc0
 80029f4:	00db      	lsls	r3, r3, #3
 80029f6:	401a      	ands	r2, r3
 80029f8:	2380      	movs	r3, #128	@ 0x80
 80029fa:	00db      	lsls	r3, r3, #3
 80029fc:	429a      	cmp	r2, r3
 80029fe:	d008      	beq.n	8002a12 <HAL_PWREx_ControlVoltageScaling+0xa6>
    {
      /* Set Range 2 */
      MODIFY_REG(PWR->CR1, PWR_CR1_VOS, PWR_REGULATOR_VOLTAGE_SCALE2);
 8002a00:	4b06      	ldr	r3, [pc, #24]	@ (8002a1c <HAL_PWREx_ControlVoltageScaling+0xb0>)
 8002a02:	681b      	ldr	r3, [r3, #0]
 8002a04:	4a06      	ldr	r2, [pc, #24]	@ (8002a20 <HAL_PWREx_ControlVoltageScaling+0xb4>)
 8002a06:	401a      	ands	r2, r3
 8002a08:	4b04      	ldr	r3, [pc, #16]	@ (8002a1c <HAL_PWREx_ControlVoltageScaling+0xb0>)
 8002a0a:	2180      	movs	r1, #128	@ 0x80
 8002a0c:	00c9      	lsls	r1, r1, #3
 8002a0e:	430a      	orrs	r2, r1
 8002a10:	601a      	str	r2, [r3, #0]
      /* No need to wait for VOSF to be cleared for this transition */
    }
  }
  return HAL_OK;
 8002a12:	2300      	movs	r3, #0
}
 8002a14:	0018      	movs	r0, r3
 8002a16:	46bd      	mov	sp, r7
 8002a18:	b004      	add	sp, #16
 8002a1a:	bd80      	pop	{r7, pc}
 8002a1c:	40007000 	.word	0x40007000
 8002a20:	fffff9ff 	.word	0xfffff9ff
 8002a24:	20000014 	.word	0x20000014
 8002a28:	000f4240 	.word	0x000f4240

08002a2c <HAL_PWREx_GetVoltageRange>:
  * @brief Return Voltage Scaling Range.
  * @retval VOS bit field (PWR_REGULATOR_VOLTAGE_SCALE1 or PWR_REGULATOR_VOLTAGE_SCALE2)
  *
  */
uint32_t HAL_PWREx_GetVoltageRange(void)
{
 8002a2c:	b580      	push	{r7, lr}
 8002a2e:	af00      	add	r7, sp, #0
  return (PWR->CR1 & PWR_CR1_VOS);
 8002a30:	4b03      	ldr	r3, [pc, #12]	@ (8002a40 <HAL_PWREx_GetVoltageRange+0x14>)
 8002a32:	681a      	ldr	r2, [r3, #0]
 8002a34:	23c0      	movs	r3, #192	@ 0xc0
 8002a36:	00db      	lsls	r3, r3, #3
 8002a38:	4013      	ands	r3, r2
}
 8002a3a:	0018      	movs	r0, r3
 8002a3c:	46bd      	mov	sp, r7
 8002a3e:	bd80      	pop	{r7, pc}
 8002a40:	40007000 	.word	0x40007000

08002a44 <HAL_PWREx_EnterSTOP2Mode>:
  *            @arg @ref PWR_STOPENTRY_WFI  Enter Stop mode with WFI instruction
  *            @arg @ref PWR_STOPENTRY_WFE  Enter Stop mode with WFE instruction
  * @retval None
  */
void HAL_PWREx_EnterSTOP2Mode(uint8_t STOPEntry)
{
 8002a44:	b580      	push	{r7, lr}
 8002a46:	b082      	sub	sp, #8
 8002a48:	af00      	add	r7, sp, #0
 8002a4a:	0002      	movs	r2, r0
 8002a4c:	1dfb      	adds	r3, r7, #7
 8002a4e:	701a      	strb	r2, [r3, #0]
  /* Check the parameter */
  assert_param(IS_PWR_STOP_ENTRY(STOPEntry));
  /* Clear LPR Bit */
  CLEAR_BIT(PWR->CR1, PWR_CR1_LPR);
 8002a50:	4b13      	ldr	r3, [pc, #76]	@ (8002aa0 <HAL_PWREx_EnterSTOP2Mode+0x5c>)
 8002a52:	681a      	ldr	r2, [r3, #0]
 8002a54:	4b12      	ldr	r3, [pc, #72]	@ (8002aa0 <HAL_PWREx_EnterSTOP2Mode+0x5c>)
 8002a56:	4913      	ldr	r1, [pc, #76]	@ (8002aa4 <HAL_PWREx_EnterSTOP2Mode+0x60>)
 8002a58:	400a      	ands	r2, r1
 8002a5a:	601a      	str	r2, [r3, #0]
  /* Set Stop mode 2 */
  MODIFY_REG(PWR->CR1, PWR_CR1_LPMS, PWR_CR1_LPMS_1);
 8002a5c:	4b10      	ldr	r3, [pc, #64]	@ (8002aa0 <HAL_PWREx_EnterSTOP2Mode+0x5c>)
 8002a5e:	681b      	ldr	r3, [r3, #0]
 8002a60:	2207      	movs	r2, #7
 8002a62:	4393      	bics	r3, r2
 8002a64:	001a      	movs	r2, r3
 8002a66:	4b0e      	ldr	r3, [pc, #56]	@ (8002aa0 <HAL_PWREx_EnterSTOP2Mode+0x5c>)
 8002a68:	2102      	movs	r1, #2
 8002a6a:	430a      	orrs	r2, r1
 8002a6c:	601a      	str	r2, [r3, #0]

  /* Set SLEEPDEEP bit of Cortex System Control Register */
  SET_BIT(SCB->SCR, ((uint32_t)SCB_SCR_SLEEPDEEP_Msk));
 8002a6e:	4b0e      	ldr	r3, [pc, #56]	@ (8002aa8 <HAL_PWREx_EnterSTOP2Mode+0x64>)
 8002a70:	691a      	ldr	r2, [r3, #16]
 8002a72:	4b0d      	ldr	r3, [pc, #52]	@ (8002aa8 <HAL_PWREx_EnterSTOP2Mode+0x64>)
 8002a74:	2104      	movs	r1, #4
 8002a76:	430a      	orrs	r2, r1
 8002a78:	611a      	str	r2, [r3, #16]

  /* Select Stop mode entry --------------------------------------------------*/
  if (STOPEntry == PWR_STOPENTRY_WFI)
 8002a7a:	1dfb      	adds	r3, r7, #7
 8002a7c:	781b      	ldrb	r3, [r3, #0]
 8002a7e:	2b01      	cmp	r3, #1
 8002a80:	d101      	bne.n	8002a86 <HAL_PWREx_EnterSTOP2Mode+0x42>
  {
    /* Request Wait For Interrupt */
    __WFI();
 8002a82:	bf30      	wfi
 8002a84:	e002      	b.n	8002a8c <HAL_PWREx_EnterSTOP2Mode+0x48>
  }
  else
  {
    /* Request Wait For Event */
    __SEV();
 8002a86:	bf40      	sev
    __WFE();
 8002a88:	bf20      	wfe
    __WFE();
 8002a8a:	bf20      	wfe
  }

  /* Reset SLEEPDEEP bit of Cortex System Control Register */
  CLEAR_BIT(SCB->SCR, ((uint32_t)SCB_SCR_SLEEPDEEP_Msk));
 8002a8c:	4b06      	ldr	r3, [pc, #24]	@ (8002aa8 <HAL_PWREx_EnterSTOP2Mode+0x64>)
 8002a8e:	691a      	ldr	r2, [r3, #16]
 8002a90:	4b05      	ldr	r3, [pc, #20]	@ (8002aa8 <HAL_PWREx_EnterSTOP2Mode+0x64>)
 8002a92:	2104      	movs	r1, #4
 8002a94:	438a      	bics	r2, r1
 8002a96:	611a      	str	r2, [r3, #16]
}
 8002a98:	46c0      	nop			@ (mov r8, r8)
 8002a9a:	46bd      	mov	sp, r7
 8002a9c:	b002      	add	sp, #8
 8002a9e:	bd80      	pop	{r7, pc}
 8002aa0:	40007000 	.word	0x40007000
 8002aa4:	ffffbfff 	.word	0xffffbfff
 8002aa8:	e000ed00 	.word	0xe000ed00

08002aac <HAL_RCC_OscConfig>:
  *         supported by this macro. User should request a transition to HSE Off
  *         first and then HSE On or HSE Bypass.
  * @retval HAL status
  */
HAL_StatusTypeDef HAL_RCC_OscConfig(RCC_OscInitTypeDef  *RCC_OscInitStruct)
{
 8002aac:	b5b0      	push	{r4, r5, r7, lr}
 8002aae:	b088      	sub	sp, #32
 8002ab0:	af00      	add	r7, sp, #0
 8002ab2:	6078      	str	r0, [r7, #4]

  /* Check the parameters */
  assert_param(RCC_OscInitStruct != NULL);
  assert_param(IS_RCC_OSCILLATORTYPE(RCC_OscInitStruct->OscillatorType));

  sysclk_source = __HAL_RCC_GET_SYSCLK_SOURCE();
 8002ab4:	4bc8      	ldr	r3, [pc, #800]	@ (8002dd8 <HAL_RCC_OscConfig+0x32c>)
 8002ab6:	689b      	ldr	r3, [r3, #8]
 8002ab8:	2238      	movs	r2, #56	@ 0x38
 8002aba:	4013      	ands	r3, r2
 8002abc:	61bb      	str	r3, [r7, #24]
  pll_config = __HAL_RCC_GET_PLL_OSCSOURCE();
 8002abe:	4bc6      	ldr	r3, [pc, #792]	@ (8002dd8 <HAL_RCC_OscConfig+0x32c>)
 8002ac0:	68db      	ldr	r3, [r3, #12]
 8002ac2:	2203      	movs	r2, #3
 8002ac4:	4013      	ands	r3, r2
 8002ac6:	617b      	str	r3, [r7, #20]

  /*----------------------------- MSI Configuration --------------------------*/
  if (((RCC_OscInitStruct->OscillatorType) & RCC_OSCILLATORTYPE_MSI) == RCC_OSCILLATORTYPE_MSI)
 8002ac8:	687b      	ldr	r3, [r7, #4]
 8002aca:	681b      	ldr	r3, [r3, #0]
 8002acc:	2210      	movs	r2, #16
 8002ace:	4013      	ands	r3, r2
 8002ad0:	d100      	bne.n	8002ad4 <HAL_RCC_OscConfig+0x28>
 8002ad2:	e0ee      	b.n	8002cb2 <HAL_RCC_OscConfig+0x206>
    assert_param(IS_RCC_MSI(RCC_OscInitStruct->MSIState));
    assert_param(IS_RCC_MSICALIBRATION_VALUE(RCC_OscInitStruct->MSICalibrationValue));
    assert_param(IS_RCC_MSI_CLOCK_RANGE(RCC_OscInitStruct->MSIClockRange));

    /* Check if MSI is used as system clock or as PLL source when PLL is selected as system clock */
    if ((sysclk_source == RCC_SYSCLKSOURCE_STATUS_MSI) ||
 8002ad4:	69bb      	ldr	r3, [r7, #24]
 8002ad6:	2b00      	cmp	r3, #0
 8002ad8:	d007      	beq.n	8002aea <HAL_RCC_OscConfig+0x3e>
 8002ada:	69bb      	ldr	r3, [r7, #24]
 8002adc:	2b18      	cmp	r3, #24
 8002ade:	d000      	beq.n	8002ae2 <HAL_RCC_OscConfig+0x36>
 8002ae0:	e093      	b.n	8002c0a <HAL_RCC_OscConfig+0x15e>
        ((sysclk_source == RCC_SYSCLKSOURCE_STATUS_PLLCLK) && (pll_config == RCC_PLLSOURCE_MSI)))
 8002ae2:	697b      	ldr	r3, [r7, #20]
 8002ae4:	2b01      	cmp	r3, #1
 8002ae6:	d000      	beq.n	8002aea <HAL_RCC_OscConfig+0x3e>
 8002ae8:	e08f      	b.n	8002c0a <HAL_RCC_OscConfig+0x15e>
    {
      if ((READ_BIT(RCC->CR, RCC_CR_MSIRDY) != 0U) && (RCC_OscInitStruct->MSIState == RCC_MSI_OFF))
 8002aea:	4bbb      	ldr	r3, [pc, #748]	@ (8002dd8 <HAL_RCC_OscConfig+0x32c>)
 8002aec:	681b      	ldr	r3, [r3, #0]
 8002aee:	2202      	movs	r2, #2
 8002af0:	4013      	ands	r3, r2
 8002af2:	d006      	beq.n	8002b02 <HAL_RCC_OscConfig+0x56>
 8002af4:	687b      	ldr	r3, [r7, #4]
 8002af6:	69db      	ldr	r3, [r3, #28]
 8002af8:	2b00      	cmp	r3, #0
 8002afa:	d102      	bne.n	8002b02 <HAL_RCC_OscConfig+0x56>
      {
        return HAL_ERROR;
 8002afc:	2301      	movs	r3, #1
 8002afe:	f000 fbae 	bl	800325e <HAL_RCC_OscConfig+0x7b2>
      else
      {
        /* To correctly read data from FLASH memory, the number of wait states (LATENCY)
           must be correctly programmed according to the frequency of the CPU clock
           (HCLK) and the supply voltage of the device. */
        if (RCC_OscInitStruct->MSIClockRange > __HAL_RCC_GET_MSI_RANGE())
 8002b02:	687b      	ldr	r3, [r7, #4]
 8002b04:	6a5a      	ldr	r2, [r3, #36]	@ 0x24
 8002b06:	4bb4      	ldr	r3, [pc, #720]	@ (8002dd8 <HAL_RCC_OscConfig+0x32c>)
 8002b08:	681b      	ldr	r3, [r3, #0]
 8002b0a:	2108      	movs	r1, #8
 8002b0c:	400b      	ands	r3, r1
 8002b0e:	d004      	beq.n	8002b1a <HAL_RCC_OscConfig+0x6e>
 8002b10:	4bb1      	ldr	r3, [pc, #708]	@ (8002dd8 <HAL_RCC_OscConfig+0x32c>)
 8002b12:	681b      	ldr	r3, [r3, #0]
 8002b14:	21f0      	movs	r1, #240	@ 0xf0
 8002b16:	400b      	ands	r3, r1
 8002b18:	e005      	b.n	8002b26 <HAL_RCC_OscConfig+0x7a>
 8002b1a:	49af      	ldr	r1, [pc, #700]	@ (8002dd8 <HAL_RCC_OscConfig+0x32c>)
 8002b1c:	2394      	movs	r3, #148	@ 0x94
 8002b1e:	58cb      	ldr	r3, [r1, r3]
 8002b20:	091b      	lsrs	r3, r3, #4
 8002b22:	21f0      	movs	r1, #240	@ 0xf0
 8002b24:	400b      	ands	r3, r1
 8002b26:	4293      	cmp	r3, r2
 8002b28:	d225      	bcs.n	8002b76 <HAL_RCC_OscConfig+0xca>
        {
          /* First increase number of wait states update if necessary */
          if (RCC_SetFlashLatencyFromMSIRange(RCC_OscInitStruct->MSIClockRange) != HAL_OK)
 8002b2a:	687b      	ldr	r3, [r7, #4]
 8002b2c:	6a5b      	ldr	r3, [r3, #36]	@ 0x24
 8002b2e:	0018      	movs	r0, r3
 8002b30:	f000 fe5c 	bl	80037ec <RCC_SetFlashLatencyFromMSIRange>
 8002b34:	1e03      	subs	r3, r0, #0
 8002b36:	d002      	beq.n	8002b3e <HAL_RCC_OscConfig+0x92>
          {
            return HAL_ERROR;
 8002b38:	2301      	movs	r3, #1
 8002b3a:	f000 fb90 	bl	800325e <HAL_RCC_OscConfig+0x7b2>
          }

          /* Selects the Multiple Speed oscillator (MSI) clock range .*/
          __HAL_RCC_MSI_RANGE_CONFIG(RCC_OscInitStruct->MSIClockRange);
 8002b3e:	4ba6      	ldr	r3, [pc, #664]	@ (8002dd8 <HAL_RCC_OscConfig+0x32c>)
 8002b40:	681a      	ldr	r2, [r3, #0]
 8002b42:	4ba5      	ldr	r3, [pc, #660]	@ (8002dd8 <HAL_RCC_OscConfig+0x32c>)
 8002b44:	2108      	movs	r1, #8
 8002b46:	430a      	orrs	r2, r1
 8002b48:	601a      	str	r2, [r3, #0]
 8002b4a:	4ba3      	ldr	r3, [pc, #652]	@ (8002dd8 <HAL_RCC_OscConfig+0x32c>)
 8002b4c:	681b      	ldr	r3, [r3, #0]
 8002b4e:	22f0      	movs	r2, #240	@ 0xf0
 8002b50:	4393      	bics	r3, r2
 8002b52:	0019      	movs	r1, r3
 8002b54:	687b      	ldr	r3, [r7, #4]
 8002b56:	6a5a      	ldr	r2, [r3, #36]	@ 0x24
 8002b58:	4b9f      	ldr	r3, [pc, #636]	@ (8002dd8 <HAL_RCC_OscConfig+0x32c>)
 8002b5a:	430a      	orrs	r2, r1
 8002b5c:	601a      	str	r2, [r3, #0]
          /* Adjusts the Multiple Speed oscillator (MSI) calibration value.*/
          __HAL_RCC_MSI_CALIBRATIONVALUE_ADJUST(RCC_OscInitStruct->MSICalibrationValue);
 8002b5e:	4b9e      	ldr	r3, [pc, #632]	@ (8002dd8 <HAL_RCC_OscConfig+0x32c>)
 8002b60:	685b      	ldr	r3, [r3, #4]
 8002b62:	4a9e      	ldr	r2, [pc, #632]	@ (8002ddc <HAL_RCC_OscConfig+0x330>)
 8002b64:	4013      	ands	r3, r2
 8002b66:	0019      	movs	r1, r3
 8002b68:	687b      	ldr	r3, [r7, #4]
 8002b6a:	6a1b      	ldr	r3, [r3, #32]
 8002b6c:	021a      	lsls	r2, r3, #8
 8002b6e:	4b9a      	ldr	r3, [pc, #616]	@ (8002dd8 <HAL_RCC_OscConfig+0x32c>)
 8002b70:	430a      	orrs	r2, r1
 8002b72:	605a      	str	r2, [r3, #4]
 8002b74:	e027      	b.n	8002bc6 <HAL_RCC_OscConfig+0x11a>
        }
        else
        {
          /* Else, keep current flash latency while decreasing applies */
          /* Selects the Multiple Speed oscillator (MSI) clock range .*/
          __HAL_RCC_MSI_RANGE_CONFIG(RCC_OscInitStruct->MSIClockRange);
 8002b76:	4b98      	ldr	r3, [pc, #608]	@ (8002dd8 <HAL_RCC_OscConfig+0x32c>)
 8002b78:	681a      	ldr	r2, [r3, #0]
 8002b7a:	4b97      	ldr	r3, [pc, #604]	@ (8002dd8 <HAL_RCC_OscConfig+0x32c>)
 8002b7c:	2108      	movs	r1, #8
 8002b7e:	430a      	orrs	r2, r1
 8002b80:	601a      	str	r2, [r3, #0]
 8002b82:	4b95      	ldr	r3, [pc, #596]	@ (8002dd8 <HAL_RCC_OscConfig+0x32c>)
 8002b84:	681b      	ldr	r3, [r3, #0]
 8002b86:	22f0      	movs	r2, #240	@ 0xf0
 8002b88:	4393      	bics	r3, r2
 8002b8a:	0019      	movs	r1, r3
 8002b8c:	687b      	ldr	r3, [r7, #4]
 8002b8e:	6a5a      	ldr	r2, [r3, #36]	@ 0x24
 8002b90:	4b91      	ldr	r3, [pc, #580]	@ (8002dd8 <HAL_RCC_OscConfig+0x32c>)
 8002b92:	430a      	orrs	r2, r1
 8002b94:	601a      	str	r2, [r3, #0]
          /* Adjusts the Multiple Speed oscillator (MSI) calibration value.*/
          __HAL_RCC_MSI_CALIBRATIONVALUE_ADJUST(RCC_OscInitStruct->MSICalibrationValue);
 8002b96:	4b90      	ldr	r3, [pc, #576]	@ (8002dd8 <HAL_RCC_OscConfig+0x32c>)
 8002b98:	685b      	ldr	r3, [r3, #4]
 8002b9a:	4a90      	ldr	r2, [pc, #576]	@ (8002ddc <HAL_RCC_OscConfig+0x330>)
 8002b9c:	4013      	ands	r3, r2
 8002b9e:	0019      	movs	r1, r3
 8002ba0:	687b      	ldr	r3, [r7, #4]
 8002ba2:	6a1b      	ldr	r3, [r3, #32]
 8002ba4:	021a      	lsls	r2, r3, #8
 8002ba6:	4b8c      	ldr	r3, [pc, #560]	@ (8002dd8 <HAL_RCC_OscConfig+0x32c>)
 8002ba8:	430a      	orrs	r2, r1
 8002baa:	605a      	str	r2, [r3, #4]

          /* Decrease number of wait states update if necessary */
          /* Only possible when MSI is the System clock source  */
          if (sysclk_source == RCC_SYSCLKSOURCE_STATUS_MSI)
 8002bac:	69bb      	ldr	r3, [r7, #24]
 8002bae:	2b00      	cmp	r3, #0
 8002bb0:	d109      	bne.n	8002bc6 <HAL_RCC_OscConfig+0x11a>
          {
            if (RCC_SetFlashLatencyFromMSIRange(RCC_OscInitStruct->MSIClockRange) != HAL_OK)
 8002bb2:	687b      	ldr	r3, [r7, #4]
 8002bb4:	6a5b      	ldr	r3, [r3, #36]	@ 0x24
 8002bb6:	0018      	movs	r0, r3
 8002bb8:	f000 fe18 	bl	80037ec <RCC_SetFlashLatencyFromMSIRange>
 8002bbc:	1e03      	subs	r3, r0, #0
 8002bbe:	d002      	beq.n	8002bc6 <HAL_RCC_OscConfig+0x11a>
            {
              return HAL_ERROR;
 8002bc0:	2301      	movs	r3, #1
 8002bc2:	f000 fb4c 	bl	800325e <HAL_RCC_OscConfig+0x7b2>
            }
          }
        }

        /* Update the SystemCoreClock global variable */
        SystemCoreClock = HAL_RCC_GetSysClockFreq() >> (AHBPrescTable[READ_BIT(RCC->CFGR, RCC_CFGR_HPRE) \
 8002bc6:	f000 fc43 	bl	8003450 <HAL_RCC_GetSysClockFreq>
 8002bca:	0001      	movs	r1, r0
 8002bcc:	4b82      	ldr	r3, [pc, #520]	@ (8002dd8 <HAL_RCC_OscConfig+0x32c>)
 8002bce:	689b      	ldr	r3, [r3, #8]
                                                                      >> RCC_CFGR_HPRE_Pos] & 0x1FU);
 8002bd0:	0a1b      	lsrs	r3, r3, #8
 8002bd2:	220f      	movs	r2, #15
 8002bd4:	4013      	ands	r3, r2
        SystemCoreClock = HAL_RCC_GetSysClockFreq() >> (AHBPrescTable[READ_BIT(RCC->CFGR, RCC_CFGR_HPRE) \
 8002bd6:	4a82      	ldr	r2, [pc, #520]	@ (8002de0 <HAL_RCC_OscConfig+0x334>)
 8002bd8:	5cd3      	ldrb	r3, [r2, r3]
                                                                      >> RCC_CFGR_HPRE_Pos] & 0x1FU);
 8002bda:	001a      	movs	r2, r3
 8002bdc:	231f      	movs	r3, #31
 8002bde:	4013      	ands	r3, r2
        SystemCoreClock = HAL_RCC_GetSysClockFreq() >> (AHBPrescTable[READ_BIT(RCC->CFGR, RCC_CFGR_HPRE) \
 8002be0:	000a      	movs	r2, r1
 8002be2:	40da      	lsrs	r2, r3
 8002be4:	4b7f      	ldr	r3, [pc, #508]	@ (8002de4 <HAL_RCC_OscConfig+0x338>)
 8002be6:	601a      	str	r2, [r3, #0]

        /* Configure the source of time base considering new system clocks settings*/
        status = HAL_InitTick(uwTickPrio);
 8002be8:	4b7f      	ldr	r3, [pc, #508]	@ (8002de8 <HAL_RCC_OscConfig+0x33c>)
 8002bea:	681b      	ldr	r3, [r3, #0]
 8002bec:	250f      	movs	r5, #15
 8002bee:	197c      	adds	r4, r7, r5
 8002bf0:	0018      	movs	r0, r3
 8002bf2:	f7fe fd99 	bl	8001728 <HAL_InitTick>
 8002bf6:	0003      	movs	r3, r0
 8002bf8:	7023      	strb	r3, [r4, #0]
        if (status != HAL_OK)
 8002bfa:	197b      	adds	r3, r7, r5
 8002bfc:	781b      	ldrb	r3, [r3, #0]
 8002bfe:	2b00      	cmp	r3, #0
 8002c00:	d056      	beq.n	8002cb0 <HAL_RCC_OscConfig+0x204>
        {
          return status;
 8002c02:	197b      	adds	r3, r7, r5
 8002c04:	781b      	ldrb	r3, [r3, #0]
 8002c06:	f000 fb2a 	bl	800325e <HAL_RCC_OscConfig+0x7b2>
      }
    }
    else
    {
      /* Check the MSI State */
      if (RCC_OscInitStruct->MSIState != RCC_MSI_OFF)
 8002c0a:	687b      	ldr	r3, [r7, #4]
 8002c0c:	69db      	ldr	r3, [r3, #28]
 8002c0e:	2b00      	cmp	r3, #0
 8002c10:	d034      	beq.n	8002c7c <HAL_RCC_OscConfig+0x1d0>
      {
        /* Enable the Internal High Speed oscillator (MSI). */
        __HAL_RCC_MSI_ENABLE();
 8002c12:	4b71      	ldr	r3, [pc, #452]	@ (8002dd8 <HAL_RCC_OscConfig+0x32c>)
 8002c14:	681a      	ldr	r2, [r3, #0]
 8002c16:	4b70      	ldr	r3, [pc, #448]	@ (8002dd8 <HAL_RCC_OscConfig+0x32c>)
 8002c18:	2101      	movs	r1, #1
 8002c1a:	430a      	orrs	r2, r1
 8002c1c:	601a      	str	r2, [r3, #0]

        /* Get timeout */
        tickstart = HAL_GetTick();
 8002c1e:	f7fe fddf 	bl	80017e0 <HAL_GetTick>
 8002c22:	0003      	movs	r3, r0
 8002c24:	613b      	str	r3, [r7, #16]

        /* Wait till MSI is ready */
        while (READ_BIT(RCC->CR, RCC_CR_MSIRDY) == 0U)
 8002c26:	e008      	b.n	8002c3a <HAL_RCC_OscConfig+0x18e>
        {
          if ((HAL_GetTick() - tickstart) > RCC_MSI_TIMEOUT_VALUE)
 8002c28:	f7fe fdda 	bl	80017e0 <HAL_GetTick>
 8002c2c:	0002      	movs	r2, r0
 8002c2e:	693b      	ldr	r3, [r7, #16]
 8002c30:	1ad3      	subs	r3, r2, r3
 8002c32:	2b02      	cmp	r3, #2
 8002c34:	d901      	bls.n	8002c3a <HAL_RCC_OscConfig+0x18e>
          {
            return HAL_TIMEOUT;
 8002c36:	2303      	movs	r3, #3
 8002c38:	e311      	b.n	800325e <HAL_RCC_OscConfig+0x7b2>
        while (READ_BIT(RCC->CR, RCC_CR_MSIRDY) == 0U)
 8002c3a:	4b67      	ldr	r3, [pc, #412]	@ (8002dd8 <HAL_RCC_OscConfig+0x32c>)
 8002c3c:	681b      	ldr	r3, [r3, #0]
 8002c3e:	2202      	movs	r2, #2
 8002c40:	4013      	ands	r3, r2
 8002c42:	d0f1      	beq.n	8002c28 <HAL_RCC_OscConfig+0x17c>
          }
        }
        /* Selects the Multiple Speed oscillator (MSI) clock range .*/
        __HAL_RCC_MSI_RANGE_CONFIG(RCC_OscInitStruct->MSIClockRange);
 8002c44:	4b64      	ldr	r3, [pc, #400]	@ (8002dd8 <HAL_RCC_OscConfig+0x32c>)
 8002c46:	681a      	ldr	r2, [r3, #0]
 8002c48:	4b63      	ldr	r3, [pc, #396]	@ (8002dd8 <HAL_RCC_OscConfig+0x32c>)
 8002c4a:	2108      	movs	r1, #8
 8002c4c:	430a      	orrs	r2, r1
 8002c4e:	601a      	str	r2, [r3, #0]
 8002c50:	4b61      	ldr	r3, [pc, #388]	@ (8002dd8 <HAL_RCC_OscConfig+0x32c>)
 8002c52:	681b      	ldr	r3, [r3, #0]
 8002c54:	22f0      	movs	r2, #240	@ 0xf0
 8002c56:	4393      	bics	r3, r2
 8002c58:	0019      	movs	r1, r3
 8002c5a:	687b      	ldr	r3, [r7, #4]
 8002c5c:	6a5a      	ldr	r2, [r3, #36]	@ 0x24
 8002c5e:	4b5e      	ldr	r3, [pc, #376]	@ (8002dd8 <HAL_RCC_OscConfig+0x32c>)
 8002c60:	430a      	orrs	r2, r1
 8002c62:	601a      	str	r2, [r3, #0]
        /* Adjusts the Multiple Speed oscillator (MSI) calibration value.*/
        __HAL_RCC_MSI_CALIBRATIONVALUE_ADJUST(RCC_OscInitStruct->MSICalibrationValue);
 8002c64:	4b5c      	ldr	r3, [pc, #368]	@ (8002dd8 <HAL_RCC_OscConfig+0x32c>)
 8002c66:	685b      	ldr	r3, [r3, #4]
 8002c68:	4a5c      	ldr	r2, [pc, #368]	@ (8002ddc <HAL_RCC_OscConfig+0x330>)
 8002c6a:	4013      	ands	r3, r2
 8002c6c:	0019      	movs	r1, r3
 8002c6e:	687b      	ldr	r3, [r7, #4]
 8002c70:	6a1b      	ldr	r3, [r3, #32]
 8002c72:	021a      	lsls	r2, r3, #8
 8002c74:	4b58      	ldr	r3, [pc, #352]	@ (8002dd8 <HAL_RCC_OscConfig+0x32c>)
 8002c76:	430a      	orrs	r2, r1
 8002c78:	605a      	str	r2, [r3, #4]
 8002c7a:	e01a      	b.n	8002cb2 <HAL_RCC_OscConfig+0x206>

      }
      else
      {
        /* Disable the Internal High Speed oscillator (MSI). */
        __HAL_RCC_MSI_DISABLE();
 8002c7c:	4b56      	ldr	r3, [pc, #344]	@ (8002dd8 <HAL_RCC_OscConfig+0x32c>)
 8002c7e:	681a      	ldr	r2, [r3, #0]
 8002c80:	4b55      	ldr	r3, [pc, #340]	@ (8002dd8 <HAL_RCC_OscConfig+0x32c>)
 8002c82:	2101      	movs	r1, #1
 8002c84:	438a      	bics	r2, r1
 8002c86:	601a      	str	r2, [r3, #0]

        /* Get timeout */
        tickstart = HAL_GetTick();
 8002c88:	f7fe fdaa 	bl	80017e0 <HAL_GetTick>
 8002c8c:	0003      	movs	r3, r0
 8002c8e:	613b      	str	r3, [r7, #16]

        /* Wait till MSI is ready */
        while (READ_BIT(RCC->CR, RCC_CR_MSIRDY) != 0U)
 8002c90:	e008      	b.n	8002ca4 <HAL_RCC_OscConfig+0x1f8>
        {
          if ((HAL_GetTick() - tickstart) > RCC_MSI_TIMEOUT_VALUE)
 8002c92:	f7fe fda5 	bl	80017e0 <HAL_GetTick>
 8002c96:	0002      	movs	r2, r0
 8002c98:	693b      	ldr	r3, [r7, #16]
 8002c9a:	1ad3      	subs	r3, r2, r3
 8002c9c:	2b02      	cmp	r3, #2
 8002c9e:	d901      	bls.n	8002ca4 <HAL_RCC_OscConfig+0x1f8>
          {
            return HAL_TIMEOUT;
 8002ca0:	2303      	movs	r3, #3
 8002ca2:	e2dc      	b.n	800325e <HAL_RCC_OscConfig+0x7b2>
        while (READ_BIT(RCC->CR, RCC_CR_MSIRDY) != 0U)
 8002ca4:	4b4c      	ldr	r3, [pc, #304]	@ (8002dd8 <HAL_RCC_OscConfig+0x32c>)
 8002ca6:	681b      	ldr	r3, [r3, #0]
 8002ca8:	2202      	movs	r2, #2
 8002caa:	4013      	ands	r3, r2
 8002cac:	d1f1      	bne.n	8002c92 <HAL_RCC_OscConfig+0x1e6>
 8002cae:	e000      	b.n	8002cb2 <HAL_RCC_OscConfig+0x206>
      if ((READ_BIT(RCC->CR, RCC_CR_MSIRDY) != 0U) && (RCC_OscInitStruct->MSIState == RCC_MSI_OFF))
 8002cb0:	46c0      	nop			@ (mov r8, r8)
        }
      }
    }
  }
  /*------------------------------- HSE Configuration ------------------------*/
  if (((RCC_OscInitStruct->OscillatorType) & RCC_OSCILLATORTYPE_HSE) == RCC_OSCILLATORTYPE_HSE)
 8002cb2:	687b      	ldr	r3, [r7, #4]
 8002cb4:	681b      	ldr	r3, [r3, #0]
 8002cb6:	2201      	movs	r2, #1
 8002cb8:	4013      	ands	r3, r2
 8002cba:	d100      	bne.n	8002cbe <HAL_RCC_OscConfig+0x212>
 8002cbc:	e065      	b.n	8002d8a <HAL_RCC_OscConfig+0x2de>
  {
    /* Check the parameters */
    assert_param(IS_RCC_HSE(RCC_OscInitStruct->HSEState));

    /* When the HSE is used as system clock or clock source for PLL in these cases it is not allowed to be disabled */
    if ((sysclk_source == RCC_SYSCLKSOURCE_STATUS_HSE) ||
 8002cbe:	69bb      	ldr	r3, [r7, #24]
 8002cc0:	2b10      	cmp	r3, #16
 8002cc2:	d005      	beq.n	8002cd0 <HAL_RCC_OscConfig+0x224>
 8002cc4:	69bb      	ldr	r3, [r7, #24]
 8002cc6:	2b18      	cmp	r3, #24
 8002cc8:	d10e      	bne.n	8002ce8 <HAL_RCC_OscConfig+0x23c>
        ((sysclk_source == RCC_SYSCLKSOURCE_STATUS_PLLCLK) && (pll_config == RCC_PLLSOURCE_HSE)))
 8002cca:	697b      	ldr	r3, [r7, #20]
 8002ccc:	2b03      	cmp	r3, #3
 8002cce:	d10b      	bne.n	8002ce8 <HAL_RCC_OscConfig+0x23c>
    {
      if ((READ_BIT(RCC->CR, RCC_CR_HSERDY) != 0U) && (RCC_OscInitStruct->HSEState == RCC_HSE_OFF))
 8002cd0:	4b41      	ldr	r3, [pc, #260]	@ (8002dd8 <HAL_RCC_OscConfig+0x32c>)
 8002cd2:	681a      	ldr	r2, [r3, #0]
 8002cd4:	2380      	movs	r3, #128	@ 0x80
 8002cd6:	029b      	lsls	r3, r3, #10
 8002cd8:	4013      	ands	r3, r2
 8002cda:	d055      	beq.n	8002d88 <HAL_RCC_OscConfig+0x2dc>
 8002cdc:	687b      	ldr	r3, [r7, #4]
 8002cde:	685b      	ldr	r3, [r3, #4]
 8002ce0:	2b00      	cmp	r3, #0
 8002ce2:	d151      	bne.n	8002d88 <HAL_RCC_OscConfig+0x2dc>
      {
        return HAL_ERROR;
 8002ce4:	2301      	movs	r3, #1
 8002ce6:	e2ba      	b.n	800325e <HAL_RCC_OscConfig+0x7b2>
      }
    }
    else
    {
      /* Set the new HSE configuration ---------------------------------------*/
      __HAL_RCC_HSE_CONFIG(RCC_OscInitStruct->HSEState);
 8002ce8:	687b      	ldr	r3, [r7, #4]
 8002cea:	685a      	ldr	r2, [r3, #4]
 8002cec:	2380      	movs	r3, #128	@ 0x80
 8002cee:	025b      	lsls	r3, r3, #9
 8002cf0:	429a      	cmp	r2, r3
 8002cf2:	d107      	bne.n	8002d04 <HAL_RCC_OscConfig+0x258>
 8002cf4:	4b38      	ldr	r3, [pc, #224]	@ (8002dd8 <HAL_RCC_OscConfig+0x32c>)
 8002cf6:	681a      	ldr	r2, [r3, #0]
 8002cf8:	4b37      	ldr	r3, [pc, #220]	@ (8002dd8 <HAL_RCC_OscConfig+0x32c>)
 8002cfa:	2180      	movs	r1, #128	@ 0x80
 8002cfc:	0249      	lsls	r1, r1, #9
 8002cfe:	430a      	orrs	r2, r1
 8002d00:	601a      	str	r2, [r3, #0]
 8002d02:	e013      	b.n	8002d2c <HAL_RCC_OscConfig+0x280>
 8002d04:	687b      	ldr	r3, [r7, #4]
 8002d06:	685a      	ldr	r2, [r3, #4]
 8002d08:	23a0      	movs	r3, #160	@ 0xa0
 8002d0a:	02db      	lsls	r3, r3, #11
 8002d0c:	429a      	cmp	r2, r3
 8002d0e:	d107      	bne.n	8002d20 <HAL_RCC_OscConfig+0x274>
 8002d10:	4b31      	ldr	r3, [pc, #196]	@ (8002dd8 <HAL_RCC_OscConfig+0x32c>)
 8002d12:	681a      	ldr	r2, [r3, #0]
 8002d14:	4b30      	ldr	r3, [pc, #192]	@ (8002dd8 <HAL_RCC_OscConfig+0x32c>)
 8002d16:	21a0      	movs	r1, #160	@ 0xa0
 8002d18:	02c9      	lsls	r1, r1, #11
 8002d1a:	430a      	orrs	r2, r1
 8002d1c:	601a      	str	r2, [r3, #0]
 8002d1e:	e005      	b.n	8002d2c <HAL_RCC_OscConfig+0x280>
 8002d20:	4b2d      	ldr	r3, [pc, #180]	@ (8002dd8 <HAL_RCC_OscConfig+0x32c>)
 8002d22:	681a      	ldr	r2, [r3, #0]
 8002d24:	4b2c      	ldr	r3, [pc, #176]	@ (8002dd8 <HAL_RCC_OscConfig+0x32c>)
 8002d26:	4931      	ldr	r1, [pc, #196]	@ (8002dec <HAL_RCC_OscConfig+0x340>)
 8002d28:	400a      	ands	r2, r1
 8002d2a:	601a      	str	r2, [r3, #0]

      /* Check the HSE State */
      if (RCC_OscInitStruct->HSEState != RCC_HSE_OFF)
 8002d2c:	687b      	ldr	r3, [r7, #4]
 8002d2e:	685b      	ldr	r3, [r3, #4]
 8002d30:	2b00      	cmp	r3, #0
 8002d32:	d014      	beq.n	8002d5e <HAL_RCC_OscConfig+0x2b2>
      {
        /* Get Start Tick*/
        tickstart = HAL_GetTick();
 8002d34:	f7fe fd54 	bl	80017e0 <HAL_GetTick>
 8002d38:	0003      	movs	r3, r0
 8002d3a:	613b      	str	r3, [r7, #16]
        /* Wait till HSE is ready */
        while (READ_BIT(RCC->CR, RCC_CR_HSERDY) == 0U)
 8002d3c:	e008      	b.n	8002d50 <HAL_RCC_OscConfig+0x2a4>
        {
          if ((HAL_GetTick() - tickstart) > RCC_HSE_TIMEOUT_VALUE)
 8002d3e:	f7fe fd4f 	bl	80017e0 <HAL_GetTick>
 8002d42:	0002      	movs	r2, r0
 8002d44:	693b      	ldr	r3, [r7, #16]
 8002d46:	1ad3      	subs	r3, r2, r3
 8002d48:	2b64      	cmp	r3, #100	@ 0x64
 8002d4a:	d901      	bls.n	8002d50 <HAL_RCC_OscConfig+0x2a4>
          {
            return HAL_TIMEOUT;
 8002d4c:	2303      	movs	r3, #3
 8002d4e:	e286      	b.n	800325e <HAL_RCC_OscConfig+0x7b2>
        while (READ_BIT(RCC->CR, RCC_CR_HSERDY) == 0U)
 8002d50:	4b21      	ldr	r3, [pc, #132]	@ (8002dd8 <HAL_RCC_OscConfig+0x32c>)
 8002d52:	681a      	ldr	r2, [r3, #0]
 8002d54:	2380      	movs	r3, #128	@ 0x80
 8002d56:	029b      	lsls	r3, r3, #10
 8002d58:	4013      	ands	r3, r2
 8002d5a:	d0f0      	beq.n	8002d3e <HAL_RCC_OscConfig+0x292>
 8002d5c:	e015      	b.n	8002d8a <HAL_RCC_OscConfig+0x2de>
        }
      }
      else
      {
        /* Get Start Tick*/
        tickstart = HAL_GetTick();
 8002d5e:	f7fe fd3f 	bl	80017e0 <HAL_GetTick>
 8002d62:	0003      	movs	r3, r0
 8002d64:	613b      	str	r3, [r7, #16]

        /* Wait till HSE is disabled */
        while (READ_BIT(RCC->CR, RCC_CR_HSERDY) != 0U)
 8002d66:	e008      	b.n	8002d7a <HAL_RCC_OscConfig+0x2ce>
        {
          if ((HAL_GetTick() - tickstart) > RCC_HSE_TIMEOUT_VALUE)
 8002d68:	f7fe fd3a 	bl	80017e0 <HAL_GetTick>
 8002d6c:	0002      	movs	r2, r0
 8002d6e:	693b      	ldr	r3, [r7, #16]
 8002d70:	1ad3      	subs	r3, r2, r3
 8002d72:	2b64      	cmp	r3, #100	@ 0x64
 8002d74:	d901      	bls.n	8002d7a <HAL_RCC_OscConfig+0x2ce>
          {
            return HAL_TIMEOUT;
 8002d76:	2303      	movs	r3, #3
 8002d78:	e271      	b.n	800325e <HAL_RCC_OscConfig+0x7b2>
        while (READ_BIT(RCC->CR, RCC_CR_HSERDY) != 0U)
 8002d7a:	4b17      	ldr	r3, [pc, #92]	@ (8002dd8 <HAL_RCC_OscConfig+0x32c>)
 8002d7c:	681a      	ldr	r2, [r3, #0]
 8002d7e:	2380      	movs	r3, #128	@ 0x80
 8002d80:	029b      	lsls	r3, r3, #10
 8002d82:	4013      	ands	r3, r2
 8002d84:	d1f0      	bne.n	8002d68 <HAL_RCC_OscConfig+0x2bc>
 8002d86:	e000      	b.n	8002d8a <HAL_RCC_OscConfig+0x2de>
      if ((READ_BIT(RCC->CR, RCC_CR_HSERDY) != 0U) && (RCC_OscInitStruct->HSEState == RCC_HSE_OFF))
 8002d88:	46c0      	nop			@ (mov r8, r8)
        }
      }
    }
  }
  /*----------------------------- HSI Configuration --------------------------*/
  if (((RCC_OscInitStruct->OscillatorType) & RCC_OSCILLATORTYPE_HSI) == RCC_OSCILLATORTYPE_HSI)
 8002d8a:	687b      	ldr	r3, [r7, #4]
 8002d8c:	681b      	ldr	r3, [r3, #0]
 8002d8e:	2202      	movs	r2, #2
 8002d90:	4013      	ands	r3, r2
 8002d92:	d100      	bne.n	8002d96 <HAL_RCC_OscConfig+0x2ea>
 8002d94:	e073      	b.n	8002e7e <HAL_RCC_OscConfig+0x3d2>
    /* Check the parameters */
    assert_param(IS_RCC_HSI(RCC_OscInitStruct->HSIState));
    assert_param(IS_RCC_HSI_CALIBRATION_VALUE(RCC_OscInitStruct->HSICalibrationValue));

    /* Check if HSI is used as system clock or as PLL source when PLL is selected as system clock */
    if ((sysclk_source == RCC_SYSCLKSOURCE_STATUS_HSI) ||
 8002d96:	69bb      	ldr	r3, [r7, #24]
 8002d98:	2b08      	cmp	r3, #8
 8002d9a:	d005      	beq.n	8002da8 <HAL_RCC_OscConfig+0x2fc>
 8002d9c:	69bb      	ldr	r3, [r7, #24]
 8002d9e:	2b18      	cmp	r3, #24
 8002da0:	d128      	bne.n	8002df4 <HAL_RCC_OscConfig+0x348>
        ((sysclk_source == RCC_SYSCLKSOURCE_STATUS_PLLCLK) && (pll_config == RCC_PLLSOURCE_HSI)))
 8002da2:	697b      	ldr	r3, [r7, #20]
 8002da4:	2b02      	cmp	r3, #2
 8002da6:	d125      	bne.n	8002df4 <HAL_RCC_OscConfig+0x348>
    {
      /* When HSI is used as system clock it will not be disabled */
      if ((READ_BIT(RCC->CR, RCC_CR_HSIRDY) != 0U) && (RCC_OscInitStruct->HSIState == RCC_HSI_OFF))
 8002da8:	4b0b      	ldr	r3, [pc, #44]	@ (8002dd8 <HAL_RCC_OscConfig+0x32c>)
 8002daa:	681a      	ldr	r2, [r3, #0]
 8002dac:	2380      	movs	r3, #128	@ 0x80
 8002dae:	00db      	lsls	r3, r3, #3
 8002db0:	4013      	ands	r3, r2
 8002db2:	d005      	beq.n	8002dc0 <HAL_RCC_OscConfig+0x314>
 8002db4:	687b      	ldr	r3, [r7, #4]
 8002db6:	68db      	ldr	r3, [r3, #12]
 8002db8:	2b00      	cmp	r3, #0
 8002dba:	d101      	bne.n	8002dc0 <HAL_RCC_OscConfig+0x314>
      {
        return HAL_ERROR;
 8002dbc:	2301      	movs	r3, #1
 8002dbe:	e24e      	b.n	800325e <HAL_RCC_OscConfig+0x7b2>
      }
      /* Otherwise, just the calibration is allowed */
      else
      {
        /* Adjusts the Internal High Speed oscillator (HSI) calibration value.*/
        __HAL_RCC_HSI_CALIBRATIONVALUE_ADJUST(RCC_OscInitStruct->HSICalibrationValue);
 8002dc0:	4b05      	ldr	r3, [pc, #20]	@ (8002dd8 <HAL_RCC_OscConfig+0x32c>)
 8002dc2:	685b      	ldr	r3, [r3, #4]
 8002dc4:	4a0a      	ldr	r2, [pc, #40]	@ (8002df0 <HAL_RCC_OscConfig+0x344>)
 8002dc6:	4013      	ands	r3, r2
 8002dc8:	0019      	movs	r1, r3
 8002dca:	687b      	ldr	r3, [r7, #4]
 8002dcc:	691b      	ldr	r3, [r3, #16]
 8002dce:	061a      	lsls	r2, r3, #24
 8002dd0:	4b01      	ldr	r3, [pc, #4]	@ (8002dd8 <HAL_RCC_OscConfig+0x32c>)
 8002dd2:	430a      	orrs	r2, r1
 8002dd4:	605a      	str	r2, [r3, #4]
      if ((READ_BIT(RCC->CR, RCC_CR_HSIRDY) != 0U) && (RCC_OscInitStruct->HSIState == RCC_HSI_OFF))
 8002dd6:	e052      	b.n	8002e7e <HAL_RCC_OscConfig+0x3d2>
 8002dd8:	40021000 	.word	0x40021000
 8002ddc:	ffff00ff 	.word	0xffff00ff
 8002de0:	08005eb0 	.word	0x08005eb0
 8002de4:	20000014 	.word	0x20000014
 8002de8:	20000018 	.word	0x20000018
 8002dec:	fffaffff 	.word	0xfffaffff
 8002df0:	80ffffff 	.word	0x80ffffff
      }
    }
    else
    {
      /* Check the HSI State */
      if (RCC_OscInitStruct->HSIState != RCC_HSI_OFF)
 8002df4:	687b      	ldr	r3, [r7, #4]
 8002df6:	68db      	ldr	r3, [r3, #12]
 8002df8:	2b00      	cmp	r3, #0
 8002dfa:	d026      	beq.n	8002e4a <HAL_RCC_OscConfig+0x39e>
      {
        /* Enable the Internal High Speed oscillator (HSI). */
        __HAL_RCC_HSI_ENABLE();
 8002dfc:	4bc7      	ldr	r3, [pc, #796]	@ (800311c <HAL_RCC_OscConfig+0x670>)
 8002dfe:	681a      	ldr	r2, [r3, #0]
 8002e00:	4bc6      	ldr	r3, [pc, #792]	@ (800311c <HAL_RCC_OscConfig+0x670>)
 8002e02:	2180      	movs	r1, #128	@ 0x80
 8002e04:	0049      	lsls	r1, r1, #1
 8002e06:	430a      	orrs	r2, r1
 8002e08:	601a      	str	r2, [r3, #0]

        /* Get Start Tick*/
        tickstart = HAL_GetTick();
 8002e0a:	f7fe fce9 	bl	80017e0 <HAL_GetTick>
 8002e0e:	0003      	movs	r3, r0
 8002e10:	613b      	str	r3, [r7, #16]

        /* Wait till HSI is ready */
        while (READ_BIT(RCC->CR, RCC_CR_HSIRDY) == 0U)
 8002e12:	e008      	b.n	8002e26 <HAL_RCC_OscConfig+0x37a>
        {
          if ((HAL_GetTick() - tickstart) > RCC_HSI_TIMEOUT_VALUE)
 8002e14:	f7fe fce4 	bl	80017e0 <HAL_GetTick>
 8002e18:	0002      	movs	r2, r0
 8002e1a:	693b      	ldr	r3, [r7, #16]
 8002e1c:	1ad3      	subs	r3, r2, r3
 8002e1e:	2b02      	cmp	r3, #2
 8002e20:	d901      	bls.n	8002e26 <HAL_RCC_OscConfig+0x37a>
          {
            return HAL_TIMEOUT;
 8002e22:	2303      	movs	r3, #3
 8002e24:	e21b      	b.n	800325e <HAL_RCC_OscConfig+0x7b2>
        while (READ_BIT(RCC->CR, RCC_CR_HSIRDY) == 0U)
 8002e26:	4bbd      	ldr	r3, [pc, #756]	@ (800311c <HAL_RCC_OscConfig+0x670>)
 8002e28:	681a      	ldr	r2, [r3, #0]
 8002e2a:	2380      	movs	r3, #128	@ 0x80
 8002e2c:	00db      	lsls	r3, r3, #3
 8002e2e:	4013      	ands	r3, r2
 8002e30:	d0f0      	beq.n	8002e14 <HAL_RCC_OscConfig+0x368>
          }
        }

        /* Adjusts the Internal High Speed oscillator (HSI) calibration value.*/
        __HAL_RCC_HSI_CALIBRATIONVALUE_ADJUST(RCC_OscInitStruct->HSICalibrationValue);
 8002e32:	4bba      	ldr	r3, [pc, #744]	@ (800311c <HAL_RCC_OscConfig+0x670>)
 8002e34:	685b      	ldr	r3, [r3, #4]
 8002e36:	4aba      	ldr	r2, [pc, #744]	@ (8003120 <HAL_RCC_OscConfig+0x674>)
 8002e38:	4013      	ands	r3, r2
 8002e3a:	0019      	movs	r1, r3
 8002e3c:	687b      	ldr	r3, [r7, #4]
 8002e3e:	691b      	ldr	r3, [r3, #16]
 8002e40:	061a      	lsls	r2, r3, #24
 8002e42:	4bb6      	ldr	r3, [pc, #728]	@ (800311c <HAL_RCC_OscConfig+0x670>)
 8002e44:	430a      	orrs	r2, r1
 8002e46:	605a      	str	r2, [r3, #4]
 8002e48:	e019      	b.n	8002e7e <HAL_RCC_OscConfig+0x3d2>
      }
      else
      {
        /* Disable the Internal High Speed oscillator (HSI). */
        __HAL_RCC_HSI_DISABLE();
 8002e4a:	4bb4      	ldr	r3, [pc, #720]	@ (800311c <HAL_RCC_OscConfig+0x670>)
 8002e4c:	681a      	ldr	r2, [r3, #0]
 8002e4e:	4bb3      	ldr	r3, [pc, #716]	@ (800311c <HAL_RCC_OscConfig+0x670>)
 8002e50:	49b4      	ldr	r1, [pc, #720]	@ (8003124 <HAL_RCC_OscConfig+0x678>)
 8002e52:	400a      	ands	r2, r1
 8002e54:	601a      	str	r2, [r3, #0]

        /* Get Start Tick*/
        tickstart = HAL_GetTick();
 8002e56:	f7fe fcc3 	bl	80017e0 <HAL_GetTick>
 8002e5a:	0003      	movs	r3, r0
 8002e5c:	613b      	str	r3, [r7, #16]

        /* Wait till HSI is disabled */
        while (READ_BIT(RCC->CR, RCC_CR_HSIRDY) != 0U)
 8002e5e:	e008      	b.n	8002e72 <HAL_RCC_OscConfig+0x3c6>
        {
          if ((HAL_GetTick() - tickstart) > RCC_HSI_TIMEOUT_VALUE)
 8002e60:	f7fe fcbe 	bl	80017e0 <HAL_GetTick>
 8002e64:	0002      	movs	r2, r0
 8002e66:	693b      	ldr	r3, [r7, #16]
 8002e68:	1ad3      	subs	r3, r2, r3
 8002e6a:	2b02      	cmp	r3, #2
 8002e6c:	d901      	bls.n	8002e72 <HAL_RCC_OscConfig+0x3c6>
          {
            return HAL_TIMEOUT;
 8002e6e:	2303      	movs	r3, #3
 8002e70:	e1f5      	b.n	800325e <HAL_RCC_OscConfig+0x7b2>
        while (READ_BIT(RCC->CR, RCC_CR_HSIRDY) != 0U)
 8002e72:	4baa      	ldr	r3, [pc, #680]	@ (800311c <HAL_RCC_OscConfig+0x670>)
 8002e74:	681a      	ldr	r2, [r3, #0]
 8002e76:	2380      	movs	r3, #128	@ 0x80
 8002e78:	00db      	lsls	r3, r3, #3
 8002e7a:	4013      	ands	r3, r2
 8002e7c:	d1f0      	bne.n	8002e60 <HAL_RCC_OscConfig+0x3b4>
        }
      }
    }
  }
  /*------------------------------ LSI Configuration -------------------------*/
  if (((RCC_OscInitStruct->OscillatorType) & RCC_OSCILLATORTYPE_LSI) == RCC_OSCILLATORTYPE_LSI)
 8002e7e:	687b      	ldr	r3, [r7, #4]
 8002e80:	681b      	ldr	r3, [r3, #0]
 8002e82:	2208      	movs	r2, #8
 8002e84:	4013      	ands	r3, r2
 8002e86:	d051      	beq.n	8002f2c <HAL_RCC_OscConfig+0x480>
    /* Check the parameters */
    assert_param(IS_RCC_LSI(RCC_OscInitStruct->LSIState));
    assert_param(IS_RCC_LSIDIV(RCC_OscInitStruct->LSIDiv));

    /* Check the LSI State */
    if ((RCC_OscInitStruct->LSIState) != RCC_LSI_OFF)
 8002e88:	687b      	ldr	r3, [r7, #4]
 8002e8a:	695b      	ldr	r3, [r3, #20]
 8002e8c:	2b00      	cmp	r3, #0
 8002e8e:	d031      	beq.n	8002ef4 <HAL_RCC_OscConfig+0x448>
    {
      /* Apply prescaler value */
      if (RCC_OscInitStruct->LSIDiv == RCC_LSI_DIV1)
 8002e90:	687b      	ldr	r3, [r7, #4]
 8002e92:	699b      	ldr	r3, [r3, #24]
 8002e94:	2b00      	cmp	r3, #0
 8002e96:	d108      	bne.n	8002eaa <HAL_RCC_OscConfig+0x3fe>
      {
        CLEAR_BIT(RCC->CSR, RCC_CSR_LSIPREDIV);
 8002e98:	4aa0      	ldr	r2, [pc, #640]	@ (800311c <HAL_RCC_OscConfig+0x670>)
 8002e9a:	2394      	movs	r3, #148	@ 0x94
 8002e9c:	58d3      	ldr	r3, [r2, r3]
 8002e9e:	499f      	ldr	r1, [pc, #636]	@ (800311c <HAL_RCC_OscConfig+0x670>)
 8002ea0:	2204      	movs	r2, #4
 8002ea2:	4393      	bics	r3, r2
 8002ea4:	2294      	movs	r2, #148	@ 0x94
 8002ea6:	508b      	str	r3, [r1, r2]
 8002ea8:	e007      	b.n	8002eba <HAL_RCC_OscConfig+0x40e>
      }
      else
      {
        SET_BIT(RCC->CSR, RCC_CSR_LSIPREDIV);
 8002eaa:	4a9c      	ldr	r2, [pc, #624]	@ (800311c <HAL_RCC_OscConfig+0x670>)
 8002eac:	2394      	movs	r3, #148	@ 0x94
 8002eae:	58d3      	ldr	r3, [r2, r3]
 8002eb0:	499a      	ldr	r1, [pc, #616]	@ (800311c <HAL_RCC_OscConfig+0x670>)
 8002eb2:	2204      	movs	r2, #4
 8002eb4:	4313      	orrs	r3, r2
 8002eb6:	2294      	movs	r2, #148	@ 0x94
 8002eb8:	508b      	str	r3, [r1, r2]
      }
      /* Enable the Internal Low Speed oscillator (LSI). */
      __HAL_RCC_LSI_ENABLE();
 8002eba:	4a98      	ldr	r2, [pc, #608]	@ (800311c <HAL_RCC_OscConfig+0x670>)
 8002ebc:	2394      	movs	r3, #148	@ 0x94
 8002ebe:	58d3      	ldr	r3, [r2, r3]
 8002ec0:	4996      	ldr	r1, [pc, #600]	@ (800311c <HAL_RCC_OscConfig+0x670>)
 8002ec2:	2201      	movs	r2, #1
 8002ec4:	4313      	orrs	r3, r2
 8002ec6:	2294      	movs	r2, #148	@ 0x94
 8002ec8:	508b      	str	r3, [r1, r2]

      /* Get Start Tick*/
      tickstart = HAL_GetTick();
 8002eca:	f7fe fc89 	bl	80017e0 <HAL_GetTick>
 8002ece:	0003      	movs	r3, r0
 8002ed0:	613b      	str	r3, [r7, #16]

      /* Wait till LSI is ready */
      while (__HAL_RCC_GET_FLAG(RCC_FLAG_LSIRDY) == 0U)
 8002ed2:	e008      	b.n	8002ee6 <HAL_RCC_OscConfig+0x43a>
      {
        if ((HAL_GetTick() - tickstart) > LSI_TIMEOUT_VALUE)
 8002ed4:	f7fe fc84 	bl	80017e0 <HAL_GetTick>
 8002ed8:	0002      	movs	r2, r0
 8002eda:	693b      	ldr	r3, [r7, #16]
 8002edc:	1ad3      	subs	r3, r2, r3
 8002ede:	2b11      	cmp	r3, #17
 8002ee0:	d901      	bls.n	8002ee6 <HAL_RCC_OscConfig+0x43a>
        {
          return HAL_TIMEOUT;
 8002ee2:	2303      	movs	r3, #3
 8002ee4:	e1bb      	b.n	800325e <HAL_RCC_OscConfig+0x7b2>
      while (__HAL_RCC_GET_FLAG(RCC_FLAG_LSIRDY) == 0U)
 8002ee6:	4a8d      	ldr	r2, [pc, #564]	@ (800311c <HAL_RCC_OscConfig+0x670>)
 8002ee8:	2394      	movs	r3, #148	@ 0x94
 8002eea:	58d3      	ldr	r3, [r2, r3]
 8002eec:	2202      	movs	r2, #2
 8002eee:	4013      	ands	r3, r2
 8002ef0:	d0f0      	beq.n	8002ed4 <HAL_RCC_OscConfig+0x428>
 8002ef2:	e01b      	b.n	8002f2c <HAL_RCC_OscConfig+0x480>
      }
    }
    else
    {
      /* Disable the Internal Low Speed oscillator (LSI). */
      __HAL_RCC_LSI_DISABLE();
 8002ef4:	4a89      	ldr	r2, [pc, #548]	@ (800311c <HAL_RCC_OscConfig+0x670>)
 8002ef6:	2394      	movs	r3, #148	@ 0x94
 8002ef8:	58d3      	ldr	r3, [r2, r3]
 8002efa:	4988      	ldr	r1, [pc, #544]	@ (800311c <HAL_RCC_OscConfig+0x670>)
 8002efc:	2201      	movs	r2, #1
 8002efe:	4393      	bics	r3, r2
 8002f00:	2294      	movs	r2, #148	@ 0x94
 8002f02:	508b      	str	r3, [r1, r2]

      /* Get Start Tick*/
      tickstart = HAL_GetTick();
 8002f04:	f7fe fc6c 	bl	80017e0 <HAL_GetTick>
 8002f08:	0003      	movs	r3, r0
 8002f0a:	613b      	str	r3, [r7, #16]

      /* Wait till LSI is ready */
      while (__HAL_RCC_GET_FLAG(RCC_FLAG_LSIRDY) != 0U)
 8002f0c:	e008      	b.n	8002f20 <HAL_RCC_OscConfig+0x474>
      {
        if ((HAL_GetTick() - tickstart) > LSI_TIMEOUT_VALUE)
 8002f0e:	f7fe fc67 	bl	80017e0 <HAL_GetTick>
 8002f12:	0002      	movs	r2, r0
 8002f14:	693b      	ldr	r3, [r7, #16]
 8002f16:	1ad3      	subs	r3, r2, r3
 8002f18:	2b11      	cmp	r3, #17
 8002f1a:	d901      	bls.n	8002f20 <HAL_RCC_OscConfig+0x474>
        {
          return HAL_TIMEOUT;
 8002f1c:	2303      	movs	r3, #3
 8002f1e:	e19e      	b.n	800325e <HAL_RCC_OscConfig+0x7b2>
      while (__HAL_RCC_GET_FLAG(RCC_FLAG_LSIRDY) != 0U)
 8002f20:	4a7e      	ldr	r2, [pc, #504]	@ (800311c <HAL_RCC_OscConfig+0x670>)
 8002f22:	2394      	movs	r3, #148	@ 0x94
 8002f24:	58d3      	ldr	r3, [r2, r3]
 8002f26:	2202      	movs	r2, #2
 8002f28:	4013      	ands	r3, r2
 8002f2a:	d1f0      	bne.n	8002f0e <HAL_RCC_OscConfig+0x462>
      }
    }
  }

  /*------------------------------ LSE Configuration -------------------------*/
  if (((RCC_OscInitStruct->OscillatorType) & RCC_OSCILLATORTYPE_LSE) == RCC_OSCILLATORTYPE_LSE)
 8002f2c:	687b      	ldr	r3, [r7, #4]
 8002f2e:	681b      	ldr	r3, [r3, #0]
 8002f30:	2204      	movs	r2, #4
 8002f32:	4013      	ands	r3, r2
 8002f34:	d100      	bne.n	8002f38 <HAL_RCC_OscConfig+0x48c>
 8002f36:	e10d      	b.n	8003154 <HAL_RCC_OscConfig+0x6a8>
  {
    FlagStatus       pwrclkchanged = RESET;
 8002f38:	201f      	movs	r0, #31
 8002f3a:	183b      	adds	r3, r7, r0
 8002f3c:	2200      	movs	r2, #0
 8002f3e:	701a      	strb	r2, [r3, #0]
    /* Check the parameters */
    assert_param(IS_RCC_LSE(RCC_OscInitStruct->LSEState));

    /* Update LSE configuration in Backup Domain control register    */
    /* Requires to enable write access to Backup Domain of necessary */
    if (HAL_IS_BIT_CLR(RCC->APBENR1, RCC_APBENR1_PWREN))
 8002f40:	4b76      	ldr	r3, [pc, #472]	@ (800311c <HAL_RCC_OscConfig+0x670>)
 8002f42:	6d9a      	ldr	r2, [r3, #88]	@ 0x58
 8002f44:	2380      	movs	r3, #128	@ 0x80
 8002f46:	055b      	lsls	r3, r3, #21
 8002f48:	4013      	ands	r3, r2
 8002f4a:	d110      	bne.n	8002f6e <HAL_RCC_OscConfig+0x4c2>
    {
      __HAL_RCC_PWR_CLK_ENABLE();
 8002f4c:	4b73      	ldr	r3, [pc, #460]	@ (800311c <HAL_RCC_OscConfig+0x670>)
 8002f4e:	6d9a      	ldr	r2, [r3, #88]	@ 0x58
 8002f50:	4b72      	ldr	r3, [pc, #456]	@ (800311c <HAL_RCC_OscConfig+0x670>)
 8002f52:	2180      	movs	r1, #128	@ 0x80
 8002f54:	0549      	lsls	r1, r1, #21
 8002f56:	430a      	orrs	r2, r1
 8002f58:	659a      	str	r2, [r3, #88]	@ 0x58
 8002f5a:	4b70      	ldr	r3, [pc, #448]	@ (800311c <HAL_RCC_OscConfig+0x670>)
 8002f5c:	6d9a      	ldr	r2, [r3, #88]	@ 0x58
 8002f5e:	2380      	movs	r3, #128	@ 0x80
 8002f60:	055b      	lsls	r3, r3, #21
 8002f62:	4013      	ands	r3, r2
 8002f64:	60bb      	str	r3, [r7, #8]
 8002f66:	68bb      	ldr	r3, [r7, #8]
      pwrclkchanged = SET;
 8002f68:	183b      	adds	r3, r7, r0
 8002f6a:	2201      	movs	r2, #1
 8002f6c:	701a      	strb	r2, [r3, #0]
    }

    if (HAL_IS_BIT_CLR(PWR->CR1, PWR_CR1_DBP))
 8002f6e:	4b6e      	ldr	r3, [pc, #440]	@ (8003128 <HAL_RCC_OscConfig+0x67c>)
 8002f70:	681a      	ldr	r2, [r3, #0]
 8002f72:	2380      	movs	r3, #128	@ 0x80
 8002f74:	005b      	lsls	r3, r3, #1
 8002f76:	4013      	ands	r3, r2
 8002f78:	d11a      	bne.n	8002fb0 <HAL_RCC_OscConfig+0x504>
    {
      /* Enable write access to Backup domain */
      SET_BIT(PWR->CR1, PWR_CR1_DBP);
 8002f7a:	4b6b      	ldr	r3, [pc, #428]	@ (8003128 <HAL_RCC_OscConfig+0x67c>)
 8002f7c:	681a      	ldr	r2, [r3, #0]
 8002f7e:	4b6a      	ldr	r3, [pc, #424]	@ (8003128 <HAL_RCC_OscConfig+0x67c>)
 8002f80:	2180      	movs	r1, #128	@ 0x80
 8002f82:	0049      	lsls	r1, r1, #1
 8002f84:	430a      	orrs	r2, r1
 8002f86:	601a      	str	r2, [r3, #0]

      /* Wait for Backup domain Write protection disable */
      tickstart = HAL_GetTick();
 8002f88:	f7fe fc2a 	bl	80017e0 <HAL_GetTick>
 8002f8c:	0003      	movs	r3, r0
 8002f8e:	613b      	str	r3, [r7, #16]

      while (HAL_IS_BIT_CLR(PWR->CR1, PWR_CR1_DBP))
 8002f90:	e008      	b.n	8002fa4 <HAL_RCC_OscConfig+0x4f8>
      {
        if ((HAL_GetTick() - tickstart) > RCC_DBP_TIMEOUT_VALUE)
 8002f92:	f7fe fc25 	bl	80017e0 <HAL_GetTick>
 8002f96:	0002      	movs	r2, r0
 8002f98:	693b      	ldr	r3, [r7, #16]
 8002f9a:	1ad3      	subs	r3, r2, r3
 8002f9c:	2b02      	cmp	r3, #2
 8002f9e:	d901      	bls.n	8002fa4 <HAL_RCC_OscConfig+0x4f8>
        {
          return HAL_TIMEOUT;
 8002fa0:	2303      	movs	r3, #3
 8002fa2:	e15c      	b.n	800325e <HAL_RCC_OscConfig+0x7b2>
      while (HAL_IS_BIT_CLR(PWR->CR1, PWR_CR1_DBP))
 8002fa4:	4b60      	ldr	r3, [pc, #384]	@ (8003128 <HAL_RCC_OscConfig+0x67c>)
 8002fa6:	681a      	ldr	r2, [r3, #0]
 8002fa8:	2380      	movs	r3, #128	@ 0x80
 8002faa:	005b      	lsls	r3, r3, #1
 8002fac:	4013      	ands	r3, r2
 8002fae:	d0f0      	beq.n	8002f92 <HAL_RCC_OscConfig+0x4e6>
        }
      }
    }

    /* Set the new LSE configuration -----------------------------------------*/
    if ((RCC_OscInitStruct->LSEState & RCC_BDCR_LSEON) != 0U)
 8002fb0:	687b      	ldr	r3, [r7, #4]
 8002fb2:	689b      	ldr	r3, [r3, #8]
 8002fb4:	2201      	movs	r2, #1
 8002fb6:	4013      	ands	r3, r2
 8002fb8:	d01e      	beq.n	8002ff8 <HAL_RCC_OscConfig+0x54c>
    {
      if ((RCC_OscInitStruct->LSEState & RCC_BDCR_LSEBYP) != 0U)
 8002fba:	687b      	ldr	r3, [r7, #4]
 8002fbc:	689b      	ldr	r3, [r3, #8]
 8002fbe:	2204      	movs	r2, #4
 8002fc0:	4013      	ands	r3, r2
 8002fc2:	d010      	beq.n	8002fe6 <HAL_RCC_OscConfig+0x53a>
      {
        /* LSE oscillator bypass enable */
        SET_BIT(RCC->BDCR, RCC_BDCR_LSEBYP);
 8002fc4:	4a55      	ldr	r2, [pc, #340]	@ (800311c <HAL_RCC_OscConfig+0x670>)
 8002fc6:	2390      	movs	r3, #144	@ 0x90
 8002fc8:	58d3      	ldr	r3, [r2, r3]
 8002fca:	4954      	ldr	r1, [pc, #336]	@ (800311c <HAL_RCC_OscConfig+0x670>)
 8002fcc:	2204      	movs	r2, #4
 8002fce:	4313      	orrs	r3, r2
 8002fd0:	2290      	movs	r2, #144	@ 0x90
 8002fd2:	508b      	str	r3, [r1, r2]
        SET_BIT(RCC->BDCR, RCC_BDCR_LSEON);
 8002fd4:	4a51      	ldr	r2, [pc, #324]	@ (800311c <HAL_RCC_OscConfig+0x670>)
 8002fd6:	2390      	movs	r3, #144	@ 0x90
 8002fd8:	58d3      	ldr	r3, [r2, r3]
 8002fda:	4950      	ldr	r1, [pc, #320]	@ (800311c <HAL_RCC_OscConfig+0x670>)
 8002fdc:	2201      	movs	r2, #1
 8002fde:	4313      	orrs	r3, r2
 8002fe0:	2290      	movs	r2, #144	@ 0x90
 8002fe2:	508b      	str	r3, [r1, r2]
 8002fe4:	e018      	b.n	8003018 <HAL_RCC_OscConfig+0x56c>
      }
      else
      {
        /* LSE oscillator enable */
        SET_BIT(RCC->BDCR, RCC_BDCR_LSEON);
 8002fe6:	4a4d      	ldr	r2, [pc, #308]	@ (800311c <HAL_RCC_OscConfig+0x670>)
 8002fe8:	2390      	movs	r3, #144	@ 0x90
 8002fea:	58d3      	ldr	r3, [r2, r3]
 8002fec:	494b      	ldr	r1, [pc, #300]	@ (800311c <HAL_RCC_OscConfig+0x670>)
 8002fee:	2201      	movs	r2, #1
 8002ff0:	4313      	orrs	r3, r2
 8002ff2:	2290      	movs	r2, #144	@ 0x90
 8002ff4:	508b      	str	r3, [r1, r2]
 8002ff6:	e00f      	b.n	8003018 <HAL_RCC_OscConfig+0x56c>
      }
    }
    else
    {
      CLEAR_BIT(RCC->BDCR, RCC_BDCR_LSEON);
 8002ff8:	4a48      	ldr	r2, [pc, #288]	@ (800311c <HAL_RCC_OscConfig+0x670>)
 8002ffa:	2390      	movs	r3, #144	@ 0x90
 8002ffc:	58d3      	ldr	r3, [r2, r3]
 8002ffe:	4947      	ldr	r1, [pc, #284]	@ (800311c <HAL_RCC_OscConfig+0x670>)
 8003000:	2201      	movs	r2, #1
 8003002:	4393      	bics	r3, r2
 8003004:	2290      	movs	r2, #144	@ 0x90
 8003006:	508b      	str	r3, [r1, r2]
      CLEAR_BIT(RCC->BDCR, RCC_BDCR_LSEBYP);
 8003008:	4a44      	ldr	r2, [pc, #272]	@ (800311c <HAL_RCC_OscConfig+0x670>)
 800300a:	2390      	movs	r3, #144	@ 0x90
 800300c:	58d3      	ldr	r3, [r2, r3]
 800300e:	4943      	ldr	r1, [pc, #268]	@ (800311c <HAL_RCC_OscConfig+0x670>)
 8003010:	2204      	movs	r2, #4
 8003012:	4393      	bics	r3, r2
 8003014:	2290      	movs	r2, #144	@ 0x90
 8003016:	508b      	str	r3, [r1, r2]
    }

    /* Check the LSE State */
    if (RCC_OscInitStruct->LSEState != RCC_LSE_OFF)
 8003018:	687b      	ldr	r3, [r7, #4]
 800301a:	689b      	ldr	r3, [r3, #8]
 800301c:	2b00      	cmp	r3, #0
 800301e:	d04f      	beq.n	80030c0 <HAL_RCC_OscConfig+0x614>
    {
      /* Get Start Tick*/
      tickstart = HAL_GetTick();
 8003020:	f7fe fbde 	bl	80017e0 <HAL_GetTick>
 8003024:	0003      	movs	r3, r0
 8003026:	613b      	str	r3, [r7, #16]

      /* Wait till LSE is ready */
      while (READ_BIT(RCC->BDCR, RCC_BDCR_LSERDY) == 0U)
 8003028:	e009      	b.n	800303e <HAL_RCC_OscConfig+0x592>
      {
        if ((HAL_GetTick() - tickstart) > RCC_LSE_TIMEOUT_VALUE)
 800302a:	f7fe fbd9 	bl	80017e0 <HAL_GetTick>
 800302e:	0002      	movs	r2, r0
 8003030:	693b      	ldr	r3, [r7, #16]
 8003032:	1ad3      	subs	r3, r2, r3
 8003034:	4a3d      	ldr	r2, [pc, #244]	@ (800312c <HAL_RCC_OscConfig+0x680>)
 8003036:	4293      	cmp	r3, r2
 8003038:	d901      	bls.n	800303e <HAL_RCC_OscConfig+0x592>
        {
          return HAL_TIMEOUT;
 800303a:	2303      	movs	r3, #3
 800303c:	e10f      	b.n	800325e <HAL_RCC_OscConfig+0x7b2>
      while (READ_BIT(RCC->BDCR, RCC_BDCR_LSERDY) == 0U)
 800303e:	4a37      	ldr	r2, [pc, #220]	@ (800311c <HAL_RCC_OscConfig+0x670>)
 8003040:	2390      	movs	r3, #144	@ 0x90
 8003042:	58d3      	ldr	r3, [r2, r3]
 8003044:	2202      	movs	r2, #2
 8003046:	4013      	ands	r3, r2
 8003048:	d0ef      	beq.n	800302a <HAL_RCC_OscConfig+0x57e>
        }
      }

      /* Enable LSESYS additionally if requested */
      if ((RCC_OscInitStruct->LSEState & RCC_BDCR_LSESYSEN) != 0U)
 800304a:	687b      	ldr	r3, [r7, #4]
 800304c:	689b      	ldr	r3, [r3, #8]
 800304e:	2280      	movs	r2, #128	@ 0x80
 8003050:	4013      	ands	r3, r2
 8003052:	d01a      	beq.n	800308a <HAL_RCC_OscConfig+0x5de>
      {
        SET_BIT(RCC->BDCR, RCC_BDCR_LSESYSEN);
 8003054:	4a31      	ldr	r2, [pc, #196]	@ (800311c <HAL_RCC_OscConfig+0x670>)
 8003056:	2390      	movs	r3, #144	@ 0x90
 8003058:	58d3      	ldr	r3, [r2, r3]
 800305a:	4930      	ldr	r1, [pc, #192]	@ (800311c <HAL_RCC_OscConfig+0x670>)
 800305c:	2280      	movs	r2, #128	@ 0x80
 800305e:	4313      	orrs	r3, r2
 8003060:	2290      	movs	r2, #144	@ 0x90
 8003062:	508b      	str	r3, [r1, r2]

        /* Wait till LSESYS is ready */
        while (READ_BIT(RCC->BDCR, RCC_BDCR_LSESYSRDY) == 0U)
 8003064:	e009      	b.n	800307a <HAL_RCC_OscConfig+0x5ce>
        {
          if ((HAL_GetTick() - tickstart) > RCC_LSE_TIMEOUT_VALUE)
 8003066:	f7fe fbbb 	bl	80017e0 <HAL_GetTick>
 800306a:	0002      	movs	r2, r0
 800306c:	693b      	ldr	r3, [r7, #16]
 800306e:	1ad3      	subs	r3, r2, r3
 8003070:	4a2e      	ldr	r2, [pc, #184]	@ (800312c <HAL_RCC_OscConfig+0x680>)
 8003072:	4293      	cmp	r3, r2
 8003074:	d901      	bls.n	800307a <HAL_RCC_OscConfig+0x5ce>
          {
            return HAL_TIMEOUT;
 8003076:	2303      	movs	r3, #3
 8003078:	e0f1      	b.n	800325e <HAL_RCC_OscConfig+0x7b2>
        while (READ_BIT(RCC->BDCR, RCC_BDCR_LSESYSRDY) == 0U)
 800307a:	4a28      	ldr	r2, [pc, #160]	@ (800311c <HAL_RCC_OscConfig+0x670>)
 800307c:	2390      	movs	r3, #144	@ 0x90
 800307e:	58d2      	ldr	r2, [r2, r3]
 8003080:	2380      	movs	r3, #128	@ 0x80
 8003082:	011b      	lsls	r3, r3, #4
 8003084:	4013      	ands	r3, r2
 8003086:	d0ee      	beq.n	8003066 <HAL_RCC_OscConfig+0x5ba>
 8003088:	e059      	b.n	800313e <HAL_RCC_OscConfig+0x692>
        }
      }
      else
      {
        /* Make sure LSESYSEN/LSESYSRDY are reset */
        CLEAR_BIT(RCC->BDCR, RCC_BDCR_LSESYSEN);
 800308a:	4a24      	ldr	r2, [pc, #144]	@ (800311c <HAL_RCC_OscConfig+0x670>)
 800308c:	2390      	movs	r3, #144	@ 0x90
 800308e:	58d3      	ldr	r3, [r2, r3]
 8003090:	4922      	ldr	r1, [pc, #136]	@ (800311c <HAL_RCC_OscConfig+0x670>)
 8003092:	2280      	movs	r2, #128	@ 0x80
 8003094:	4393      	bics	r3, r2
 8003096:	2290      	movs	r2, #144	@ 0x90
 8003098:	508b      	str	r3, [r1, r2]

        /* Wait till LSESYSRDY is cleared */
        while (READ_BIT(RCC->BDCR, RCC_BDCR_LSESYSRDY) != 0U)
 800309a:	e009      	b.n	80030b0 <HAL_RCC_OscConfig+0x604>
        {
          if ((HAL_GetTick() - tickstart) > RCC_LSE_TIMEOUT_VALUE)
 800309c:	f7fe fba0 	bl	80017e0 <HAL_GetTick>
 80030a0:	0002      	movs	r2, r0
 80030a2:	693b      	ldr	r3, [r7, #16]
 80030a4:	1ad3      	subs	r3, r2, r3
 80030a6:	4a21      	ldr	r2, [pc, #132]	@ (800312c <HAL_RCC_OscConfig+0x680>)
 80030a8:	4293      	cmp	r3, r2
 80030aa:	d901      	bls.n	80030b0 <HAL_RCC_OscConfig+0x604>
          {
            return HAL_TIMEOUT;
 80030ac:	2303      	movs	r3, #3
 80030ae:	e0d6      	b.n	800325e <HAL_RCC_OscConfig+0x7b2>
        while (READ_BIT(RCC->BDCR, RCC_BDCR_LSESYSRDY) != 0U)
 80030b0:	4a1a      	ldr	r2, [pc, #104]	@ (800311c <HAL_RCC_OscConfig+0x670>)
 80030b2:	2390      	movs	r3, #144	@ 0x90
 80030b4:	58d2      	ldr	r2, [r2, r3]
 80030b6:	2380      	movs	r3, #128	@ 0x80
 80030b8:	011b      	lsls	r3, r3, #4
 80030ba:	4013      	ands	r3, r2
 80030bc:	d1ee      	bne.n	800309c <HAL_RCC_OscConfig+0x5f0>
 80030be:	e03e      	b.n	800313e <HAL_RCC_OscConfig+0x692>
      }
    }
    else
    {
      /* Get Start Tick*/
      tickstart = HAL_GetTick();
 80030c0:	f7fe fb8e 	bl	80017e0 <HAL_GetTick>
 80030c4:	0003      	movs	r3, r0
 80030c6:	613b      	str	r3, [r7, #16]

      /* Wait till LSE is disabled */
      while (READ_BIT(RCC->BDCR, RCC_BDCR_LSERDY) != 0U)
 80030c8:	e009      	b.n	80030de <HAL_RCC_OscConfig+0x632>
      {
        if ((HAL_GetTick() - tickstart) > RCC_LSE_TIMEOUT_VALUE)
 80030ca:	f7fe fb89 	bl	80017e0 <HAL_GetTick>
 80030ce:	0002      	movs	r2, r0
 80030d0:	693b      	ldr	r3, [r7, #16]
 80030d2:	1ad3      	subs	r3, r2, r3
 80030d4:	4a15      	ldr	r2, [pc, #84]	@ (800312c <HAL_RCC_OscConfig+0x680>)
 80030d6:	4293      	cmp	r3, r2
 80030d8:	d901      	bls.n	80030de <HAL_RCC_OscConfig+0x632>
        {
          return HAL_TIMEOUT;
 80030da:	2303      	movs	r3, #3
 80030dc:	e0bf      	b.n	800325e <HAL_RCC_OscConfig+0x7b2>
      while (READ_BIT(RCC->BDCR, RCC_BDCR_LSERDY) != 0U)
 80030de:	4a0f      	ldr	r2, [pc, #60]	@ (800311c <HAL_RCC_OscConfig+0x670>)
 80030e0:	2390      	movs	r3, #144	@ 0x90
 80030e2:	58d3      	ldr	r3, [r2, r3]
 80030e4:	2202      	movs	r2, #2
 80030e6:	4013      	ands	r3, r2
 80030e8:	d1ef      	bne.n	80030ca <HAL_RCC_OscConfig+0x61e>
        }
      }

      if (READ_BIT(RCC->BDCR, RCC_BDCR_LSESYSEN) != 0U)
 80030ea:	4a0c      	ldr	r2, [pc, #48]	@ (800311c <HAL_RCC_OscConfig+0x670>)
 80030ec:	2390      	movs	r3, #144	@ 0x90
 80030ee:	58d3      	ldr	r3, [r2, r3]
 80030f0:	2280      	movs	r2, #128	@ 0x80
 80030f2:	4013      	ands	r3, r2
 80030f4:	d023      	beq.n	800313e <HAL_RCC_OscConfig+0x692>
      {
        /* Reset LSESYSEN once LSE is disabled */
        CLEAR_BIT(RCC->BDCR, RCC_BDCR_LSESYSEN);
 80030f6:	4a09      	ldr	r2, [pc, #36]	@ (800311c <HAL_RCC_OscConfig+0x670>)
 80030f8:	2390      	movs	r3, #144	@ 0x90
 80030fa:	58d3      	ldr	r3, [r2, r3]
 80030fc:	4907      	ldr	r1, [pc, #28]	@ (800311c <HAL_RCC_OscConfig+0x670>)
 80030fe:	2280      	movs	r2, #128	@ 0x80
 8003100:	4393      	bics	r3, r2
 8003102:	2290      	movs	r2, #144	@ 0x90
 8003104:	508b      	str	r3, [r1, r2]

        /* Wait till LSESYSRDY is cleared */
        while (READ_BIT(RCC->BDCR, RCC_BDCR_LSESYSRDY) != 0U)
 8003106:	e013      	b.n	8003130 <HAL_RCC_OscConfig+0x684>
        {
          if ((HAL_GetTick() - tickstart) > RCC_LSE_TIMEOUT_VALUE)
 8003108:	f7fe fb6a 	bl	80017e0 <HAL_GetTick>
 800310c:	0002      	movs	r2, r0
 800310e:	693b      	ldr	r3, [r7, #16]
 8003110:	1ad3      	subs	r3, r2, r3
 8003112:	4a06      	ldr	r2, [pc, #24]	@ (800312c <HAL_RCC_OscConfig+0x680>)
 8003114:	4293      	cmp	r3, r2
 8003116:	d90b      	bls.n	8003130 <HAL_RCC_OscConfig+0x684>
          {
            return HAL_TIMEOUT;
 8003118:	2303      	movs	r3, #3
 800311a:	e0a0      	b.n	800325e <HAL_RCC_OscConfig+0x7b2>
 800311c:	40021000 	.word	0x40021000
 8003120:	80ffffff 	.word	0x80ffffff
 8003124:	fffffeff 	.word	0xfffffeff
 8003128:	40007000 	.word	0x40007000
 800312c:	00001388 	.word	0x00001388
        while (READ_BIT(RCC->BDCR, RCC_BDCR_LSESYSRDY) != 0U)
 8003130:	4a4d      	ldr	r2, [pc, #308]	@ (8003268 <HAL_RCC_OscConfig+0x7bc>)
 8003132:	2390      	movs	r3, #144	@ 0x90
 8003134:	58d2      	ldr	r2, [r2, r3]
 8003136:	2380      	movs	r3, #128	@ 0x80
 8003138:	011b      	lsls	r3, r3, #4
 800313a:	4013      	ands	r3, r2
 800313c:	d1e4      	bne.n	8003108 <HAL_RCC_OscConfig+0x65c>
        }
      }
    }

    /* Restore clock configuration if changed */
    if (pwrclkchanged == SET)
 800313e:	231f      	movs	r3, #31
 8003140:	18fb      	adds	r3, r7, r3
 8003142:	781b      	ldrb	r3, [r3, #0]
 8003144:	2b01      	cmp	r3, #1
 8003146:	d105      	bne.n	8003154 <HAL_RCC_OscConfig+0x6a8>
    {
      __HAL_RCC_PWR_CLK_DISABLE();
 8003148:	4b47      	ldr	r3, [pc, #284]	@ (8003268 <HAL_RCC_OscConfig+0x7bc>)
 800314a:	6d9a      	ldr	r2, [r3, #88]	@ 0x58
 800314c:	4b46      	ldr	r3, [pc, #280]	@ (8003268 <HAL_RCC_OscConfig+0x7bc>)
 800314e:	4947      	ldr	r1, [pc, #284]	@ (800326c <HAL_RCC_OscConfig+0x7c0>)
 8003150:	400a      	ands	r2, r1
 8003152:	659a      	str	r2, [r3, #88]	@ 0x58
#endif /* RCC_CRRCR_HSI48ON */
  /*-------------------------------- PLL Configuration -----------------------*/
  /* Check the parameters */
  assert_param(IS_RCC_PLL(RCC_OscInitStruct->PLL.PLLState));

  if (RCC_OscInitStruct->PLL.PLLState != RCC_PLL_NONE)
 8003154:	687b      	ldr	r3, [r7, #4]
 8003156:	6a9b      	ldr	r3, [r3, #40]	@ 0x28
 8003158:	2b00      	cmp	r3, #0
 800315a:	d100      	bne.n	800315e <HAL_RCC_OscConfig+0x6b2>
 800315c:	e07e      	b.n	800325c <HAL_RCC_OscConfig+0x7b0>
  {
    /* Check if the PLL is used as system clock or not */
    if (__HAL_RCC_GET_SYSCLK_SOURCE() != RCC_SYSCLKSOURCE_STATUS_PLLCLK)
 800315e:	4b42      	ldr	r3, [pc, #264]	@ (8003268 <HAL_RCC_OscConfig+0x7bc>)
 8003160:	689b      	ldr	r3, [r3, #8]
 8003162:	2238      	movs	r2, #56	@ 0x38
 8003164:	4013      	ands	r3, r2
 8003166:	2b18      	cmp	r3, #24
 8003168:	d100      	bne.n	800316c <HAL_RCC_OscConfig+0x6c0>
 800316a:	e075      	b.n	8003258 <HAL_RCC_OscConfig+0x7ac>
    {
      if (RCC_OscInitStruct->PLL.PLLState == RCC_PLL_ON)
 800316c:	687b      	ldr	r3, [r7, #4]
 800316e:	6a9b      	ldr	r3, [r3, #40]	@ 0x28
 8003170:	2b02      	cmp	r3, #2
 8003172:	d156      	bne.n	8003222 <HAL_RCC_OscConfig+0x776>
        assert_param(IS_RCC_PLL_DIVP_VALUE(RCC_OscInitStruct->PLL.PLLP));
        assert_param(IS_RCC_PLL_DIVQ_VALUE(RCC_OscInitStruct->PLL.PLLQ));
        assert_param(IS_RCC_PLL_DIVR_VALUE(RCC_OscInitStruct->PLL.PLLR));

        /* Disable the main PLL. */
        __HAL_RCC_PLL_DISABLE();
 8003174:	4b3c      	ldr	r3, [pc, #240]	@ (8003268 <HAL_RCC_OscConfig+0x7bc>)
 8003176:	681a      	ldr	r2, [r3, #0]
 8003178:	4b3b      	ldr	r3, [pc, #236]	@ (8003268 <HAL_RCC_OscConfig+0x7bc>)
 800317a:	493d      	ldr	r1, [pc, #244]	@ (8003270 <HAL_RCC_OscConfig+0x7c4>)
 800317c:	400a      	ands	r2, r1
 800317e:	601a      	str	r2, [r3, #0]

        /* Get Start Tick*/
        tickstart = HAL_GetTick();
 8003180:	f7fe fb2e 	bl	80017e0 <HAL_GetTick>
 8003184:	0003      	movs	r3, r0
 8003186:	613b      	str	r3, [r7, #16]

        /* Wait till PLL is ready */
        while (READ_BIT(RCC->CR, RCC_CR_PLLRDY) != 0U)
 8003188:	e008      	b.n	800319c <HAL_RCC_OscConfig+0x6f0>
        {
          if ((HAL_GetTick() - tickstart) > PLL_TIMEOUT_VALUE)
 800318a:	f7fe fb29 	bl	80017e0 <HAL_GetTick>
 800318e:	0002      	movs	r2, r0
 8003190:	693b      	ldr	r3, [r7, #16]
 8003192:	1ad3      	subs	r3, r2, r3
 8003194:	2b02      	cmp	r3, #2
 8003196:	d901      	bls.n	800319c <HAL_RCC_OscConfig+0x6f0>
          {
            return HAL_TIMEOUT;
 8003198:	2303      	movs	r3, #3
 800319a:	e060      	b.n	800325e <HAL_RCC_OscConfig+0x7b2>
        while (READ_BIT(RCC->CR, RCC_CR_PLLRDY) != 0U)
 800319c:	4b32      	ldr	r3, [pc, #200]	@ (8003268 <HAL_RCC_OscConfig+0x7bc>)
 800319e:	681a      	ldr	r2, [r3, #0]
 80031a0:	2380      	movs	r3, #128	@ 0x80
 80031a2:	049b      	lsls	r3, r3, #18
 80031a4:	4013      	ands	r3, r2
 80031a6:	d1f0      	bne.n	800318a <HAL_RCC_OscConfig+0x6de>
          }
        }

        /* Configure the main PLL clock source, multiplication and division factors. */
        __HAL_RCC_PLL_CONFIG(RCC_OscInitStruct->PLL.PLLSource,
 80031a8:	4b2f      	ldr	r3, [pc, #188]	@ (8003268 <HAL_RCC_OscConfig+0x7bc>)
 80031aa:	68db      	ldr	r3, [r3, #12]
 80031ac:	4a31      	ldr	r2, [pc, #196]	@ (8003274 <HAL_RCC_OscConfig+0x7c8>)
 80031ae:	4013      	ands	r3, r2
 80031b0:	0019      	movs	r1, r3
 80031b2:	687b      	ldr	r3, [r7, #4]
 80031b4:	6ada      	ldr	r2, [r3, #44]	@ 0x2c
 80031b6:	687b      	ldr	r3, [r7, #4]
 80031b8:	6b1b      	ldr	r3, [r3, #48]	@ 0x30
 80031ba:	431a      	orrs	r2, r3
 80031bc:	687b      	ldr	r3, [r7, #4]
 80031be:	6b5b      	ldr	r3, [r3, #52]	@ 0x34
 80031c0:	021b      	lsls	r3, r3, #8
 80031c2:	431a      	orrs	r2, r3
 80031c4:	687b      	ldr	r3, [r7, #4]
 80031c6:	6bdb      	ldr	r3, [r3, #60]	@ 0x3c
 80031c8:	431a      	orrs	r2, r3
 80031ca:	687b      	ldr	r3, [r7, #4]
 80031cc:	6c1b      	ldr	r3, [r3, #64]	@ 0x40
 80031ce:	431a      	orrs	r2, r3
 80031d0:	687b      	ldr	r3, [r7, #4]
 80031d2:	6b9b      	ldr	r3, [r3, #56]	@ 0x38
 80031d4:	431a      	orrs	r2, r3
 80031d6:	4b24      	ldr	r3, [pc, #144]	@ (8003268 <HAL_RCC_OscConfig+0x7bc>)
 80031d8:	430a      	orrs	r2, r1
 80031da:	60da      	str	r2, [r3, #12]
                             RCC_OscInitStruct->PLL.PLLP,
                             RCC_OscInitStruct->PLL.PLLQ,
                             RCC_OscInitStruct->PLL.PLLR);

        /* Enable PLL System Clock output */
        __HAL_RCC_PLLCLKOUT_ENABLE(RCC_PLL_DIVR);
 80031dc:	4b22      	ldr	r3, [pc, #136]	@ (8003268 <HAL_RCC_OscConfig+0x7bc>)
 80031de:	68da      	ldr	r2, [r3, #12]
 80031e0:	4b21      	ldr	r3, [pc, #132]	@ (8003268 <HAL_RCC_OscConfig+0x7bc>)
 80031e2:	2180      	movs	r1, #128	@ 0x80
 80031e4:	0549      	lsls	r1, r1, #21
 80031e6:	430a      	orrs	r2, r1
 80031e8:	60da      	str	r2, [r3, #12]

        /* Enable the main PLL. */
        __HAL_RCC_PLL_ENABLE();
 80031ea:	4b1f      	ldr	r3, [pc, #124]	@ (8003268 <HAL_RCC_OscConfig+0x7bc>)
 80031ec:	681a      	ldr	r2, [r3, #0]
 80031ee:	4b1e      	ldr	r3, [pc, #120]	@ (8003268 <HAL_RCC_OscConfig+0x7bc>)
 80031f0:	2180      	movs	r1, #128	@ 0x80
 80031f2:	0449      	lsls	r1, r1, #17
 80031f4:	430a      	orrs	r2, r1
 80031f6:	601a      	str	r2, [r3, #0]

        /* Get Start Tick*/
        tickstart = HAL_GetTick();
 80031f8:	f7fe faf2 	bl	80017e0 <HAL_GetTick>
 80031fc:	0003      	movs	r3, r0
 80031fe:	613b      	str	r3, [r7, #16]

        /* Wait till PLL is ready */
        while (READ_BIT(RCC->CR, RCC_CR_PLLRDY) == 0U)
 8003200:	e008      	b.n	8003214 <HAL_RCC_OscConfig+0x768>
        {
          if ((HAL_GetTick() - tickstart) > PLL_TIMEOUT_VALUE)
 8003202:	f7fe faed 	bl	80017e0 <HAL_GetTick>
 8003206:	0002      	movs	r2, r0
 8003208:	693b      	ldr	r3, [r7, #16]
 800320a:	1ad3      	subs	r3, r2, r3
 800320c:	2b02      	cmp	r3, #2
 800320e:	d901      	bls.n	8003214 <HAL_RCC_OscConfig+0x768>
          {
            return HAL_TIMEOUT;
 8003210:	2303      	movs	r3, #3
 8003212:	e024      	b.n	800325e <HAL_RCC_OscConfig+0x7b2>
        while (READ_BIT(RCC->CR, RCC_CR_PLLRDY) == 0U)
 8003214:	4b14      	ldr	r3, [pc, #80]	@ (8003268 <HAL_RCC_OscConfig+0x7bc>)
 8003216:	681a      	ldr	r2, [r3, #0]
 8003218:	2380      	movs	r3, #128	@ 0x80
 800321a:	049b      	lsls	r3, r3, #18
 800321c:	4013      	ands	r3, r2
 800321e:	d0f0      	beq.n	8003202 <HAL_RCC_OscConfig+0x756>
 8003220:	e01c      	b.n	800325c <HAL_RCC_OscConfig+0x7b0>
        }
      }
      else
      {
        /* Disable the main PLL. */
        __HAL_RCC_PLL_DISABLE();
 8003222:	4b11      	ldr	r3, [pc, #68]	@ (8003268 <HAL_RCC_OscConfig+0x7bc>)
 8003224:	681a      	ldr	r2, [r3, #0]
 8003226:	4b10      	ldr	r3, [pc, #64]	@ (8003268 <HAL_RCC_OscConfig+0x7bc>)
 8003228:	4911      	ldr	r1, [pc, #68]	@ (8003270 <HAL_RCC_OscConfig+0x7c4>)
 800322a:	400a      	ands	r2, r1
 800322c:	601a      	str	r2, [r3, #0]

        /* Get Start Tick*/
        tickstart = HAL_GetTick();
 800322e:	f7fe fad7 	bl	80017e0 <HAL_GetTick>
 8003232:	0003      	movs	r3, r0
 8003234:	613b      	str	r3, [r7, #16]

        /* Wait till PLL is disabled */
        while (READ_BIT(RCC->CR, RCC_CR_PLLRDY) != 0U)
 8003236:	e008      	b.n	800324a <HAL_RCC_OscConfig+0x79e>
        {
          if ((HAL_GetTick() - tickstart) > PLL_TIMEOUT_VALUE)
 8003238:	f7fe fad2 	bl	80017e0 <HAL_GetTick>
 800323c:	0002      	movs	r2, r0
 800323e:	693b      	ldr	r3, [r7, #16]
 8003240:	1ad3      	subs	r3, r2, r3
 8003242:	2b02      	cmp	r3, #2
 8003244:	d901      	bls.n	800324a <HAL_RCC_OscConfig+0x79e>
          {
            return HAL_TIMEOUT;
 8003246:	2303      	movs	r3, #3
 8003248:	e009      	b.n	800325e <HAL_RCC_OscConfig+0x7b2>
        while (READ_BIT(RCC->CR, RCC_CR_PLLRDY) != 0U)
 800324a:	4b07      	ldr	r3, [pc, #28]	@ (8003268 <HAL_RCC_OscConfig+0x7bc>)
 800324c:	681a      	ldr	r2, [r3, #0]
 800324e:	2380      	movs	r3, #128	@ 0x80
 8003250:	049b      	lsls	r3, r3, #18
 8003252:	4013      	ands	r3, r2
 8003254:	d1f0      	bne.n	8003238 <HAL_RCC_OscConfig+0x78c>
 8003256:	e001      	b.n	800325c <HAL_RCC_OscConfig+0x7b0>
        }
      }
    }
    else
    {
      return HAL_ERROR;
 8003258:	2301      	movs	r3, #1
 800325a:	e000      	b.n	800325e <HAL_RCC_OscConfig+0x7b2>
    }
  }
  return HAL_OK;
 800325c:	2300      	movs	r3, #0
}
 800325e:	0018      	movs	r0, r3
 8003260:	46bd      	mov	sp, r7
 8003262:	b008      	add	sp, #32
 8003264:	bdb0      	pop	{r4, r5, r7, pc}
 8003266:	46c0      	nop			@ (mov r8, r8)
 8003268:	40021000 	.word	0x40021000
 800326c:	efffffff 	.word	0xefffffff
 8003270:	feffffff 	.word	0xfeffffff
 8003274:	11c1808c 	.word	0x11c1808c

08003278 <HAL_RCC_ClockConfig>:

HAL_StatusTypeDef HAL_RCC_ClockConfig(const RCC_ClkInitTypeDef  *const RCC_ClkInitStruct, uint32_t FLatency)
{
 8003278:	b5b0      	push	{r4, r5, r7, lr}
 800327a:	b084      	sub	sp, #16
 800327c:	af00      	add	r7, sp, #0
 800327e:	6078      	str	r0, [r7, #4]
 8003280:	6039      	str	r1, [r7, #0]
  /* To correctly read data from FLASH memory, the number of wait states (LATENCY)
    must be correctly programmed according to the frequency of the CPU clock
    (HCLK) and the supply voltage of the device. */

  /* Increasing the number of wait states because of higher CPU frequency */
  if (FLatency > __HAL_FLASH_GET_LATENCY())
 8003282:	4b6c      	ldr	r3, [pc, #432]	@ (8003434 <HAL_RCC_ClockConfig+0x1bc>)
 8003284:	681b      	ldr	r3, [r3, #0]
 8003286:	2207      	movs	r2, #7
 8003288:	4013      	ands	r3, r2
 800328a:	683a      	ldr	r2, [r7, #0]
 800328c:	429a      	cmp	r2, r3
 800328e:	d911      	bls.n	80032b4 <HAL_RCC_ClockConfig+0x3c>
  {
    /* Program the new number of wait states to the LATENCY bits in the FLASH_ACR register */
    __HAL_FLASH_SET_LATENCY(FLatency);
 8003290:	4b68      	ldr	r3, [pc, #416]	@ (8003434 <HAL_RCC_ClockConfig+0x1bc>)
 8003292:	681b      	ldr	r3, [r3, #0]
 8003294:	2207      	movs	r2, #7
 8003296:	4393      	bics	r3, r2
 8003298:	0019      	movs	r1, r3
 800329a:	4b66      	ldr	r3, [pc, #408]	@ (8003434 <HAL_RCC_ClockConfig+0x1bc>)
 800329c:	683a      	ldr	r2, [r7, #0]
 800329e:	430a      	orrs	r2, r1
 80032a0:	601a      	str	r2, [r3, #0]

    /* Check that the new number of wait states is taken into account to access the Flash
    memory by reading the FLASH_ACR register */
    if (__HAL_FLASH_GET_LATENCY() != FLatency)
 80032a2:	4b64      	ldr	r3, [pc, #400]	@ (8003434 <HAL_RCC_ClockConfig+0x1bc>)
 80032a4:	681b      	ldr	r3, [r3, #0]
 80032a6:	2207      	movs	r2, #7
 80032a8:	4013      	ands	r3, r2
 80032aa:	683a      	ldr	r2, [r7, #0]
 80032ac:	429a      	cmp	r2, r3
 80032ae:	d001      	beq.n	80032b4 <HAL_RCC_ClockConfig+0x3c>
    {
      return HAL_ERROR;
 80032b0:	2301      	movs	r3, #1
 80032b2:	e0bb      	b.n	800342c <HAL_RCC_ClockConfig+0x1b4>
    }
  }

  /*------------------------- SYSCLK Configuration ---------------------------*/
  if (((RCC_ClkInitStruct->ClockType) & RCC_CLOCKTYPE_SYSCLK) == RCC_CLOCKTYPE_SYSCLK)
 80032b4:	687b      	ldr	r3, [r7, #4]
 80032b6:	681b      	ldr	r3, [r3, #0]
 80032b8:	2201      	movs	r2, #1
 80032ba:	4013      	ands	r3, r2
 80032bc:	d100      	bne.n	80032c0 <HAL_RCC_ClockConfig+0x48>
 80032be:	e064      	b.n	800338a <HAL_RCC_ClockConfig+0x112>
  {
    assert_param(IS_RCC_SYSCLKSOURCE(RCC_ClkInitStruct->SYSCLKSource));

    /* PLL is selected as System Clock Source */
    if (RCC_ClkInitStruct->SYSCLKSource == RCC_SYSCLKSOURCE_PLLCLK)
 80032c0:	687b      	ldr	r3, [r7, #4]
 80032c2:	685b      	ldr	r3, [r3, #4]
 80032c4:	2b03      	cmp	r3, #3
 80032c6:	d107      	bne.n	80032d8 <HAL_RCC_ClockConfig+0x60>
    {
      /* Check the PLL ready flag */
      if (READ_BIT(RCC->CR, RCC_CR_PLLRDY) == 0U)
 80032c8:	4b5b      	ldr	r3, [pc, #364]	@ (8003438 <HAL_RCC_ClockConfig+0x1c0>)
 80032ca:	681a      	ldr	r2, [r3, #0]
 80032cc:	2380      	movs	r3, #128	@ 0x80
 80032ce:	049b      	lsls	r3, r3, #18
 80032d0:	4013      	ands	r3, r2
 80032d2:	d138      	bne.n	8003346 <HAL_RCC_ClockConfig+0xce>
      {
        return HAL_ERROR;
 80032d4:	2301      	movs	r3, #1
 80032d6:	e0a9      	b.n	800342c <HAL_RCC_ClockConfig+0x1b4>
      }
    }
    else
    {
      if (RCC_ClkInitStruct->SYSCLKSource == RCC_SYSCLKSOURCE_HSE)
 80032d8:	687b      	ldr	r3, [r7, #4]
 80032da:	685b      	ldr	r3, [r3, #4]
 80032dc:	2b02      	cmp	r3, #2
 80032de:	d107      	bne.n	80032f0 <HAL_RCC_ClockConfig+0x78>
      {
        /* Check the HSE ready flag */
        if (READ_BIT(RCC->CR, RCC_CR_HSERDY) == 0U)
 80032e0:	4b55      	ldr	r3, [pc, #340]	@ (8003438 <HAL_RCC_ClockConfig+0x1c0>)
 80032e2:	681a      	ldr	r2, [r3, #0]
 80032e4:	2380      	movs	r3, #128	@ 0x80
 80032e6:	029b      	lsls	r3, r3, #10
 80032e8:	4013      	ands	r3, r2
 80032ea:	d12c      	bne.n	8003346 <HAL_RCC_ClockConfig+0xce>
        {
          return HAL_ERROR;
 80032ec:	2301      	movs	r3, #1
 80032ee:	e09d      	b.n	800342c <HAL_RCC_ClockConfig+0x1b4>
        }
      }
      /* MSI is selected as System Clock Source */
      else if (RCC_ClkInitStruct->SYSCLKSource == RCC_SYSCLKSOURCE_MSI)
 80032f0:	687b      	ldr	r3, [r7, #4]
 80032f2:	685b      	ldr	r3, [r3, #4]
 80032f4:	2b00      	cmp	r3, #0
 80032f6:	d106      	bne.n	8003306 <HAL_RCC_ClockConfig+0x8e>
      {
        /* Check the MSI ready flag */
        if (READ_BIT(RCC->CR, RCC_CR_MSIRDY) == 0U)
 80032f8:	4b4f      	ldr	r3, [pc, #316]	@ (8003438 <HAL_RCC_ClockConfig+0x1c0>)
 80032fa:	681b      	ldr	r3, [r3, #0]
 80032fc:	2202      	movs	r2, #2
 80032fe:	4013      	ands	r3, r2
 8003300:	d121      	bne.n	8003346 <HAL_RCC_ClockConfig+0xce>
        {
          return HAL_ERROR;
 8003302:	2301      	movs	r3, #1
 8003304:	e092      	b.n	800342c <HAL_RCC_ClockConfig+0x1b4>
        }
      }
      /* HSI is selected as System Clock Source */
      else if (RCC_ClkInitStruct->SYSCLKSource == RCC_SYSCLKSOURCE_HSI)
 8003306:	687b      	ldr	r3, [r7, #4]
 8003308:	685b      	ldr	r3, [r3, #4]
 800330a:	2b01      	cmp	r3, #1
 800330c:	d107      	bne.n	800331e <HAL_RCC_ClockConfig+0xa6>
      {
        /* Check the HSI ready flag */
        if (READ_BIT(RCC->CR, RCC_CR_HSIRDY) == 0U)
 800330e:	4b4a      	ldr	r3, [pc, #296]	@ (8003438 <HAL_RCC_ClockConfig+0x1c0>)
 8003310:	681a      	ldr	r2, [r3, #0]
 8003312:	2380      	movs	r3, #128	@ 0x80
 8003314:	00db      	lsls	r3, r3, #3
 8003316:	4013      	ands	r3, r2
 8003318:	d115      	bne.n	8003346 <HAL_RCC_ClockConfig+0xce>
        {
          return HAL_ERROR;
 800331a:	2301      	movs	r3, #1
 800331c:	e086      	b.n	800342c <HAL_RCC_ClockConfig+0x1b4>
        }
      }

      /* LSI is selected as System Clock Source */
      else if (RCC_ClkInitStruct->SYSCLKSource == RCC_SYSCLKSOURCE_LSI)
 800331e:	687b      	ldr	r3, [r7, #4]
 8003320:	685b      	ldr	r3, [r3, #4]
 8003322:	2b04      	cmp	r3, #4
 8003324:	d107      	bne.n	8003336 <HAL_RCC_ClockConfig+0xbe>
      {
        /* Check the LSI ready flag */
        if (READ_BIT(RCC->CSR, RCC_CSR_LSIRDY) == 0U)
 8003326:	4a44      	ldr	r2, [pc, #272]	@ (8003438 <HAL_RCC_ClockConfig+0x1c0>)
 8003328:	2394      	movs	r3, #148	@ 0x94
 800332a:	58d3      	ldr	r3, [r2, r3]
 800332c:	2202      	movs	r2, #2
 800332e:	4013      	ands	r3, r2
 8003330:	d109      	bne.n	8003346 <HAL_RCC_ClockConfig+0xce>
        {
          return HAL_ERROR;
 8003332:	2301      	movs	r3, #1
 8003334:	e07a      	b.n	800342c <HAL_RCC_ClockConfig+0x1b4>

      /* LSE is selected as System Clock Source */
      else
      {
        /* Check the LSE ready flag */
        if (READ_BIT(RCC->BDCR, RCC_BDCR_LSERDY) == 0U)
 8003336:	4a40      	ldr	r2, [pc, #256]	@ (8003438 <HAL_RCC_ClockConfig+0x1c0>)
 8003338:	2390      	movs	r3, #144	@ 0x90
 800333a:	58d3      	ldr	r3, [r2, r3]
 800333c:	2202      	movs	r2, #2
 800333e:	4013      	ands	r3, r2
 8003340:	d101      	bne.n	8003346 <HAL_RCC_ClockConfig+0xce>
        {
          return HAL_ERROR;
 8003342:	2301      	movs	r3, #1
 8003344:	e072      	b.n	800342c <HAL_RCC_ClockConfig+0x1b4>
        }
      }
    }

    MODIFY_REG(RCC->CFGR, RCC_CFGR_SW, RCC_ClkInitStruct->SYSCLKSource);
 8003346:	4b3c      	ldr	r3, [pc, #240]	@ (8003438 <HAL_RCC_ClockConfig+0x1c0>)
 8003348:	689b      	ldr	r3, [r3, #8]
 800334a:	2207      	movs	r2, #7
 800334c:	4393      	bics	r3, r2
 800334e:	0019      	movs	r1, r3
 8003350:	687b      	ldr	r3, [r7, #4]
 8003352:	685a      	ldr	r2, [r3, #4]
 8003354:	4b38      	ldr	r3, [pc, #224]	@ (8003438 <HAL_RCC_ClockConfig+0x1c0>)
 8003356:	430a      	orrs	r2, r1
 8003358:	609a      	str	r2, [r3, #8]

    /* Get Start Tick */
    tickstart = HAL_GetTick();
 800335a:	f7fe fa41 	bl	80017e0 <HAL_GetTick>
 800335e:	0003      	movs	r3, r0
 8003360:	60fb      	str	r3, [r7, #12]

    while (__HAL_RCC_GET_SYSCLK_SOURCE() != (RCC_ClkInitStruct->SYSCLKSource << RCC_CFGR_SWS_Pos))
 8003362:	e009      	b.n	8003378 <HAL_RCC_ClockConfig+0x100>
    {
      if ((HAL_GetTick() - tickstart) > CLOCKSWITCH_TIMEOUT_VALUE)
 8003364:	f7fe fa3c 	bl	80017e0 <HAL_GetTick>
 8003368:	0002      	movs	r2, r0
 800336a:	68fb      	ldr	r3, [r7, #12]
 800336c:	1ad3      	subs	r3, r2, r3
 800336e:	4a33      	ldr	r2, [pc, #204]	@ (800343c <HAL_RCC_ClockConfig+0x1c4>)
 8003370:	4293      	cmp	r3, r2
 8003372:	d901      	bls.n	8003378 <HAL_RCC_ClockConfig+0x100>
      {
        return HAL_TIMEOUT;
 8003374:	2303      	movs	r3, #3
 8003376:	e059      	b.n	800342c <HAL_RCC_ClockConfig+0x1b4>
    while (__HAL_RCC_GET_SYSCLK_SOURCE() != (RCC_ClkInitStruct->SYSCLKSource << RCC_CFGR_SWS_Pos))
 8003378:	4b2f      	ldr	r3, [pc, #188]	@ (8003438 <HAL_RCC_ClockConfig+0x1c0>)
 800337a:	689b      	ldr	r3, [r3, #8]
 800337c:	2238      	movs	r2, #56	@ 0x38
 800337e:	401a      	ands	r2, r3
 8003380:	687b      	ldr	r3, [r7, #4]
 8003382:	685b      	ldr	r3, [r3, #4]
 8003384:	00db      	lsls	r3, r3, #3
 8003386:	429a      	cmp	r2, r3
 8003388:	d1ec      	bne.n	8003364 <HAL_RCC_ClockConfig+0xec>
      }
    }
  }

  /*-------------------------- HCLK Configuration --------------------------*/
  if (((RCC_ClkInitStruct->ClockType) & RCC_CLOCKTYPE_HCLK) == RCC_CLOCKTYPE_HCLK)
 800338a:	687b      	ldr	r3, [r7, #4]
 800338c:	681b      	ldr	r3, [r3, #0]
 800338e:	2202      	movs	r2, #2
 8003390:	4013      	ands	r3, r2
 8003392:	d009      	beq.n	80033a8 <HAL_RCC_ClockConfig+0x130>
  {
    /* Set the new HCLK clock divider */
    assert_param(IS_RCC_HCLK(RCC_ClkInitStruct->AHBCLKDivider));
    MODIFY_REG(RCC->CFGR, RCC_CFGR_HPRE, RCC_ClkInitStruct->AHBCLKDivider);
 8003394:	4b28      	ldr	r3, [pc, #160]	@ (8003438 <HAL_RCC_ClockConfig+0x1c0>)
 8003396:	689b      	ldr	r3, [r3, #8]
 8003398:	4a29      	ldr	r2, [pc, #164]	@ (8003440 <HAL_RCC_ClockConfig+0x1c8>)
 800339a:	4013      	ands	r3, r2
 800339c:	0019      	movs	r1, r3
 800339e:	687b      	ldr	r3, [r7, #4]
 80033a0:	689a      	ldr	r2, [r3, #8]
 80033a2:	4b25      	ldr	r3, [pc, #148]	@ (8003438 <HAL_RCC_ClockConfig+0x1c0>)
 80033a4:	430a      	orrs	r2, r1
 80033a6:	609a      	str	r2, [r3, #8]
  }

  /* Decreasing the number of wait states because of lower CPU frequency */
  if (FLatency < __HAL_FLASH_GET_LATENCY())
 80033a8:	4b22      	ldr	r3, [pc, #136]	@ (8003434 <HAL_RCC_ClockConfig+0x1bc>)
 80033aa:	681b      	ldr	r3, [r3, #0]
 80033ac:	2207      	movs	r2, #7
 80033ae:	4013      	ands	r3, r2
 80033b0:	683a      	ldr	r2, [r7, #0]
 80033b2:	429a      	cmp	r2, r3
 80033b4:	d211      	bcs.n	80033da <HAL_RCC_ClockConfig+0x162>
  {
    /* Program the new number of wait states to the LATENCY bits in the FLASH_ACR register */
    __HAL_FLASH_SET_LATENCY(FLatency);
 80033b6:	4b1f      	ldr	r3, [pc, #124]	@ (8003434 <HAL_RCC_ClockConfig+0x1bc>)
 80033b8:	681b      	ldr	r3, [r3, #0]
 80033ba:	2207      	movs	r2, #7
 80033bc:	4393      	bics	r3, r2
 80033be:	0019      	movs	r1, r3
 80033c0:	4b1c      	ldr	r3, [pc, #112]	@ (8003434 <HAL_RCC_ClockConfig+0x1bc>)
 80033c2:	683a      	ldr	r2, [r7, #0]
 80033c4:	430a      	orrs	r2, r1
 80033c6:	601a      	str	r2, [r3, #0]

    /* Check that the new number of wait states is taken into account to access the Flash
    memory by reading the FLASH_ACR register */
    if (__HAL_FLASH_GET_LATENCY() != FLatency)
 80033c8:	4b1a      	ldr	r3, [pc, #104]	@ (8003434 <HAL_RCC_ClockConfig+0x1bc>)
 80033ca:	681b      	ldr	r3, [r3, #0]
 80033cc:	2207      	movs	r2, #7
 80033ce:	4013      	ands	r3, r2
 80033d0:	683a      	ldr	r2, [r7, #0]
 80033d2:	429a      	cmp	r2, r3
 80033d4:	d001      	beq.n	80033da <HAL_RCC_ClockConfig+0x162>
    {
      return HAL_ERROR;
 80033d6:	2301      	movs	r3, #1
 80033d8:	e028      	b.n	800342c <HAL_RCC_ClockConfig+0x1b4>
    }
  }

  /*-------------------------- PCLK Configuration ---------------------------*/
  if (((RCC_ClkInitStruct->ClockType) & RCC_CLOCKTYPE_PCLK1) == RCC_CLOCKTYPE_PCLK1)
 80033da:	687b      	ldr	r3, [r7, #4]
 80033dc:	681b      	ldr	r3, [r3, #0]
 80033de:	2204      	movs	r2, #4
 80033e0:	4013      	ands	r3, r2
 80033e2:	d009      	beq.n	80033f8 <HAL_RCC_ClockConfig+0x180>
  {
    assert_param(IS_RCC_PCLK(RCC_ClkInitStruct->APB1CLKDivider));
    MODIFY_REG(RCC->CFGR, RCC_CFGR_PPRE, RCC_ClkInitStruct->APB1CLKDivider);
 80033e4:	4b14      	ldr	r3, [pc, #80]	@ (8003438 <HAL_RCC_ClockConfig+0x1c0>)
 80033e6:	689b      	ldr	r3, [r3, #8]
 80033e8:	4a16      	ldr	r2, [pc, #88]	@ (8003444 <HAL_RCC_ClockConfig+0x1cc>)
 80033ea:	4013      	ands	r3, r2
 80033ec:	0019      	movs	r1, r3
 80033ee:	687b      	ldr	r3, [r7, #4]
 80033f0:	68da      	ldr	r2, [r3, #12]
 80033f2:	4b11      	ldr	r3, [pc, #68]	@ (8003438 <HAL_RCC_ClockConfig+0x1c0>)
 80033f4:	430a      	orrs	r2, r1
 80033f6:	609a      	str	r2, [r3, #8]
  }

  /* Update the SystemCoreClock global variable */
  SystemCoreClock = HAL_RCC_GetSysClockFreq() >> (AHBPrescTable[READ_BIT(RCC->CFGR, RCC_CFGR_HPRE) \
 80033f8:	f000 f82a 	bl	8003450 <HAL_RCC_GetSysClockFreq>
 80033fc:	0001      	movs	r1, r0
 80033fe:	4b0e      	ldr	r3, [pc, #56]	@ (8003438 <HAL_RCC_ClockConfig+0x1c0>)
 8003400:	689b      	ldr	r3, [r3, #8]
                                                                >> RCC_CFGR_HPRE_Pos] & 0x1FU);
 8003402:	0a1b      	lsrs	r3, r3, #8
 8003404:	220f      	movs	r2, #15
 8003406:	4013      	ands	r3, r2
  SystemCoreClock = HAL_RCC_GetSysClockFreq() >> (AHBPrescTable[READ_BIT(RCC->CFGR, RCC_CFGR_HPRE) \
 8003408:	4a0f      	ldr	r2, [pc, #60]	@ (8003448 <HAL_RCC_ClockConfig+0x1d0>)
 800340a:	5cd3      	ldrb	r3, [r2, r3]
                                                                >> RCC_CFGR_HPRE_Pos] & 0x1FU);
 800340c:	001a      	movs	r2, r3
 800340e:	231f      	movs	r3, #31
 8003410:	4013      	ands	r3, r2
  SystemCoreClock = HAL_RCC_GetSysClockFreq() >> (AHBPrescTable[READ_BIT(RCC->CFGR, RCC_CFGR_HPRE) \
 8003412:	000a      	movs	r2, r1
 8003414:	40da      	lsrs	r2, r3
 8003416:	4b0d      	ldr	r3, [pc, #52]	@ (800344c <HAL_RCC_ClockConfig+0x1d4>)
 8003418:	601a      	str	r2, [r3, #0]

  /* Configure the source of time base considering new system clocks settings*/
  halstatus = HAL_InitTick(TICK_INT_PRIORITY);
 800341a:	250b      	movs	r5, #11
 800341c:	197c      	adds	r4, r7, r5
 800341e:	2000      	movs	r0, #0
 8003420:	f7fe f982 	bl	8001728 <HAL_InitTick>
 8003424:	0003      	movs	r3, r0
 8003426:	7023      	strb	r3, [r4, #0]

  return halstatus;
 8003428:	197b      	adds	r3, r7, r5
 800342a:	781b      	ldrb	r3, [r3, #0]
}
 800342c:	0018      	movs	r0, r3
 800342e:	46bd      	mov	sp, r7
 8003430:	b004      	add	sp, #16
 8003432:	bdb0      	pop	{r4, r5, r7, pc}
 8003434:	40022000 	.word	0x40022000
 8003438:	40021000 	.word	0x40021000
 800343c:	00001388 	.word	0x00001388
 8003440:	fffff0ff 	.word	0xfffff0ff
 8003444:	ffff8fff 	.word	0xffff8fff
 8003448:	08005eb0 	.word	0x08005eb0
 800344c:	20000014 	.word	0x20000014

08003450 <HAL_RCC_GetSysClockFreq>:
  *
  *
  * @retval SYSCLK frequency
  */
uint32_t HAL_RCC_GetSysClockFreq(void)
{
 8003450:	b580      	push	{r7, lr}
 8003452:	b08a      	sub	sp, #40	@ 0x28
 8003454:	af00      	add	r7, sp, #0
  uint32_t msirange = 0U;
 8003456:	2300      	movs	r3, #0
 8003458:	627b      	str	r3, [r7, #36]	@ 0x24
  uint32_t sysclockfreq = 0U;
 800345a:	2300      	movs	r3, #0
 800345c:	623b      	str	r3, [r7, #32]
  uint32_t pllm;
  uint32_t sysclk_source;
  uint32_t pll_oscsource;
  uint32_t pllsourcefreq;

  sysclk_source = __HAL_RCC_GET_SYSCLK_SOURCE();
 800345e:	4b46      	ldr	r3, [pc, #280]	@ (8003578 <HAL_RCC_GetSysClockFreq+0x128>)
 8003460:	689b      	ldr	r3, [r3, #8]
 8003462:	2238      	movs	r2, #56	@ 0x38
 8003464:	4013      	ands	r3, r2
 8003466:	61bb      	str	r3, [r7, #24]
  pll_oscsource = __HAL_RCC_GET_PLL_OSCSOURCE();
 8003468:	4b43      	ldr	r3, [pc, #268]	@ (8003578 <HAL_RCC_GetSysClockFreq+0x128>)
 800346a:	68db      	ldr	r3, [r3, #12]
 800346c:	2203      	movs	r2, #3
 800346e:	4013      	ands	r3, r2
 8003470:	617b      	str	r3, [r7, #20]

  if ((sysclk_source == RCC_SYSCLKSOURCE_STATUS_MSI) ||
 8003472:	69bb      	ldr	r3, [r7, #24]
 8003474:	2b00      	cmp	r3, #0
 8003476:	d005      	beq.n	8003484 <HAL_RCC_GetSysClockFreq+0x34>
 8003478:	69bb      	ldr	r3, [r7, #24]
 800347a:	2b18      	cmp	r3, #24
 800347c:	d125      	bne.n	80034ca <HAL_RCC_GetSysClockFreq+0x7a>
      ((sysclk_source == RCC_SYSCLKSOURCE_STATUS_PLLCLK) && (pll_oscsource == RCC_PLLSOURCE_MSI)))
 800347e:	697b      	ldr	r3, [r7, #20]
 8003480:	2b01      	cmp	r3, #1
 8003482:	d122      	bne.n	80034ca <HAL_RCC_GetSysClockFreq+0x7a>
  {
    /* MSI or PLL with MSI source used as system clock source */

    /* Get SYSCLK source */
    if (READ_BIT(RCC->CR, RCC_CR_MSIRGSEL) == 0U)
 8003484:	4b3c      	ldr	r3, [pc, #240]	@ (8003578 <HAL_RCC_GetSysClockFreq+0x128>)
 8003486:	681b      	ldr	r3, [r3, #0]
 8003488:	2208      	movs	r2, #8
 800348a:	4013      	ands	r3, r2
 800348c:	d107      	bne.n	800349e <HAL_RCC_GetSysClockFreq+0x4e>
    {
      /* MSISRANGE from RCC_CSR applies */
      msirange = READ_BIT(RCC->CSR, RCC_CSR_MSISTBYRG) >> RCC_CSR_MSISTBYRG_Pos;
 800348e:	4a3a      	ldr	r2, [pc, #232]	@ (8003578 <HAL_RCC_GetSysClockFreq+0x128>)
 8003490:	2394      	movs	r3, #148	@ 0x94
 8003492:	58d3      	ldr	r3, [r2, r3]
 8003494:	0a1b      	lsrs	r3, r3, #8
 8003496:	220f      	movs	r2, #15
 8003498:	4013      	ands	r3, r2
 800349a:	627b      	str	r3, [r7, #36]	@ 0x24
 800349c:	e005      	b.n	80034aa <HAL_RCC_GetSysClockFreq+0x5a>
    }
    else
    {
      /* MSIRANGE from RCC_CR applies */
      msirange = READ_BIT(RCC->CR, RCC_CR_MSIRANGE) >> RCC_CR_MSIRANGE_Pos;
 800349e:	4b36      	ldr	r3, [pc, #216]	@ (8003578 <HAL_RCC_GetSysClockFreq+0x128>)
 80034a0:	681b      	ldr	r3, [r3, #0]
 80034a2:	091b      	lsrs	r3, r3, #4
 80034a4:	220f      	movs	r2, #15
 80034a6:	4013      	ands	r3, r2
 80034a8:	627b      	str	r3, [r7, #36]	@ 0x24
    }
    /*MSI frequency range in HZ*/
    if (msirange > 11U)
 80034aa:	6a7b      	ldr	r3, [r7, #36]	@ 0x24
 80034ac:	2b0b      	cmp	r3, #11
 80034ae:	d901      	bls.n	80034b4 <HAL_RCC_GetSysClockFreq+0x64>
    {
      msirange = 0U;
 80034b0:	2300      	movs	r3, #0
 80034b2:	627b      	str	r3, [r7, #36]	@ 0x24
    }
    msirange = MSIRangeTable[msirange];
 80034b4:	4b31      	ldr	r3, [pc, #196]	@ (800357c <HAL_RCC_GetSysClockFreq+0x12c>)
 80034b6:	6a7a      	ldr	r2, [r7, #36]	@ 0x24
 80034b8:	0092      	lsls	r2, r2, #2
 80034ba:	58d3      	ldr	r3, [r2, r3]
 80034bc:	627b      	str	r3, [r7, #36]	@ 0x24

    if (sysclk_source == RCC_SYSCLKSOURCE_STATUS_MSI)
 80034be:	69bb      	ldr	r3, [r7, #24]
 80034c0:	2b00      	cmp	r3, #0
 80034c2:	d11b      	bne.n	80034fc <HAL_RCC_GetSysClockFreq+0xac>
    {
      /* MSI used as system clock source */
      sysclockfreq = msirange;
 80034c4:	6a7b      	ldr	r3, [r7, #36]	@ 0x24
 80034c6:	623b      	str	r3, [r7, #32]
    if (sysclk_source == RCC_SYSCLKSOURCE_STATUS_MSI)
 80034c8:	e018      	b.n	80034fc <HAL_RCC_GetSysClockFreq+0xac>
    }
  }
  else if (sysclk_source == RCC_SYSCLKSOURCE_STATUS_HSI)
 80034ca:	69bb      	ldr	r3, [r7, #24]
 80034cc:	2b08      	cmp	r3, #8
 80034ce:	d102      	bne.n	80034d6 <HAL_RCC_GetSysClockFreq+0x86>
  {
    /* HSI used as system clock source */
    sysclockfreq = HSI_VALUE;
 80034d0:	4b2b      	ldr	r3, [pc, #172]	@ (8003580 <HAL_RCC_GetSysClockFreq+0x130>)
 80034d2:	623b      	str	r3, [r7, #32]
 80034d4:	e012      	b.n	80034fc <HAL_RCC_GetSysClockFreq+0xac>
  }
  else if (sysclk_source == RCC_SYSCLKSOURCE_STATUS_HSE)
 80034d6:	69bb      	ldr	r3, [r7, #24]
 80034d8:	2b10      	cmp	r3, #16
 80034da:	d102      	bne.n	80034e2 <HAL_RCC_GetSysClockFreq+0x92>
  {
    /* HSE used as system clock source */
    sysclockfreq = HSE_VALUE;
 80034dc:	4b29      	ldr	r3, [pc, #164]	@ (8003584 <HAL_RCC_GetSysClockFreq+0x134>)
 80034de:	623b      	str	r3, [r7, #32]
 80034e0:	e00c      	b.n	80034fc <HAL_RCC_GetSysClockFreq+0xac>
  }
  else if (sysclk_source == RCC_SYSCLKSOURCE_STATUS_LSI)
 80034e2:	69bb      	ldr	r3, [r7, #24]
 80034e4:	2b20      	cmp	r3, #32
 80034e6:	d103      	bne.n	80034f0 <HAL_RCC_GetSysClockFreq+0xa0>
  {
    /* LSI used as system clock source */
    sysclockfreq = LSI_VALUE;
 80034e8:	23fa      	movs	r3, #250	@ 0xfa
 80034ea:	01db      	lsls	r3, r3, #7
 80034ec:	623b      	str	r3, [r7, #32]
 80034ee:	e005      	b.n	80034fc <HAL_RCC_GetSysClockFreq+0xac>
  }
  else if (sysclk_source == RCC_SYSCLKSOURCE_STATUS_LSE)
 80034f0:	69bb      	ldr	r3, [r7, #24]
 80034f2:	2b28      	cmp	r3, #40	@ 0x28
 80034f4:	d102      	bne.n	80034fc <HAL_RCC_GetSysClockFreq+0xac>
  {
    /* LSE used as system clock source */
    sysclockfreq = LSE_VALUE;
 80034f6:	2380      	movs	r3, #128	@ 0x80
 80034f8:	021b      	lsls	r3, r3, #8
 80034fa:	623b      	str	r3, [r7, #32]
  else
  {
    /* unexpected case: sysclockfreq at 0 */
  }

  if (sysclk_source == RCC_SYSCLKSOURCE_STATUS_PLLCLK)
 80034fc:	69bb      	ldr	r3, [r7, #24]
 80034fe:	2b18      	cmp	r3, #24
 8003500:	d135      	bne.n	800356e <HAL_RCC_GetSysClockFreq+0x11e>
    /* PLL used as system clock  source */
    /* The allowed input (pllinput/M) frequency range is from 2.66 to 16 MHZ */
    /* PLL_VCO = (HSE_VALUE or HSI_VALUE or MSI_VALUE) * PLLN / PLLM
    SYSCLK = PLL_VCO / PLLR
    */
    pllsource = READ_BIT(RCC->PLLCFGR, RCC_PLLCFGR_PLLSRC);
 8003502:	4b1d      	ldr	r3, [pc, #116]	@ (8003578 <HAL_RCC_GetSysClockFreq+0x128>)
 8003504:	68db      	ldr	r3, [r3, #12]
 8003506:	2203      	movs	r2, #3
 8003508:	4013      	ands	r3, r2
 800350a:	613b      	str	r3, [r7, #16]
    pllm = ((RCC->PLLCFGR & RCC_PLLCFGR_PLLM) >> RCC_PLLCFGR_PLLM_Pos) + 1U ;
 800350c:	4b1a      	ldr	r3, [pc, #104]	@ (8003578 <HAL_RCC_GetSysClockFreq+0x128>)
 800350e:	68db      	ldr	r3, [r3, #12]
 8003510:	091b      	lsrs	r3, r3, #4
 8003512:	2207      	movs	r2, #7
 8003514:	4013      	ands	r3, r2
 8003516:	3301      	adds	r3, #1
 8003518:	60fb      	str	r3, [r7, #12]

    switch (pllsource)
 800351a:	693b      	ldr	r3, [r7, #16]
 800351c:	2b02      	cmp	r3, #2
 800351e:	d003      	beq.n	8003528 <HAL_RCC_GetSysClockFreq+0xd8>
 8003520:	693b      	ldr	r3, [r7, #16]
 8003522:	2b03      	cmp	r3, #3
 8003524:	d003      	beq.n	800352e <HAL_RCC_GetSysClockFreq+0xde>
 8003526:	e005      	b.n	8003534 <HAL_RCC_GetSysClockFreq+0xe4>
    {
      case RCC_PLLSOURCE_HSI:  /* HSI used as PLL clock source */
        pllsourcefreq = HSI_VALUE;
 8003528:	4b15      	ldr	r3, [pc, #84]	@ (8003580 <HAL_RCC_GetSysClockFreq+0x130>)
 800352a:	61fb      	str	r3, [r7, #28]
        break;
 800352c:	e005      	b.n	800353a <HAL_RCC_GetSysClockFreq+0xea>

      case RCC_PLLSOURCE_HSE:  /* HSE used as PLL clock source */
        pllsourcefreq = HSE_VALUE;
 800352e:	4b15      	ldr	r3, [pc, #84]	@ (8003584 <HAL_RCC_GetSysClockFreq+0x134>)
 8003530:	61fb      	str	r3, [r7, #28]
        break;
 8003532:	e002      	b.n	800353a <HAL_RCC_GetSysClockFreq+0xea>

      case RCC_PLLSOURCE_MSI:  /* MSI used as PLL clock source */
      default:
        pllsourcefreq = msirange;
 8003534:	6a7b      	ldr	r3, [r7, #36]	@ 0x24
 8003536:	61fb      	str	r3, [r7, #28]
        break;
 8003538:	46c0      	nop			@ (mov r8, r8)
    }
    pllvco = (pllsourcefreq * ((RCC->PLLCFGR & RCC_PLLCFGR_PLLN) >> RCC_PLLCFGR_PLLN_Pos)) / pllm ;
 800353a:	4b0f      	ldr	r3, [pc, #60]	@ (8003578 <HAL_RCC_GetSysClockFreq+0x128>)
 800353c:	68db      	ldr	r3, [r3, #12]
 800353e:	0a1b      	lsrs	r3, r3, #8
 8003540:	227f      	movs	r2, #127	@ 0x7f
 8003542:	4013      	ands	r3, r2
 8003544:	69fa      	ldr	r2, [r7, #28]
 8003546:	4353      	muls	r3, r2
 8003548:	68f9      	ldr	r1, [r7, #12]
 800354a:	0018      	movs	r0, r3
 800354c:	f7fc fdee 	bl	800012c <__udivsi3>
 8003550:	0003      	movs	r3, r0
 8003552:	60bb      	str	r3, [r7, #8]
    pllr = ((READ_BIT(RCC->PLLCFGR, RCC_PLLCFGR_PLLR) >> RCC_PLLCFGR_PLLR_Pos) + 1U);
 8003554:	4b08      	ldr	r3, [pc, #32]	@ (8003578 <HAL_RCC_GetSysClockFreq+0x128>)
 8003556:	68db      	ldr	r3, [r3, #12]
 8003558:	0f5b      	lsrs	r3, r3, #29
 800355a:	2207      	movs	r2, #7
 800355c:	4013      	ands	r3, r2
 800355e:	3301      	adds	r3, #1
 8003560:	607b      	str	r3, [r7, #4]
    sysclockfreq = pllvco / pllr;
 8003562:	6879      	ldr	r1, [r7, #4]
 8003564:	68b8      	ldr	r0, [r7, #8]
 8003566:	f7fc fde1 	bl	800012c <__udivsi3>
 800356a:	0003      	movs	r3, r0
 800356c:	623b      	str	r3, [r7, #32]
  }

  return sysclockfreq;
 800356e:	6a3b      	ldr	r3, [r7, #32]
}
 8003570:	0018      	movs	r0, r3
 8003572:	46bd      	mov	sp, r7
 8003574:	b00a      	add	sp, #40	@ 0x28
 8003576:	bd80      	pop	{r7, pc}
 8003578:	40021000 	.word	0x40021000
 800357c:	08005ec8 	.word	0x08005ec8
 8003580:	00f42400 	.word	0x00f42400
 8003584:	003d0900 	.word	0x003d0900

08003588 <HAL_RCC_GetHCLKFreq>:
  *
  * @note   The SystemCoreClock CMSIS variable is used to store System Clock Frequency.
  * @retval HCLK frequency in Hz
  */
uint32_t HAL_RCC_GetHCLKFreq(void)
{
 8003588:	b580      	push	{r7, lr}
 800358a:	af00      	add	r7, sp, #0
  return SystemCoreClock;
 800358c:	4b02      	ldr	r3, [pc, #8]	@ (8003598 <HAL_RCC_GetHCLKFreq+0x10>)
 800358e:	681b      	ldr	r3, [r3, #0]
}
 8003590:	0018      	movs	r0, r3
 8003592:	46bd      	mov	sp, r7
 8003594:	bd80      	pop	{r7, pc}
 8003596:	46c0      	nop			@ (mov r8, r8)
 8003598:	20000014 	.word	0x20000014

0800359c <HAL_RCC_GetPCLK1Freq>:
  * @note   Each time PCLK changes, this function must be called to update the
  *         right PCLK1 value. Otherwise, any configuration based on this function will be incorrect.
  * @retval PCLK1 frequency in Hz
  */
uint32_t HAL_RCC_GetPCLK1Freq(void)
{
 800359c:	b580      	push	{r7, lr}
 800359e:	af00      	add	r7, sp, #0
  /* Get HCLK source and Compute PCLK1 frequency ---------------------------*/
  return (HAL_RCC_GetHCLKFreq() >> (APBPrescTable[READ_BIT(RCC->CFGR, RCC_CFGR_PPRE) >> RCC_CFGR_PPRE_Pos] & 0x1FU));
 80035a0:	f7ff fff2 	bl	8003588 <HAL_RCC_GetHCLKFreq>
 80035a4:	0001      	movs	r1, r0
 80035a6:	4b07      	ldr	r3, [pc, #28]	@ (80035c4 <HAL_RCC_GetPCLK1Freq+0x28>)
 80035a8:	689b      	ldr	r3, [r3, #8]
 80035aa:	0b1b      	lsrs	r3, r3, #12
 80035ac:	2207      	movs	r2, #7
 80035ae:	4013      	ands	r3, r2
 80035b0:	4a05      	ldr	r2, [pc, #20]	@ (80035c8 <HAL_RCC_GetPCLK1Freq+0x2c>)
 80035b2:	5cd3      	ldrb	r3, [r2, r3]
 80035b4:	001a      	movs	r2, r3
 80035b6:	231f      	movs	r3, #31
 80035b8:	4013      	ands	r3, r2
 80035ba:	40d9      	lsrs	r1, r3
 80035bc:	000b      	movs	r3, r1
}
 80035be:	0018      	movs	r0, r3
 80035c0:	46bd      	mov	sp, r7
 80035c2:	bd80      	pop	{r7, pc}
 80035c4:	40021000 	.word	0x40021000
 80035c8:	08005ec0 	.word	0x08005ec0

080035cc <HAL_RCC_GetOscConfig>:
  * @param  RCC_OscInitStruct  pointer to an RCC_OscInitTypeDef structure that
  *         will be configured.
  * @retval None
  */
void HAL_RCC_GetOscConfig(RCC_OscInitTypeDef  *RCC_OscInitStruct)
{
 80035cc:	b580      	push	{r7, lr}
 80035ce:	b084      	sub	sp, #16
 80035d0:	af00      	add	r7, sp, #0
 80035d2:	6078      	str	r0, [r7, #4]
  /* Set all possible values for the Oscillator type parameter ---------------*/
  RCC_OscInitStruct->OscillatorType = RCC_OSCILLATORTYPE_HSE | RCC_OSCILLATORTYPE_HSI | RCC_OSCILLATORTYPE_MSI | \
                                      RCC_OSCILLATORTYPE_LSE | RCC_OSCILLATORTYPE_LSI | RCC_OSCILLATORTYPE_HSI48;
#else
  /* Set all possible values for the Oscillator type parameter ---------------*/
  RCC_OscInitStruct->OscillatorType = RCC_OSCILLATORTYPE_HSE | RCC_OSCILLATORTYPE_HSI | RCC_OSCILLATORTYPE_MSI | \
 80035d4:	687b      	ldr	r3, [r7, #4]
 80035d6:	221f      	movs	r2, #31
 80035d8:	601a      	str	r2, [r3, #0]
                                      RCC_OSCILLATORTYPE_LSE | RCC_OSCILLATORTYPE_LSI;
#endif /* RCC_CRRCR_HSI48ON */
  /* Get the HSE configuration -----------------------------------------------*/
  if ((RCC->CR & RCC_CR_HSEBYP) == RCC_CR_HSEBYP)
 80035da:	4b6e      	ldr	r3, [pc, #440]	@ (8003794 <HAL_RCC_GetOscConfig+0x1c8>)
 80035dc:	681a      	ldr	r2, [r3, #0]
 80035de:	2380      	movs	r3, #128	@ 0x80
 80035e0:	02db      	lsls	r3, r3, #11
 80035e2:	401a      	ands	r2, r3
 80035e4:	2380      	movs	r3, #128	@ 0x80
 80035e6:	02db      	lsls	r3, r3, #11
 80035e8:	429a      	cmp	r2, r3
 80035ea:	d104      	bne.n	80035f6 <HAL_RCC_GetOscConfig+0x2a>
  {
    RCC_OscInitStruct->HSEState = RCC_HSE_BYPASS;
 80035ec:	687b      	ldr	r3, [r7, #4]
 80035ee:	22a0      	movs	r2, #160	@ 0xa0
 80035f0:	02d2      	lsls	r2, r2, #11
 80035f2:	605a      	str	r2, [r3, #4]
 80035f4:	e010      	b.n	8003618 <HAL_RCC_GetOscConfig+0x4c>
  }
  else if ((RCC->CR & RCC_CR_HSEON) == RCC_CR_HSEON)
 80035f6:	4b67      	ldr	r3, [pc, #412]	@ (8003794 <HAL_RCC_GetOscConfig+0x1c8>)
 80035f8:	681a      	ldr	r2, [r3, #0]
 80035fa:	2380      	movs	r3, #128	@ 0x80
 80035fc:	025b      	lsls	r3, r3, #9
 80035fe:	401a      	ands	r2, r3
 8003600:	2380      	movs	r3, #128	@ 0x80
 8003602:	025b      	lsls	r3, r3, #9
 8003604:	429a      	cmp	r2, r3
 8003606:	d104      	bne.n	8003612 <HAL_RCC_GetOscConfig+0x46>
  {
    RCC_OscInitStruct->HSEState = RCC_HSE_ON;
 8003608:	687b      	ldr	r3, [r7, #4]
 800360a:	2280      	movs	r2, #128	@ 0x80
 800360c:	0252      	lsls	r2, r2, #9
 800360e:	605a      	str	r2, [r3, #4]
 8003610:	e002      	b.n	8003618 <HAL_RCC_GetOscConfig+0x4c>
  }
  else
  {
    RCC_OscInitStruct->HSEState = RCC_HSE_OFF;
 8003612:	687b      	ldr	r3, [r7, #4]
 8003614:	2200      	movs	r2, #0
 8003616:	605a      	str	r2, [r3, #4]
  }

  /* Get the HSI configuration -----------------------------------------------*/
  if ((RCC->CR & RCC_CR_HSION) == RCC_CR_HSION)
 8003618:	4b5e      	ldr	r3, [pc, #376]	@ (8003794 <HAL_RCC_GetOscConfig+0x1c8>)
 800361a:	681a      	ldr	r2, [r3, #0]
 800361c:	2380      	movs	r3, #128	@ 0x80
 800361e:	005b      	lsls	r3, r3, #1
 8003620:	401a      	ands	r2, r3
 8003622:	2380      	movs	r3, #128	@ 0x80
 8003624:	005b      	lsls	r3, r3, #1
 8003626:	429a      	cmp	r2, r3
 8003628:	d104      	bne.n	8003634 <HAL_RCC_GetOscConfig+0x68>
  {
    RCC_OscInitStruct->HSIState = RCC_HSI_ON;
 800362a:	687b      	ldr	r3, [r7, #4]
 800362c:	2280      	movs	r2, #128	@ 0x80
 800362e:	0052      	lsls	r2, r2, #1
 8003630:	60da      	str	r2, [r3, #12]
 8003632:	e002      	b.n	800363a <HAL_RCC_GetOscConfig+0x6e>
  }
  else
  {
    RCC_OscInitStruct->HSIState = RCC_HSI_OFF;
 8003634:	687b      	ldr	r3, [r7, #4]
 8003636:	2200      	movs	r2, #0
 8003638:	60da      	str	r2, [r3, #12]
  }
  RCC_OscInitStruct->HSICalibrationValue = ((RCC->ICSCR & RCC_ICSCR_HSITRIM) >> RCC_ICSCR_HSITRIM_Pos);
 800363a:	4b56      	ldr	r3, [pc, #344]	@ (8003794 <HAL_RCC_GetOscConfig+0x1c8>)
 800363c:	685b      	ldr	r3, [r3, #4]
 800363e:	0e1b      	lsrs	r3, r3, #24
 8003640:	227f      	movs	r2, #127	@ 0x7f
 8003642:	401a      	ands	r2, r3
 8003644:	687b      	ldr	r3, [r7, #4]
 8003646:	611a      	str	r2, [r3, #16]

  /* Get the MSI configuration -----------------------------------------------*/
  if ((RCC->CR & RCC_CR_MSION) == RCC_CR_MSION)
 8003648:	4b52      	ldr	r3, [pc, #328]	@ (8003794 <HAL_RCC_GetOscConfig+0x1c8>)
 800364a:	681b      	ldr	r3, [r3, #0]
 800364c:	2201      	movs	r2, #1
 800364e:	4013      	ands	r3, r2
 8003650:	2b01      	cmp	r3, #1
 8003652:	d103      	bne.n	800365c <HAL_RCC_GetOscConfig+0x90>
  {
    RCC_OscInitStruct->MSIState = RCC_MSI_ON;
 8003654:	687b      	ldr	r3, [r7, #4]
 8003656:	2201      	movs	r2, #1
 8003658:	61da      	str	r2, [r3, #28]
 800365a:	e002      	b.n	8003662 <HAL_RCC_GetOscConfig+0x96>
  }
  else
  {
    RCC_OscInitStruct->MSIState = RCC_MSI_OFF;
 800365c:	687b      	ldr	r3, [r7, #4]
 800365e:	2200      	movs	r2, #0
 8003660:	61da      	str	r2, [r3, #28]
  }

  RCC_OscInitStruct->MSICalibrationValue = READ_BIT(RCC->ICSCR, RCC_ICSCR_MSITRIM) >> RCC_ICSCR_MSITRIM_Pos;
 8003662:	4b4c      	ldr	r3, [pc, #304]	@ (8003794 <HAL_RCC_GetOscConfig+0x1c8>)
 8003664:	685b      	ldr	r3, [r3, #4]
 8003666:	0a1b      	lsrs	r3, r3, #8
 8003668:	22ff      	movs	r2, #255	@ 0xff
 800366a:	401a      	ands	r2, r3
 800366c:	687b      	ldr	r3, [r7, #4]
 800366e:	621a      	str	r2, [r3, #32]
  RCC_OscInitStruct->MSIClockRange = READ_BIT(RCC->CR, RCC_CR_MSIRANGE);
 8003670:	4b48      	ldr	r3, [pc, #288]	@ (8003794 <HAL_RCC_GetOscConfig+0x1c8>)
 8003672:	681b      	ldr	r3, [r3, #0]
 8003674:	22f0      	movs	r2, #240	@ 0xf0
 8003676:	401a      	ands	r2, r3
 8003678:	687b      	ldr	r3, [r7, #4]
 800367a:	625a      	str	r2, [r3, #36]	@ 0x24

  /* Get the LSE configuration -----------------------------------------------*/
  /* Get BDCR register */
  regval = RCC->BDCR;
 800367c:	4a45      	ldr	r2, [pc, #276]	@ (8003794 <HAL_RCC_GetOscConfig+0x1c8>)
 800367e:	2390      	movs	r3, #144	@ 0x90
 8003680:	58d3      	ldr	r3, [r2, r3]
 8003682:	60fb      	str	r3, [r7, #12]
  if (READ_BIT(RCC->BDCR, RCC_BDCR_LSEBYP) == RCC_BDCR_LSEBYP)
 8003684:	4a43      	ldr	r2, [pc, #268]	@ (8003794 <HAL_RCC_GetOscConfig+0x1c8>)
 8003686:	2390      	movs	r3, #144	@ 0x90
 8003688:	58d3      	ldr	r3, [r2, r3]
 800368a:	2204      	movs	r2, #4
 800368c:	4013      	ands	r3, r2
 800368e:	2b04      	cmp	r3, #4
 8003690:	d10f      	bne.n	80036b2 <HAL_RCC_GetOscConfig+0xe6>
  {
    if (((regval & RCC_BDCR_LSEON) == RCC_BDCR_LSEON)
 8003692:	68fb      	ldr	r3, [r7, #12]
 8003694:	2201      	movs	r2, #1
 8003696:	4013      	ands	r3, r2
 8003698:	d007      	beq.n	80036aa <HAL_RCC_GetOscConfig+0xde>
        && ((regval & RCC_BDCR_LSESYSEN) == RCC_BDCR_LSESYSEN))
 800369a:	68fb      	ldr	r3, [r7, #12]
 800369c:	2280      	movs	r2, #128	@ 0x80
 800369e:	4013      	ands	r3, r2
 80036a0:	d003      	beq.n	80036aa <HAL_RCC_GetOscConfig+0xde>
    {
      RCC_OscInitStruct->LSEState = RCC_LSE_BYPASS;
 80036a2:	687b      	ldr	r3, [r7, #4]
 80036a4:	2285      	movs	r2, #133	@ 0x85
 80036a6:	609a      	str	r2, [r3, #8]
 80036a8:	e01c      	b.n	80036e4 <HAL_RCC_GetOscConfig+0x118>
    }
    else
    {
      RCC_OscInitStruct->LSEState = RCC_LSE_BYPASS_RTC_ONLY;
 80036aa:	687b      	ldr	r3, [r7, #4]
 80036ac:	2205      	movs	r2, #5
 80036ae:	609a      	str	r2, [r3, #8]
 80036b0:	e018      	b.n	80036e4 <HAL_RCC_GetOscConfig+0x118>
    }
  }
  else if (READ_BIT(RCC->BDCR, RCC_BDCR_LSEON) == RCC_BDCR_LSEON)
 80036b2:	4a38      	ldr	r2, [pc, #224]	@ (8003794 <HAL_RCC_GetOscConfig+0x1c8>)
 80036b4:	2390      	movs	r3, #144	@ 0x90
 80036b6:	58d3      	ldr	r3, [r2, r3]
 80036b8:	2201      	movs	r2, #1
 80036ba:	4013      	ands	r3, r2
 80036bc:	2b01      	cmp	r3, #1
 80036be:	d10e      	bne.n	80036de <HAL_RCC_GetOscConfig+0x112>
  {
    if (READ_BIT(RCC->BDCR, RCC_BDCR_LSESYSEN) == RCC_BDCR_LSESYSEN)
 80036c0:	4a34      	ldr	r2, [pc, #208]	@ (8003794 <HAL_RCC_GetOscConfig+0x1c8>)
 80036c2:	2390      	movs	r3, #144	@ 0x90
 80036c4:	58d3      	ldr	r3, [r2, r3]
 80036c6:	2280      	movs	r2, #128	@ 0x80
 80036c8:	4013      	ands	r3, r2
 80036ca:	2b80      	cmp	r3, #128	@ 0x80
 80036cc:	d103      	bne.n	80036d6 <HAL_RCC_GetOscConfig+0x10a>
    {
      RCC_OscInitStruct->LSEState = RCC_LSE_ON;
 80036ce:	687b      	ldr	r3, [r7, #4]
 80036d0:	2281      	movs	r2, #129	@ 0x81
 80036d2:	609a      	str	r2, [r3, #8]
 80036d4:	e006      	b.n	80036e4 <HAL_RCC_GetOscConfig+0x118>
    }
    else
    {
      RCC_OscInitStruct->LSEState = RCC_LSE_ON_RTC_ONLY;
 80036d6:	687b      	ldr	r3, [r7, #4]
 80036d8:	2201      	movs	r2, #1
 80036da:	609a      	str	r2, [r3, #8]
 80036dc:	e002      	b.n	80036e4 <HAL_RCC_GetOscConfig+0x118>
    }
  }
  else
  {
    RCC_OscInitStruct->LSEState = RCC_LSE_OFF;
 80036de:	687b      	ldr	r3, [r7, #4]
 80036e0:	2200      	movs	r2, #0
 80036e2:	609a      	str	r2, [r3, #8]
  }

  /* Get the LSI configuration -----------------------------------------------*/
  if (READ_BIT(RCC->CSR, RCC_CSR_LSION) == RCC_CSR_LSION)
 80036e4:	4a2b      	ldr	r2, [pc, #172]	@ (8003794 <HAL_RCC_GetOscConfig+0x1c8>)
 80036e6:	2394      	movs	r3, #148	@ 0x94
 80036e8:	58d3      	ldr	r3, [r2, r3]
 80036ea:	2201      	movs	r2, #1
 80036ec:	4013      	ands	r3, r2
 80036ee:	2b01      	cmp	r3, #1
 80036f0:	d103      	bne.n	80036fa <HAL_RCC_GetOscConfig+0x12e>
  {
    RCC_OscInitStruct->LSIState = RCC_LSI_ON;
 80036f2:	687b      	ldr	r3, [r7, #4]
 80036f4:	2201      	movs	r2, #1
 80036f6:	615a      	str	r2, [r3, #20]
 80036f8:	e002      	b.n	8003700 <HAL_RCC_GetOscConfig+0x134>
  }
  else
  {
    RCC_OscInitStruct->LSIState = RCC_LSI_OFF;
 80036fa:	687b      	ldr	r3, [r7, #4]
 80036fc:	2200      	movs	r2, #0
 80036fe:	615a      	str	r2, [r3, #20]
  }

  if ((RCC->CSR & RCC_CSR_LSIPREDIV) == RCC_CSR_LSIPREDIV)
 8003700:	4a24      	ldr	r2, [pc, #144]	@ (8003794 <HAL_RCC_GetOscConfig+0x1c8>)
 8003702:	2394      	movs	r3, #148	@ 0x94
 8003704:	58d3      	ldr	r3, [r2, r3]
 8003706:	2204      	movs	r2, #4
 8003708:	4013      	ands	r3, r2
 800370a:	2b04      	cmp	r3, #4
 800370c:	d103      	bne.n	8003716 <HAL_RCC_GetOscConfig+0x14a>
  {
    RCC_OscInitStruct->LSIDiv = RCC_LSI_DIV128;
 800370e:	687b      	ldr	r3, [r7, #4]
 8003710:	2204      	movs	r2, #4
 8003712:	619a      	str	r2, [r3, #24]
 8003714:	e002      	b.n	800371c <HAL_RCC_GetOscConfig+0x150>
  }
  else
  {
    RCC_OscInitStruct->LSIDiv = RCC_LSI_DIV1;
 8003716:	687b      	ldr	r3, [r7, #4]
 8003718:	2200      	movs	r2, #0
 800371a:	619a      	str	r2, [r3, #24]
  {
    RCC_OscInitStruct->HSI48State = RCC_HSI48_OFF;
  }
#endif /* RCC_CRRCR_HSI48ON */
  /* Get the PLL configuration -----------------------------------------------*/
  if (READ_BIT(RCC->CR, RCC_CR_PLLON) == RCC_CR_PLLON)
 800371c:	4b1d      	ldr	r3, [pc, #116]	@ (8003794 <HAL_RCC_GetOscConfig+0x1c8>)
 800371e:	681a      	ldr	r2, [r3, #0]
 8003720:	2380      	movs	r3, #128	@ 0x80
 8003722:	045b      	lsls	r3, r3, #17
 8003724:	401a      	ands	r2, r3
 8003726:	2380      	movs	r3, #128	@ 0x80
 8003728:	045b      	lsls	r3, r3, #17
 800372a:	429a      	cmp	r2, r3
 800372c:	d103      	bne.n	8003736 <HAL_RCC_GetOscConfig+0x16a>
  {
    RCC_OscInitStruct->PLL.PLLState = RCC_PLL_ON;
 800372e:	687b      	ldr	r3, [r7, #4]
 8003730:	2202      	movs	r2, #2
 8003732:	629a      	str	r2, [r3, #40]	@ 0x28
 8003734:	e002      	b.n	800373c <HAL_RCC_GetOscConfig+0x170>
  }
  else
  {
    RCC_OscInitStruct->PLL.PLLState = RCC_PLL_OFF;
 8003736:	687b      	ldr	r3, [r7, #4]
 8003738:	2201      	movs	r2, #1
 800373a:	629a      	str	r2, [r3, #40]	@ 0x28
  }
  RCC_OscInitStruct->PLL.PLLSource = READ_BIT(RCC->PLLCFGR, RCC_PLLCFGR_PLLSRC);
 800373c:	4b15      	ldr	r3, [pc, #84]	@ (8003794 <HAL_RCC_GetOscConfig+0x1c8>)
 800373e:	68db      	ldr	r3, [r3, #12]
 8003740:	2203      	movs	r2, #3
 8003742:	401a      	ands	r2, r3
 8003744:	687b      	ldr	r3, [r7, #4]
 8003746:	62da      	str	r2, [r3, #44]	@ 0x2c
  RCC_OscInitStruct->PLL.PLLM = (READ_BIT(RCC->PLLCFGR, RCC_PLLCFGR_PLLM));
 8003748:	4b12      	ldr	r3, [pc, #72]	@ (8003794 <HAL_RCC_GetOscConfig+0x1c8>)
 800374a:	68db      	ldr	r3, [r3, #12]
 800374c:	2270      	movs	r2, #112	@ 0x70
 800374e:	401a      	ands	r2, r3
 8003750:	687b      	ldr	r3, [r7, #4]
 8003752:	631a      	str	r2, [r3, #48]	@ 0x30
  RCC_OscInitStruct->PLL.PLLN = READ_BIT(RCC->PLLCFGR, RCC_PLLCFGR_PLLN) >> RCC_PLLCFGR_PLLN_Pos;
 8003754:	4b0f      	ldr	r3, [pc, #60]	@ (8003794 <HAL_RCC_GetOscConfig+0x1c8>)
 8003756:	68db      	ldr	r3, [r3, #12]
 8003758:	0a1b      	lsrs	r3, r3, #8
 800375a:	227f      	movs	r2, #127	@ 0x7f
 800375c:	401a      	ands	r2, r3
 800375e:	687b      	ldr	r3, [r7, #4]
 8003760:	635a      	str	r2, [r3, #52]	@ 0x34
  RCC_OscInitStruct->PLL.PLLQ = ((READ_BIT(RCC->PLLCFGR, RCC_PLLCFGR_PLLQ)));
 8003762:	4b0c      	ldr	r3, [pc, #48]	@ (8003794 <HAL_RCC_GetOscConfig+0x1c8>)
 8003764:	68da      	ldr	r2, [r3, #12]
 8003766:	23e0      	movs	r3, #224	@ 0xe0
 8003768:	051b      	lsls	r3, r3, #20
 800376a:	401a      	ands	r2, r3
 800376c:	687b      	ldr	r3, [r7, #4]
 800376e:	63da      	str	r2, [r3, #60]	@ 0x3c
  RCC_OscInitStruct->PLL.PLLR = ((READ_BIT(RCC->PLLCFGR, RCC_PLLCFGR_PLLR)));
 8003770:	4b08      	ldr	r3, [pc, #32]	@ (8003794 <HAL_RCC_GetOscConfig+0x1c8>)
 8003772:	68db      	ldr	r3, [r3, #12]
 8003774:	0f5b      	lsrs	r3, r3, #29
 8003776:	075a      	lsls	r2, r3, #29
 8003778:	687b      	ldr	r3, [r7, #4]
 800377a:	641a      	str	r2, [r3, #64]	@ 0x40
  RCC_OscInitStruct->PLL.PLLP = ((READ_BIT(RCC->PLLCFGR, RCC_PLLCFGR_PLLP)));
 800377c:	4b05      	ldr	r3, [pc, #20]	@ (8003794 <HAL_RCC_GetOscConfig+0x1c8>)
 800377e:	68da      	ldr	r2, [r3, #12]
 8003780:	23f8      	movs	r3, #248	@ 0xf8
 8003782:	039b      	lsls	r3, r3, #14
 8003784:	401a      	ands	r2, r3
 8003786:	687b      	ldr	r3, [r7, #4]
 8003788:	639a      	str	r2, [r3, #56]	@ 0x38

}
 800378a:	46c0      	nop			@ (mov r8, r8)
 800378c:	46bd      	mov	sp, r7
 800378e:	b004      	add	sp, #16
 8003790:	bd80      	pop	{r7, pc}
 8003792:	46c0      	nop			@ (mov r8, r8)
 8003794:	40021000 	.word	0x40021000

08003798 <HAL_RCC_GetClockConfig>:
  *         will be configured.
  * @param  pFLatency  Pointer on the Flash Latency.
  * @retval None
  */
void HAL_RCC_GetClockConfig(RCC_ClkInitTypeDef  *RCC_ClkInitStruct, uint32_t *pFLatency)
{
 8003798:	b580      	push	{r7, lr}
 800379a:	b082      	sub	sp, #8
 800379c:	af00      	add	r7, sp, #0
 800379e:	6078      	str	r0, [r7, #4]
 80037a0:	6039      	str	r1, [r7, #0]
  /* Check the parameters */
  assert_param(RCC_ClkInitStruct != NULL);
  assert_param(pFLatency != NULL);

  /* Set all possible values for the Clock type parameter --------------------*/
  RCC_ClkInitStruct->ClockType = RCC_CLOCKTYPE_SYSCLK | RCC_CLOCKTYPE_HCLK | RCC_CLOCKTYPE_PCLK1;
 80037a2:	687b      	ldr	r3, [r7, #4]
 80037a4:	2207      	movs	r2, #7
 80037a6:	601a      	str	r2, [r3, #0]

  /* Get the SYSCLK configuration --------------------------------------------*/
  RCC_ClkInitStruct->SYSCLKSource = (uint32_t)(RCC->CFGR & RCC_CFGR_SW);
 80037a8:	4b0e      	ldr	r3, [pc, #56]	@ (80037e4 <HAL_RCC_GetClockConfig+0x4c>)
 80037aa:	689b      	ldr	r3, [r3, #8]
 80037ac:	2207      	movs	r2, #7
 80037ae:	401a      	ands	r2, r3
 80037b0:	687b      	ldr	r3, [r7, #4]
 80037b2:	605a      	str	r2, [r3, #4]

  /* Get the HCLK configuration ----------------------------------------------*/
  RCC_ClkInitStruct->AHBCLKDivider = (uint32_t)(RCC->CFGR & RCC_CFGR_HPRE);
 80037b4:	4b0b      	ldr	r3, [pc, #44]	@ (80037e4 <HAL_RCC_GetClockConfig+0x4c>)
 80037b6:	689a      	ldr	r2, [r3, #8]
 80037b8:	23f0      	movs	r3, #240	@ 0xf0
 80037ba:	011b      	lsls	r3, r3, #4
 80037bc:	401a      	ands	r2, r3
 80037be:	687b      	ldr	r3, [r7, #4]
 80037c0:	609a      	str	r2, [r3, #8]

  /* Get the APB1 configuration ----------------------------------------------*/
  RCC_ClkInitStruct->APB1CLKDivider = (uint32_t)(RCC->CFGR & RCC_CFGR_PPRE);
 80037c2:	4b08      	ldr	r3, [pc, #32]	@ (80037e4 <HAL_RCC_GetClockConfig+0x4c>)
 80037c4:	689a      	ldr	r2, [r3, #8]
 80037c6:	23e0      	movs	r3, #224	@ 0xe0
 80037c8:	01db      	lsls	r3, r3, #7
 80037ca:	401a      	ands	r2, r3
 80037cc:	687b      	ldr	r3, [r7, #4]
 80037ce:	60da      	str	r2, [r3, #12]

  /* Get the Flash Wait State (Latency) configuration ------------------------*/
  *pFLatency = (uint32_t)(FLASH->ACR & FLASH_ACR_LATENCY);
 80037d0:	4b05      	ldr	r3, [pc, #20]	@ (80037e8 <HAL_RCC_GetClockConfig+0x50>)
 80037d2:	681b      	ldr	r3, [r3, #0]
 80037d4:	2207      	movs	r2, #7
 80037d6:	401a      	ands	r2, r3
 80037d8:	683b      	ldr	r3, [r7, #0]
 80037da:	601a      	str	r2, [r3, #0]
}
 80037dc:	46c0      	nop			@ (mov r8, r8)
 80037de:	46bd      	mov	sp, r7
 80037e0:	b002      	add	sp, #8
 80037e2:	bd80      	pop	{r7, pc}
 80037e4:	40021000 	.word	0x40021000
 80037e8:	40022000 	.word	0x40022000

080037ec <RCC_SetFlashLatencyFromMSIRange>:
            voltage range.
  * @param  msirange  MSI range value from RCC_MSISRANGE_0 to RCC_MSISRANGE_15
  * @retval HAL status
  */
static HAL_StatusTypeDef RCC_SetFlashLatencyFromMSIRange(uint32_t msirange)
{
 80037ec:	b580      	push	{r7, lr}
 80037ee:	b086      	sub	sp, #24
 80037f0:	af00      	add	r7, sp, #0
 80037f2:	6078      	str	r0, [r7, #4]
  uint32_t vos;
  uint32_t latency = FLASH_LATENCY_0;  /* default value 0WS */
 80037f4:	2300      	movs	r3, #0
 80037f6:	613b      	str	r3, [r7, #16]

  if (__HAL_RCC_PWR_IS_CLK_ENABLED())
 80037f8:	4b2f      	ldr	r3, [pc, #188]	@ (80038b8 <RCC_SetFlashLatencyFromMSIRange+0xcc>)
 80037fa:	6d9a      	ldr	r2, [r3, #88]	@ 0x58
 80037fc:	2380      	movs	r3, #128	@ 0x80
 80037fe:	055b      	lsls	r3, r3, #21
 8003800:	4013      	ands	r3, r2
 8003802:	d004      	beq.n	800380e <RCC_SetFlashLatencyFromMSIRange+0x22>
  {
    vos = HAL_PWREx_GetVoltageRange();
 8003804:	f7ff f912 	bl	8002a2c <HAL_PWREx_GetVoltageRange>
 8003808:	0003      	movs	r3, r0
 800380a:	617b      	str	r3, [r7, #20]
 800380c:	e017      	b.n	800383e <RCC_SetFlashLatencyFromMSIRange+0x52>
  }
  else
  {
    __HAL_RCC_PWR_CLK_ENABLE();
 800380e:	4b2a      	ldr	r3, [pc, #168]	@ (80038b8 <RCC_SetFlashLatencyFromMSIRange+0xcc>)
 8003810:	6d9a      	ldr	r2, [r3, #88]	@ 0x58
 8003812:	4b29      	ldr	r3, [pc, #164]	@ (80038b8 <RCC_SetFlashLatencyFromMSIRange+0xcc>)
 8003814:	2180      	movs	r1, #128	@ 0x80
 8003816:	0549      	lsls	r1, r1, #21
 8003818:	430a      	orrs	r2, r1
 800381a:	659a      	str	r2, [r3, #88]	@ 0x58
 800381c:	4b26      	ldr	r3, [pc, #152]	@ (80038b8 <RCC_SetFlashLatencyFromMSIRange+0xcc>)
 800381e:	6d9a      	ldr	r2, [r3, #88]	@ 0x58
 8003820:	2380      	movs	r3, #128	@ 0x80
 8003822:	055b      	lsls	r3, r3, #21
 8003824:	4013      	ands	r3, r2
 8003826:	60fb      	str	r3, [r7, #12]
 8003828:	68fb      	ldr	r3, [r7, #12]
    vos = HAL_PWREx_GetVoltageRange();
 800382a:	f7ff f8ff 	bl	8002a2c <HAL_PWREx_GetVoltageRange>
 800382e:	0003      	movs	r3, r0
 8003830:	617b      	str	r3, [r7, #20]
    __HAL_RCC_PWR_CLK_DISABLE();
 8003832:	4b21      	ldr	r3, [pc, #132]	@ (80038b8 <RCC_SetFlashLatencyFromMSIRange+0xcc>)
 8003834:	6d9a      	ldr	r2, [r3, #88]	@ 0x58
 8003836:	4b20      	ldr	r3, [pc, #128]	@ (80038b8 <RCC_SetFlashLatencyFromMSIRange+0xcc>)
 8003838:	4920      	ldr	r1, [pc, #128]	@ (80038bc <RCC_SetFlashLatencyFromMSIRange+0xd0>)
 800383a:	400a      	ands	r2, r1
 800383c:	659a      	str	r2, [r3, #88]	@ 0x58
  }

  if (vos == PWR_REGULATOR_VOLTAGE_SCALE1)
 800383e:	697a      	ldr	r2, [r7, #20]
 8003840:	2380      	movs	r3, #128	@ 0x80
 8003842:	009b      	lsls	r3, r3, #2
 8003844:	429a      	cmp	r2, r3
 8003846:	d111      	bne.n	800386c <RCC_SetFlashLatencyFromMSIRange+0x80>
  {
    if (msirange > RCC_MSIRANGE_8)
 8003848:	687b      	ldr	r3, [r7, #4]
 800384a:	2b80      	cmp	r3, #128	@ 0x80
 800384c:	d91c      	bls.n	8003888 <RCC_SetFlashLatencyFromMSIRange+0x9c>
    {
      /* MSI > 16Mhz */
      if (msirange > RCC_MSIRANGE_11)
 800384e:	687b      	ldr	r3, [r7, #4]
 8003850:	2bb0      	cmp	r3, #176	@ 0xb0
 8003852:	d902      	bls.n	800385a <RCC_SetFlashLatencyFromMSIRange+0x6e>
      {
        /* MSI 48Mhz */
        latency = FLASH_LATENCY_2; /* 2WS */
 8003854:	2302      	movs	r3, #2
 8003856:	613b      	str	r3, [r7, #16]
 8003858:	e016      	b.n	8003888 <RCC_SetFlashLatencyFromMSIRange+0x9c>
      }
      else if (msirange > RCC_MSIRANGE_9)
 800385a:	687b      	ldr	r3, [r7, #4]
 800385c:	2b90      	cmp	r3, #144	@ 0x90
 800385e:	d902      	bls.n	8003866 <RCC_SetFlashLatencyFromMSIRange+0x7a>
      {
        /* MSI 24Mhz or 32Mhz */
        latency = FLASH_LATENCY_1; /* 1WS */
 8003860:	2301      	movs	r3, #1
 8003862:	613b      	str	r3, [r7, #16]
 8003864:	e010      	b.n	8003888 <RCC_SetFlashLatencyFromMSIRange+0x9c>
      }
      else
      {
        /* MSI 16Mhz */
        latency = FLASH_LATENCY_0; /* 0WS */
 8003866:	2300      	movs	r3, #0
 8003868:	613b      	str	r3, [r7, #16]
 800386a:	e00d      	b.n	8003888 <RCC_SetFlashLatencyFromMSIRange+0x9c>
    }
    /* else MSI <= 16Mhz default FLASH_LATENCY_0 0WS */
  }
  else
  {
    if (msirange >= RCC_MSIRANGE_8)
 800386c:	687b      	ldr	r3, [r7, #4]
 800386e:	2b7f      	cmp	r3, #127	@ 0x7f
 8003870:	d902      	bls.n	8003878 <RCC_SetFlashLatencyFromMSIRange+0x8c>
    {
      /* MSI > 16Mhz */
      latency = FLASH_LATENCY_2; /* 3WS */
 8003872:	2302      	movs	r3, #2
 8003874:	613b      	str	r3, [r7, #16]
 8003876:	e007      	b.n	8003888 <RCC_SetFlashLatencyFromMSIRange+0x9c>
    }
    else if (msirange == RCC_MSIRANGE_7)
 8003878:	687b      	ldr	r3, [r7, #4]
 800387a:	2b70      	cmp	r3, #112	@ 0x70
 800387c:	d102      	bne.n	8003884 <RCC_SetFlashLatencyFromMSIRange+0x98>
    {
      /* MSI 8Mhz */
      latency = FLASH_LATENCY_1; /* 1WS */
 800387e:	2301      	movs	r3, #1
 8003880:	613b      	str	r3, [r7, #16]
 8003882:	e001      	b.n	8003888 <RCC_SetFlashLatencyFromMSIRange+0x9c>
    }
    else
    {
      /* MSI 16Mhz */
      latency = FLASH_LATENCY_0; /* 0WS */
 8003884:	2300      	movs	r3, #0
 8003886:	613b      	str	r3, [r7, #16]
    }
    /* else MSI < 8Mhz default FLASH_LATENCY_0 0WS */
  }

  __HAL_FLASH_SET_LATENCY(latency);
 8003888:	4b0d      	ldr	r3, [pc, #52]	@ (80038c0 <RCC_SetFlashLatencyFromMSIRange+0xd4>)
 800388a:	681b      	ldr	r3, [r3, #0]
 800388c:	2207      	movs	r2, #7
 800388e:	4393      	bics	r3, r2
 8003890:	0019      	movs	r1, r3
 8003892:	4b0b      	ldr	r3, [pc, #44]	@ (80038c0 <RCC_SetFlashLatencyFromMSIRange+0xd4>)
 8003894:	693a      	ldr	r2, [r7, #16]
 8003896:	430a      	orrs	r2, r1
 8003898:	601a      	str	r2, [r3, #0]

  /* Check that the new number of wait states is taken into account to access the Flash
     memory by reading the FLASH_ACR register */
  if ((FLASH->ACR & FLASH_ACR_LATENCY) != latency)
 800389a:	4b09      	ldr	r3, [pc, #36]	@ (80038c0 <RCC_SetFlashLatencyFromMSIRange+0xd4>)
 800389c:	681b      	ldr	r3, [r3, #0]
 800389e:	2207      	movs	r2, #7
 80038a0:	4013      	ands	r3, r2
 80038a2:	693a      	ldr	r2, [r7, #16]
 80038a4:	429a      	cmp	r2, r3
 80038a6:	d001      	beq.n	80038ac <RCC_SetFlashLatencyFromMSIRange+0xc0>
  {
    return HAL_ERROR;
 80038a8:	2301      	movs	r3, #1
 80038aa:	e000      	b.n	80038ae <RCC_SetFlashLatencyFromMSIRange+0xc2>
  }

  return HAL_OK;
 80038ac:	2300      	movs	r3, #0
}
 80038ae:	0018      	movs	r0, r3
 80038b0:	46bd      	mov	sp, r7
 80038b2:	b006      	add	sp, #24
 80038b4:	bd80      	pop	{r7, pc}
 80038b6:	46c0      	nop			@ (mov r8, r8)
 80038b8:	40021000 	.word	0x40021000
 80038bc:	efffffff 	.word	0xefffffff
 80038c0:	40022000 	.word	0x40022000

080038c4 <HAL_RCCEx_PeriphCLKConfig>:
  *         the RTC clock source: in this case the access to Backup domain is enabled.
  *
  * @retval HAL status
  */
HAL_StatusTypeDef HAL_RCCEx_PeriphCLKConfig(const RCC_PeriphCLKInitTypeDef  *PeriphClkInit)
{
 80038c4:	b580      	push	{r7, lr}
 80038c6:	b086      	sub	sp, #24
 80038c8:	af00      	add	r7, sp, #0
 80038ca:	6078      	str	r0, [r7, #4]
  uint32_t tmpregister;
  uint32_t tickstart;
  HAL_StatusTypeDef ret = HAL_OK;      /* Intermediate status */
 80038cc:	2313      	movs	r3, #19
 80038ce:	18fb      	adds	r3, r7, r3
 80038d0:	2200      	movs	r2, #0
 80038d2:	701a      	strb	r2, [r3, #0]
  HAL_StatusTypeDef status = HAL_OK;   /* Final status */
 80038d4:	2312      	movs	r3, #18
 80038d6:	18fb      	adds	r3, r7, r3
 80038d8:	2200      	movs	r2, #0
 80038da:	701a      	strb	r2, [r3, #0]

  /* Check the parameters */
  assert_param(IS_RCC_PERIPHCLOCK(PeriphClkInit->PeriphClockSelection));

  /*-------------------------- RTC clock source configuration ----------------------*/
  if ((PeriphClkInit->PeriphClockSelection & RCC_PERIPHCLK_RTC) == RCC_PERIPHCLK_RTC)
 80038dc:	687b      	ldr	r3, [r7, #4]
 80038de:	681a      	ldr	r2, [r3, #0]
 80038e0:	2380      	movs	r3, #128	@ 0x80
 80038e2:	021b      	lsls	r3, r3, #8
 80038e4:	4013      	ands	r3, r2
 80038e6:	d100      	bne.n	80038ea <HAL_RCCEx_PeriphCLKConfig+0x26>
 80038e8:	e0b7      	b.n	8003a5a <HAL_RCCEx_PeriphCLKConfig+0x196>
  {
    FlagStatus       pwrclkchanged = RESET;
 80038ea:	2011      	movs	r0, #17
 80038ec:	183b      	adds	r3, r7, r0
 80038ee:	2200      	movs	r2, #0
 80038f0:	701a      	strb	r2, [r3, #0]

    /* Check for RTC Parameters used to output RTCCLK */
    assert_param(IS_RCC_RTCCLKSOURCE(PeriphClkInit->RTCClockSelection));

    /* Enable Power Clock */
    if (__HAL_RCC_PWR_IS_CLK_DISABLED())
 80038f2:	4b4c      	ldr	r3, [pc, #304]	@ (8003a24 <HAL_RCCEx_PeriphCLKConfig+0x160>)
 80038f4:	6d9a      	ldr	r2, [r3, #88]	@ 0x58
 80038f6:	2380      	movs	r3, #128	@ 0x80
 80038f8:	055b      	lsls	r3, r3, #21
 80038fa:	4013      	ands	r3, r2
 80038fc:	d110      	bne.n	8003920 <HAL_RCCEx_PeriphCLKConfig+0x5c>
    {
      __HAL_RCC_PWR_CLK_ENABLE();
 80038fe:	4b49      	ldr	r3, [pc, #292]	@ (8003a24 <HAL_RCCEx_PeriphCLKConfig+0x160>)
 8003900:	6d9a      	ldr	r2, [r3, #88]	@ 0x58
 8003902:	4b48      	ldr	r3, [pc, #288]	@ (8003a24 <HAL_RCCEx_PeriphCLKConfig+0x160>)
 8003904:	2180      	movs	r1, #128	@ 0x80
 8003906:	0549      	lsls	r1, r1, #21
 8003908:	430a      	orrs	r2, r1
 800390a:	659a      	str	r2, [r3, #88]	@ 0x58
 800390c:	4b45      	ldr	r3, [pc, #276]	@ (8003a24 <HAL_RCCEx_PeriphCLKConfig+0x160>)
 800390e:	6d9a      	ldr	r2, [r3, #88]	@ 0x58
 8003910:	2380      	movs	r3, #128	@ 0x80
 8003912:	055b      	lsls	r3, r3, #21
 8003914:	4013      	ands	r3, r2
 8003916:	60bb      	str	r3, [r7, #8]
 8003918:	68bb      	ldr	r3, [r7, #8]
      pwrclkchanged = SET;
 800391a:	183b      	adds	r3, r7, r0
 800391c:	2201      	movs	r2, #1
 800391e:	701a      	strb	r2, [r3, #0]
    }

    /* Enable write access to Backup domain */
    SET_BIT(PWR->CR1, PWR_CR1_DBP);
 8003920:	4b41      	ldr	r3, [pc, #260]	@ (8003a28 <HAL_RCCEx_PeriphCLKConfig+0x164>)
 8003922:	681a      	ldr	r2, [r3, #0]
 8003924:	4b40      	ldr	r3, [pc, #256]	@ (8003a28 <HAL_RCCEx_PeriphCLKConfig+0x164>)
 8003926:	2180      	movs	r1, #128	@ 0x80
 8003928:	0049      	lsls	r1, r1, #1
 800392a:	430a      	orrs	r2, r1
 800392c:	601a      	str	r2, [r3, #0]

    /* Wait for Backup domain Write protection disable */
    tickstart = HAL_GetTick();
 800392e:	f7fd ff57 	bl	80017e0 <HAL_GetTick>
 8003932:	0003      	movs	r3, r0
 8003934:	60fb      	str	r3, [r7, #12]

    while (READ_BIT(PWR->CR1, PWR_CR1_DBP) == 0U)
 8003936:	e00b      	b.n	8003950 <HAL_RCCEx_PeriphCLKConfig+0x8c>
    {
      if ((HAL_GetTick() - tickstart) > RCC_DBP_TIMEOUT_VALUE)
 8003938:	f7fd ff52 	bl	80017e0 <HAL_GetTick>
 800393c:	0002      	movs	r2, r0
 800393e:	68fb      	ldr	r3, [r7, #12]
 8003940:	1ad3      	subs	r3, r2, r3
 8003942:	2b02      	cmp	r3, #2
 8003944:	d904      	bls.n	8003950 <HAL_RCCEx_PeriphCLKConfig+0x8c>
      {
        ret = HAL_TIMEOUT;
 8003946:	2313      	movs	r3, #19
 8003948:	18fb      	adds	r3, r7, r3
 800394a:	2203      	movs	r2, #3
 800394c:	701a      	strb	r2, [r3, #0]
        break;
 800394e:	e005      	b.n	800395c <HAL_RCCEx_PeriphCLKConfig+0x98>
    while (READ_BIT(PWR->CR1, PWR_CR1_DBP) == 0U)
 8003950:	4b35      	ldr	r3, [pc, #212]	@ (8003a28 <HAL_RCCEx_PeriphCLKConfig+0x164>)
 8003952:	681a      	ldr	r2, [r3, #0]
 8003954:	2380      	movs	r3, #128	@ 0x80
 8003956:	005b      	lsls	r3, r3, #1
 8003958:	4013      	ands	r3, r2
 800395a:	d0ed      	beq.n	8003938 <HAL_RCCEx_PeriphCLKConfig+0x74>
      }
    }

    if (ret == HAL_OK)
 800395c:	2313      	movs	r3, #19
 800395e:	18fb      	adds	r3, r7, r3
 8003960:	781b      	ldrb	r3, [r3, #0]
 8003962:	2b00      	cmp	r3, #0
 8003964:	d168      	bne.n	8003a38 <HAL_RCCEx_PeriphCLKConfig+0x174>
    {
      /* Reset the Backup domain only if the RTC Clock source selection is modified from default */
      tmpregister = READ_BIT(RCC->BDCR, RCC_BDCR_RTCSEL);
 8003966:	4a2f      	ldr	r2, [pc, #188]	@ (8003a24 <HAL_RCCEx_PeriphCLKConfig+0x160>)
 8003968:	2390      	movs	r3, #144	@ 0x90
 800396a:	58d2      	ldr	r2, [r2, r3]
 800396c:	23c0      	movs	r3, #192	@ 0xc0
 800396e:	009b      	lsls	r3, r3, #2
 8003970:	4013      	ands	r3, r2
 8003972:	617b      	str	r3, [r7, #20]

      if ((tmpregister != RCC_RTCCLKSOURCE_NONE) && (tmpregister != PeriphClkInit->RTCClockSelection))
 8003974:	697b      	ldr	r3, [r7, #20]
 8003976:	2b00      	cmp	r3, #0
 8003978:	d01f      	beq.n	80039ba <HAL_RCCEx_PeriphCLKConfig+0xf6>
 800397a:	687b      	ldr	r3, [r7, #4]
 800397c:	6b5b      	ldr	r3, [r3, #52]	@ 0x34
 800397e:	697a      	ldr	r2, [r7, #20]
 8003980:	429a      	cmp	r2, r3
 8003982:	d01a      	beq.n	80039ba <HAL_RCCEx_PeriphCLKConfig+0xf6>
      {
        /* Store the content of BDCR register before the reset of Backup Domain */
        tmpregister = READ_BIT(RCC->BDCR, ~(RCC_BDCR_RTCSEL));
 8003984:	4a27      	ldr	r2, [pc, #156]	@ (8003a24 <HAL_RCCEx_PeriphCLKConfig+0x160>)
 8003986:	2390      	movs	r3, #144	@ 0x90
 8003988:	58d3      	ldr	r3, [r2, r3]
 800398a:	4a28      	ldr	r2, [pc, #160]	@ (8003a2c <HAL_RCCEx_PeriphCLKConfig+0x168>)
 800398c:	4013      	ands	r3, r2
 800398e:	617b      	str	r3, [r7, #20]
        /* RTC Clock selection can be changed only if the Backup Domain is reset */
        __HAL_RCC_BACKUPRESET_FORCE();
 8003990:	4a24      	ldr	r2, [pc, #144]	@ (8003a24 <HAL_RCCEx_PeriphCLKConfig+0x160>)
 8003992:	2390      	movs	r3, #144	@ 0x90
 8003994:	58d3      	ldr	r3, [r2, r3]
 8003996:	4923      	ldr	r1, [pc, #140]	@ (8003a24 <HAL_RCCEx_PeriphCLKConfig+0x160>)
 8003998:	2280      	movs	r2, #128	@ 0x80
 800399a:	0252      	lsls	r2, r2, #9
 800399c:	4313      	orrs	r3, r2
 800399e:	2290      	movs	r2, #144	@ 0x90
 80039a0:	508b      	str	r3, [r1, r2]
        __HAL_RCC_BACKUPRESET_RELEASE();
 80039a2:	4a20      	ldr	r2, [pc, #128]	@ (8003a24 <HAL_RCCEx_PeriphCLKConfig+0x160>)
 80039a4:	2390      	movs	r3, #144	@ 0x90
 80039a6:	58d3      	ldr	r3, [r2, r3]
 80039a8:	491e      	ldr	r1, [pc, #120]	@ (8003a24 <HAL_RCCEx_PeriphCLKConfig+0x160>)
 80039aa:	4a21      	ldr	r2, [pc, #132]	@ (8003a30 <HAL_RCCEx_PeriphCLKConfig+0x16c>)
 80039ac:	4013      	ands	r3, r2
 80039ae:	2290      	movs	r2, #144	@ 0x90
 80039b0:	508b      	str	r3, [r1, r2]
        /* Restore the Content of BDCR register */
        RCC->BDCR = tmpregister;
 80039b2:	491c      	ldr	r1, [pc, #112]	@ (8003a24 <HAL_RCCEx_PeriphCLKConfig+0x160>)
 80039b4:	2290      	movs	r2, #144	@ 0x90
 80039b6:	697b      	ldr	r3, [r7, #20]
 80039b8:	508b      	str	r3, [r1, r2]
      }

      /* Wait for LSE reactivation if LSE was enable prior to Backup Domain reset */
      if (HAL_IS_BIT_SET(tmpregister, RCC_BDCR_LSEON))
 80039ba:	697b      	ldr	r3, [r7, #20]
 80039bc:	2201      	movs	r2, #1
 80039be:	4013      	ands	r3, r2
 80039c0:	d017      	beq.n	80039f2 <HAL_RCCEx_PeriphCLKConfig+0x12e>
      {
        /* Get Start Tick*/
        tickstart = HAL_GetTick();
 80039c2:	f7fd ff0d 	bl	80017e0 <HAL_GetTick>
 80039c6:	0003      	movs	r3, r0
 80039c8:	60fb      	str	r3, [r7, #12]

        /* Wait till LSE is ready */
        while (READ_BIT(RCC->BDCR, RCC_BDCR_LSERDY) == 0U)
 80039ca:	e00c      	b.n	80039e6 <HAL_RCCEx_PeriphCLKConfig+0x122>
        {
          if ((HAL_GetTick() - tickstart) > RCC_LSE_TIMEOUT_VALUE)
 80039cc:	f7fd ff08 	bl	80017e0 <HAL_GetTick>
 80039d0:	0002      	movs	r2, r0
 80039d2:	68fb      	ldr	r3, [r7, #12]
 80039d4:	1ad3      	subs	r3, r2, r3
 80039d6:	4a17      	ldr	r2, [pc, #92]	@ (8003a34 <HAL_RCCEx_PeriphCLKConfig+0x170>)
 80039d8:	4293      	cmp	r3, r2
 80039da:	d904      	bls.n	80039e6 <HAL_RCCEx_PeriphCLKConfig+0x122>
          {
            ret = HAL_TIMEOUT;
 80039dc:	2313      	movs	r3, #19
 80039de:	18fb      	adds	r3, r7, r3
 80039e0:	2203      	movs	r2, #3
 80039e2:	701a      	strb	r2, [r3, #0]
            break;
 80039e4:	e005      	b.n	80039f2 <HAL_RCCEx_PeriphCLKConfig+0x12e>
        while (READ_BIT(RCC->BDCR, RCC_BDCR_LSERDY) == 0U)
 80039e6:	4a0f      	ldr	r2, [pc, #60]	@ (8003a24 <HAL_RCCEx_PeriphCLKConfig+0x160>)
 80039e8:	2390      	movs	r3, #144	@ 0x90
 80039ea:	58d3      	ldr	r3, [r2, r3]
 80039ec:	2202      	movs	r2, #2
 80039ee:	4013      	ands	r3, r2
 80039f0:	d0ec      	beq.n	80039cc <HAL_RCCEx_PeriphCLKConfig+0x108>
          }
        }
      }

      if (ret == HAL_OK)
 80039f2:	2313      	movs	r3, #19
 80039f4:	18fb      	adds	r3, r7, r3
 80039f6:	781b      	ldrb	r3, [r3, #0]
 80039f8:	2b00      	cmp	r3, #0
 80039fa:	d10b      	bne.n	8003a14 <HAL_RCCEx_PeriphCLKConfig+0x150>
      {
        /* Apply new RTC clock source selection */
        __HAL_RCC_RTC_CONFIG(PeriphClkInit->RTCClockSelection);
 80039fc:	4a09      	ldr	r2, [pc, #36]	@ (8003a24 <HAL_RCCEx_PeriphCLKConfig+0x160>)
 80039fe:	2390      	movs	r3, #144	@ 0x90
 8003a00:	58d3      	ldr	r3, [r2, r3]
 8003a02:	4a0a      	ldr	r2, [pc, #40]	@ (8003a2c <HAL_RCCEx_PeriphCLKConfig+0x168>)
 8003a04:	401a      	ands	r2, r3
 8003a06:	687b      	ldr	r3, [r7, #4]
 8003a08:	6b5b      	ldr	r3, [r3, #52]	@ 0x34
 8003a0a:	4906      	ldr	r1, [pc, #24]	@ (8003a24 <HAL_RCCEx_PeriphCLKConfig+0x160>)
 8003a0c:	4313      	orrs	r3, r2
 8003a0e:	2290      	movs	r2, #144	@ 0x90
 8003a10:	508b      	str	r3, [r1, r2]
 8003a12:	e017      	b.n	8003a44 <HAL_RCCEx_PeriphCLKConfig+0x180>
      }
      else
      {
        /* set overall return value */
        status = ret;
 8003a14:	2312      	movs	r3, #18
 8003a16:	18fb      	adds	r3, r7, r3
 8003a18:	2213      	movs	r2, #19
 8003a1a:	18ba      	adds	r2, r7, r2
 8003a1c:	7812      	ldrb	r2, [r2, #0]
 8003a1e:	701a      	strb	r2, [r3, #0]
 8003a20:	e010      	b.n	8003a44 <HAL_RCCEx_PeriphCLKConfig+0x180>
 8003a22:	46c0      	nop			@ (mov r8, r8)
 8003a24:	40021000 	.word	0x40021000
 8003a28:	40007000 	.word	0x40007000
 8003a2c:	fffffcff 	.word	0xfffffcff
 8003a30:	fffeffff 	.word	0xfffeffff
 8003a34:	00001388 	.word	0x00001388
      }
    }
    else
    {
      /* set overall return value */
      status = ret;
 8003a38:	2312      	movs	r3, #18
 8003a3a:	18fb      	adds	r3, r7, r3
 8003a3c:	2213      	movs	r2, #19
 8003a3e:	18ba      	adds	r2, r7, r2
 8003a40:	7812      	ldrb	r2, [r2, #0]
 8003a42:	701a      	strb	r2, [r3, #0]
    }

    /* Restore clock configuration if changed */
    if (pwrclkchanged == SET)
 8003a44:	2311      	movs	r3, #17
 8003a46:	18fb      	adds	r3, r7, r3
 8003a48:	781b      	ldrb	r3, [r3, #0]
 8003a4a:	2b01      	cmp	r3, #1
 8003a4c:	d105      	bne.n	8003a5a <HAL_RCCEx_PeriphCLKConfig+0x196>
    {
      __HAL_RCC_PWR_CLK_DISABLE();
 8003a4e:	4b84      	ldr	r3, [pc, #528]	@ (8003c60 <HAL_RCCEx_PeriphCLKConfig+0x39c>)
 8003a50:	6d9a      	ldr	r2, [r3, #88]	@ 0x58
 8003a52:	4b83      	ldr	r3, [pc, #524]	@ (8003c60 <HAL_RCCEx_PeriphCLKConfig+0x39c>)
 8003a54:	4983      	ldr	r1, [pc, #524]	@ (8003c64 <HAL_RCCEx_PeriphCLKConfig+0x3a0>)
 8003a56:	400a      	ands	r2, r1
 8003a58:	659a      	str	r2, [r3, #88]	@ 0x58
    }
  }

  /*-------------------------- USART1 clock source configuration -------------------*/
  if (((PeriphClkInit->PeriphClockSelection) & RCC_PERIPHCLK_USART1) == RCC_PERIPHCLK_USART1)
 8003a5a:	687b      	ldr	r3, [r7, #4]
 8003a5c:	681b      	ldr	r3, [r3, #0]
 8003a5e:	2201      	movs	r2, #1
 8003a60:	4013      	ands	r3, r2
 8003a62:	d00b      	beq.n	8003a7c <HAL_RCCEx_PeriphCLKConfig+0x1b8>
  {
    /* Check the parameters */
    assert_param(IS_RCC_USART1CLKSOURCE(PeriphClkInit->Usart1ClockSelection));

    /* Configure the USART1 clock source */
    __HAL_RCC_USART1_CONFIG(PeriphClkInit->Usart1ClockSelection);
 8003a64:	4a7e      	ldr	r2, [pc, #504]	@ (8003c60 <HAL_RCCEx_PeriphCLKConfig+0x39c>)
 8003a66:	2388      	movs	r3, #136	@ 0x88
 8003a68:	58d3      	ldr	r3, [r2, r3]
 8003a6a:	2203      	movs	r2, #3
 8003a6c:	4393      	bics	r3, r2
 8003a6e:	001a      	movs	r2, r3
 8003a70:	687b      	ldr	r3, [r7, #4]
 8003a72:	685b      	ldr	r3, [r3, #4]
 8003a74:	497a      	ldr	r1, [pc, #488]	@ (8003c60 <HAL_RCCEx_PeriphCLKConfig+0x39c>)
 8003a76:	4313      	orrs	r3, r2
 8003a78:	2288      	movs	r2, #136	@ 0x88
 8003a7a:	508b      	str	r3, [r1, r2]
  }

  /*-------------------------- USART2 clock source configuration -------------------*/
  if (((PeriphClkInit->PeriphClockSelection) & RCC_PERIPHCLK_USART2) == RCC_PERIPHCLK_USART2)
 8003a7c:	687b      	ldr	r3, [r7, #4]
 8003a7e:	681b      	ldr	r3, [r3, #0]
 8003a80:	2202      	movs	r2, #2
 8003a82:	4013      	ands	r3, r2
 8003a84:	d00b      	beq.n	8003a9e <HAL_RCCEx_PeriphCLKConfig+0x1da>
  {
    /* Check the parameters */
    assert_param(IS_RCC_USART2CLKSOURCE(PeriphClkInit->Usart2ClockSelection));

    /* Configure the USART2 clock source */
    __HAL_RCC_USART2_CONFIG(PeriphClkInit->Usart2ClockSelection);
 8003a86:	4a76      	ldr	r2, [pc, #472]	@ (8003c60 <HAL_RCCEx_PeriphCLKConfig+0x39c>)
 8003a88:	2388      	movs	r3, #136	@ 0x88
 8003a8a:	58d3      	ldr	r3, [r2, r3]
 8003a8c:	220c      	movs	r2, #12
 8003a8e:	4393      	bics	r3, r2
 8003a90:	001a      	movs	r2, r3
 8003a92:	687b      	ldr	r3, [r7, #4]
 8003a94:	689b      	ldr	r3, [r3, #8]
 8003a96:	4972      	ldr	r1, [pc, #456]	@ (8003c60 <HAL_RCCEx_PeriphCLKConfig+0x39c>)
 8003a98:	4313      	orrs	r3, r2
 8003a9a:	2288      	movs	r2, #136	@ 0x88
 8003a9c:	508b      	str	r3, [r1, r2]
  }

  /*-------------------------- LPUART1 clock source configuration ------------------*/
  if (((PeriphClkInit->PeriphClockSelection) & RCC_PERIPHCLK_LPUART1) == RCC_PERIPHCLK_LPUART1)
 8003a9e:	687b      	ldr	r3, [r7, #4]
 8003aa0:	681b      	ldr	r3, [r3, #0]
 8003aa2:	2210      	movs	r2, #16
 8003aa4:	4013      	ands	r3, r2
 8003aa6:	d00a      	beq.n	8003abe <HAL_RCCEx_PeriphCLKConfig+0x1fa>
  {
    /* Check the parameters */
    assert_param(IS_RCC_LPUART1CLKSOURCE(PeriphClkInit->Lpuart1ClockSelection));

    /* Configure the LPUART1 clock source */
    __HAL_RCC_LPUART1_CONFIG(PeriphClkInit->Lpuart1ClockSelection);
 8003aa8:	4a6d      	ldr	r2, [pc, #436]	@ (8003c60 <HAL_RCCEx_PeriphCLKConfig+0x39c>)
 8003aaa:	2388      	movs	r3, #136	@ 0x88
 8003aac:	58d3      	ldr	r3, [r2, r3]
 8003aae:	4a6e      	ldr	r2, [pc, #440]	@ (8003c68 <HAL_RCCEx_PeriphCLKConfig+0x3a4>)
 8003ab0:	401a      	ands	r2, r3
 8003ab2:	687b      	ldr	r3, [r7, #4]
 8003ab4:	691b      	ldr	r3, [r3, #16]
 8003ab6:	496a      	ldr	r1, [pc, #424]	@ (8003c60 <HAL_RCCEx_PeriphCLKConfig+0x39c>)
 8003ab8:	4313      	orrs	r3, r2
 8003aba:	2288      	movs	r2, #136	@ 0x88
 8003abc:	508b      	str	r3, [r1, r2]
  }

  /*-------------------------- LPUART2 clock source configuration ------------------*/
  if (((PeriphClkInit->PeriphClockSelection) & RCC_PERIPHCLK_LPUART2) == RCC_PERIPHCLK_LPUART2)
 8003abe:	687b      	ldr	r3, [r7, #4]
 8003ac0:	681b      	ldr	r3, [r3, #0]
 8003ac2:	2208      	movs	r2, #8
 8003ac4:	4013      	ands	r3, r2
 8003ac6:	d00a      	beq.n	8003ade <HAL_RCCEx_PeriphCLKConfig+0x21a>
  {
    /* Check the parameters */
    assert_param(IS_RCC_LPUART2CLKSOURCE(PeriphClkInit->Lpuart2ClockSelection));

    /* Configure the LPUART2 clock source */
    __HAL_RCC_LPUART2_CONFIG(PeriphClkInit->Lpuart2ClockSelection);
 8003ac8:	4a65      	ldr	r2, [pc, #404]	@ (8003c60 <HAL_RCCEx_PeriphCLKConfig+0x39c>)
 8003aca:	2388      	movs	r3, #136	@ 0x88
 8003acc:	58d3      	ldr	r3, [r2, r3]
 8003ace:	4a67      	ldr	r2, [pc, #412]	@ (8003c6c <HAL_RCCEx_PeriphCLKConfig+0x3a8>)
 8003ad0:	401a      	ands	r2, r3
 8003ad2:	687b      	ldr	r3, [r7, #4]
 8003ad4:	68db      	ldr	r3, [r3, #12]
 8003ad6:	4962      	ldr	r1, [pc, #392]	@ (8003c60 <HAL_RCCEx_PeriphCLKConfig+0x39c>)
 8003ad8:	4313      	orrs	r3, r2
 8003ada:	2288      	movs	r2, #136	@ 0x88
 8003adc:	508b      	str	r3, [r1, r2]
    /* Configure the LPUART3 clock source */
    __HAL_RCC_LPUART3_CONFIG(PeriphClkInit->Lpuart3ClockSelection);
  }
#endif /* LPUART3 */
  /*-------------------------- I2C1 clock source configuration ---------------------*/
  if (((PeriphClkInit->PeriphClockSelection) & RCC_PERIPHCLK_I2C1) == RCC_PERIPHCLK_I2C1)
 8003ade:	687b      	ldr	r3, [r7, #4]
 8003ae0:	681b      	ldr	r3, [r3, #0]
 8003ae2:	2220      	movs	r2, #32
 8003ae4:	4013      	ands	r3, r2
 8003ae6:	d00a      	beq.n	8003afe <HAL_RCCEx_PeriphCLKConfig+0x23a>
  {
    /* Check the parameters */
    assert_param(IS_RCC_I2C1CLKSOURCE(PeriphClkInit->I2c1ClockSelection));

    /* Configure the I2C1 clock source */
    __HAL_RCC_I2C1_CONFIG(PeriphClkInit->I2c1ClockSelection);
 8003ae8:	4a5d      	ldr	r2, [pc, #372]	@ (8003c60 <HAL_RCCEx_PeriphCLKConfig+0x39c>)
 8003aea:	2388      	movs	r3, #136	@ 0x88
 8003aec:	58d3      	ldr	r3, [r2, r3]
 8003aee:	4a60      	ldr	r2, [pc, #384]	@ (8003c70 <HAL_RCCEx_PeriphCLKConfig+0x3ac>)
 8003af0:	401a      	ands	r2, r3
 8003af2:	687b      	ldr	r3, [r7, #4]
 8003af4:	695b      	ldr	r3, [r3, #20]
 8003af6:	495a      	ldr	r1, [pc, #360]	@ (8003c60 <HAL_RCCEx_PeriphCLKConfig+0x39c>)
 8003af8:	4313      	orrs	r3, r2
 8003afa:	2288      	movs	r2, #136	@ 0x88
 8003afc:	508b      	str	r3, [r1, r2]
  }

  /*-------------------------- I2C3 clock source configuration ---------------------*/
  if (((PeriphClkInit->PeriphClockSelection) & RCC_PERIPHCLK_I2C3) == RCC_PERIPHCLK_I2C3)
 8003afe:	687b      	ldr	r3, [r7, #4]
 8003b00:	681b      	ldr	r3, [r3, #0]
 8003b02:	2240      	movs	r2, #64	@ 0x40
 8003b04:	4013      	ands	r3, r2
 8003b06:	d00a      	beq.n	8003b1e <HAL_RCCEx_PeriphCLKConfig+0x25a>
  {
    /* Check the parameters */
    assert_param(IS_RCC_I2C3CLKSOURCE(PeriphClkInit->I2c3ClockSelection));

    /* Configure the I2C3 clock source */
    __HAL_RCC_I2C3_CONFIG(PeriphClkInit->I2c3ClockSelection);
 8003b08:	4a55      	ldr	r2, [pc, #340]	@ (8003c60 <HAL_RCCEx_PeriphCLKConfig+0x39c>)
 8003b0a:	2388      	movs	r3, #136	@ 0x88
 8003b0c:	58d3      	ldr	r3, [r2, r3]
 8003b0e:	4a59      	ldr	r2, [pc, #356]	@ (8003c74 <HAL_RCCEx_PeriphCLKConfig+0x3b0>)
 8003b10:	401a      	ands	r2, r3
 8003b12:	687b      	ldr	r3, [r7, #4]
 8003b14:	699b      	ldr	r3, [r3, #24]
 8003b16:	4952      	ldr	r1, [pc, #328]	@ (8003c60 <HAL_RCCEx_PeriphCLKConfig+0x39c>)
 8003b18:	4313      	orrs	r3, r2
 8003b1a:	2288      	movs	r2, #136	@ 0x88
 8003b1c:	508b      	str	r3, [r1, r2]
  }

  /*----------------------- LPTIM1 clock source configuration -------------------*/
  if (((PeriphClkInit->PeriphClockSelection) & RCC_PERIPHCLK_LPTIM1) == (RCC_PERIPHCLK_LPTIM1))
 8003b1e:	687b      	ldr	r3, [r7, #4]
 8003b20:	681b      	ldr	r3, [r3, #0]
 8003b22:	2280      	movs	r2, #128	@ 0x80
 8003b24:	4013      	ands	r3, r2
 8003b26:	d00a      	beq.n	8003b3e <HAL_RCCEx_PeriphCLKConfig+0x27a>
  {
    assert_param(IS_RCC_LPTIM1CLKSOURCE(PeriphClkInit->Lptim1ClockSelection));
    __HAL_RCC_LPTIM1_CONFIG(PeriphClkInit->Lptim1ClockSelection);
 8003b28:	4a4d      	ldr	r2, [pc, #308]	@ (8003c60 <HAL_RCCEx_PeriphCLKConfig+0x39c>)
 8003b2a:	2388      	movs	r3, #136	@ 0x88
 8003b2c:	58d3      	ldr	r3, [r2, r3]
 8003b2e:	4a52      	ldr	r2, [pc, #328]	@ (8003c78 <HAL_RCCEx_PeriphCLKConfig+0x3b4>)
 8003b30:	401a      	ands	r2, r3
 8003b32:	687b      	ldr	r3, [r7, #4]
 8003b34:	69db      	ldr	r3, [r3, #28]
 8003b36:	494a      	ldr	r1, [pc, #296]	@ (8003c60 <HAL_RCCEx_PeriphCLKConfig+0x39c>)
 8003b38:	4313      	orrs	r3, r2
 8003b3a:	2288      	movs	r2, #136	@ 0x88
 8003b3c:	508b      	str	r3, [r1, r2]
  }

  /*-------------------------- LPTIM2 clock source configuration -------------------*/
  if (((PeriphClkInit->PeriphClockSelection) & RCC_PERIPHCLK_LPTIM2) == (RCC_PERIPHCLK_LPTIM2))
 8003b3e:	687b      	ldr	r3, [r7, #4]
 8003b40:	681a      	ldr	r2, [r3, #0]
 8003b42:	2380      	movs	r3, #128	@ 0x80
 8003b44:	005b      	lsls	r3, r3, #1
 8003b46:	4013      	ands	r3, r2
 8003b48:	d00a      	beq.n	8003b60 <HAL_RCCEx_PeriphCLKConfig+0x29c>
  {
    assert_param(IS_RCC_LPTIM2CLKSOURCE(PeriphClkInit->Lptim2ClockSelection));
    __HAL_RCC_LPTIM2_CONFIG(PeriphClkInit->Lptim2ClockSelection);
 8003b4a:	4a45      	ldr	r2, [pc, #276]	@ (8003c60 <HAL_RCCEx_PeriphCLKConfig+0x39c>)
 8003b4c:	2388      	movs	r3, #136	@ 0x88
 8003b4e:	58d3      	ldr	r3, [r2, r3]
 8003b50:	4a4a      	ldr	r2, [pc, #296]	@ (8003c7c <HAL_RCCEx_PeriphCLKConfig+0x3b8>)
 8003b52:	401a      	ands	r2, r3
 8003b54:	687b      	ldr	r3, [r7, #4]
 8003b56:	6a1b      	ldr	r3, [r3, #32]
 8003b58:	4941      	ldr	r1, [pc, #260]	@ (8003c60 <HAL_RCCEx_PeriphCLKConfig+0x39c>)
 8003b5a:	4313      	orrs	r3, r2
 8003b5c:	2288      	movs	r2, #136	@ 0x88
 8003b5e:	508b      	str	r3, [r1, r2]
    assert_param(IS_RCC_LPTIM3CLKSOURCE(PeriphClkInit->Lptim3ClockSelection));
    __HAL_RCC_LPTIM3_CONFIG(PeriphClkInit->Lptim3ClockSelection);
  }
#endif /* LPTIM3 */
  /*-------------------------- ADC clock source configuration ----------------*/
  if (((PeriphClkInit->PeriphClockSelection) & RCC_PERIPHCLK_ADC) == RCC_PERIPHCLK_ADC)
 8003b60:	687b      	ldr	r3, [r7, #4]
 8003b62:	681a      	ldr	r2, [r3, #0]
 8003b64:	2380      	movs	r3, #128	@ 0x80
 8003b66:	01db      	lsls	r3, r3, #7
 8003b68:	4013      	ands	r3, r2
 8003b6a:	d017      	beq.n	8003b9c <HAL_RCCEx_PeriphCLKConfig+0x2d8>
  {
    /* Check the parameters */
    assert_param(IS_RCC_ADCCLKSOURCE(PeriphClkInit->AdcClockSelection));
    if (PeriphClkInit->AdcClockSelection == RCC_ADCCLKSOURCE_PLLP)
 8003b6c:	687b      	ldr	r3, [r7, #4]
 8003b6e:	6b1a      	ldr	r2, [r3, #48]	@ 0x30
 8003b70:	2380      	movs	r3, #128	@ 0x80
 8003b72:	055b      	lsls	r3, r3, #21
 8003b74:	429a      	cmp	r2, r3
 8003b76:	d106      	bne.n	8003b86 <HAL_RCCEx_PeriphCLKConfig+0x2c2>
    {
      __HAL_RCC_PLLCLKOUT_ENABLE(RCC_PLL_DIVP);
 8003b78:	4b39      	ldr	r3, [pc, #228]	@ (8003c60 <HAL_RCCEx_PeriphCLKConfig+0x39c>)
 8003b7a:	68da      	ldr	r2, [r3, #12]
 8003b7c:	4b38      	ldr	r3, [pc, #224]	@ (8003c60 <HAL_RCCEx_PeriphCLKConfig+0x39c>)
 8003b7e:	2180      	movs	r1, #128	@ 0x80
 8003b80:	0249      	lsls	r1, r1, #9
 8003b82:	430a      	orrs	r2, r1
 8003b84:	60da      	str	r2, [r3, #12]
    }
    /* Configure the ADC1 clock source */
    __HAL_RCC_ADC_CONFIG(PeriphClkInit->AdcClockSelection);
 8003b86:	4a36      	ldr	r2, [pc, #216]	@ (8003c60 <HAL_RCCEx_PeriphCLKConfig+0x39c>)
 8003b88:	2388      	movs	r3, #136	@ 0x88
 8003b8a:	58d3      	ldr	r3, [r2, r3]
 8003b8c:	4a3c      	ldr	r2, [pc, #240]	@ (8003c80 <HAL_RCCEx_PeriphCLKConfig+0x3bc>)
 8003b8e:	401a      	ands	r2, r3
 8003b90:	687b      	ldr	r3, [r7, #4]
 8003b92:	6b1b      	ldr	r3, [r3, #48]	@ 0x30
 8003b94:	4932      	ldr	r1, [pc, #200]	@ (8003c60 <HAL_RCCEx_PeriphCLKConfig+0x39c>)
 8003b96:	4313      	orrs	r3, r2
 8003b98:	2288      	movs	r2, #136	@ 0x88
 8003b9a:	508b      	str	r3, [r1, r2]
    __HAL_RCC_USB_CONFIG(PeriphClkInit->UsbClockSelection);

  }
#endif /* USB_DRD_FS */
  /*-------------------------- RNG clock source configuration ----------------*/
  if (((PeriphClkInit->PeriphClockSelection) & RCC_PERIPHCLK_RNG) == RCC_PERIPHCLK_RNG)
 8003b9c:	687b      	ldr	r3, [r7, #4]
 8003b9e:	681a      	ldr	r2, [r3, #0]
 8003ba0:	2380      	movs	r3, #128	@ 0x80
 8003ba2:	019b      	lsls	r3, r3, #6
 8003ba4:	4013      	ands	r3, r2
 8003ba6:	d017      	beq.n	8003bd8 <HAL_RCCEx_PeriphCLKConfig+0x314>
  {
    /* Check the parameters */
    assert_param(IS_RCC_RNGCLKSOURCE(PeriphClkInit->RngClockSelection));
    if (PeriphClkInit->RngClockSelection == RCC_RNGCLKSOURCE_PLLQ)
 8003ba8:	687b      	ldr	r3, [r7, #4]
 8003baa:	6ada      	ldr	r2, [r3, #44]	@ 0x2c
 8003bac:	2380      	movs	r3, #128	@ 0x80
 8003bae:	051b      	lsls	r3, r3, #20
 8003bb0:	429a      	cmp	r2, r3
 8003bb2:	d106      	bne.n	8003bc2 <HAL_RCCEx_PeriphCLKConfig+0x2fe>
    {
      __HAL_RCC_PLLCLKOUT_ENABLE(RCC_PLL_DIVQ);
 8003bb4:	4b2a      	ldr	r3, [pc, #168]	@ (8003c60 <HAL_RCCEx_PeriphCLKConfig+0x39c>)
 8003bb6:	68da      	ldr	r2, [r3, #12]
 8003bb8:	4b29      	ldr	r3, [pc, #164]	@ (8003c60 <HAL_RCCEx_PeriphCLKConfig+0x39c>)
 8003bba:	2180      	movs	r1, #128	@ 0x80
 8003bbc:	0449      	lsls	r1, r1, #17
 8003bbe:	430a      	orrs	r2, r1
 8003bc0:	60da      	str	r2, [r3, #12]
    }
    /* Configure the RNG clock source */
    __HAL_RCC_RNG_CONFIG(PeriphClkInit->RngClockSelection);
 8003bc2:	4a27      	ldr	r2, [pc, #156]	@ (8003c60 <HAL_RCCEx_PeriphCLKConfig+0x39c>)
 8003bc4:	2388      	movs	r3, #136	@ 0x88
 8003bc6:	58d3      	ldr	r3, [r2, r3]
 8003bc8:	4a2e      	ldr	r2, [pc, #184]	@ (8003c84 <HAL_RCCEx_PeriphCLKConfig+0x3c0>)
 8003bca:	401a      	ands	r2, r3
 8003bcc:	687b      	ldr	r3, [r7, #4]
 8003bce:	6adb      	ldr	r3, [r3, #44]	@ 0x2c
 8003bd0:	4923      	ldr	r1, [pc, #140]	@ (8003c60 <HAL_RCCEx_PeriphCLKConfig+0x39c>)
 8003bd2:	4313      	orrs	r3, r2
 8003bd4:	2288      	movs	r2, #136	@ 0x88
 8003bd6:	508b      	str	r3, [r1, r2]

  }
  /*-------------------------- TIM1 clock source configuration ----------------*/
  if (((PeriphClkInit->PeriphClockSelection) & RCC_PERIPHCLK_TIM1) == RCC_PERIPHCLK_TIM1)
 8003bd8:	687b      	ldr	r3, [r7, #4]
 8003bda:	681a      	ldr	r2, [r3, #0]
 8003bdc:	2380      	movs	r3, #128	@ 0x80
 8003bde:	00db      	lsls	r3, r3, #3
 8003be0:	4013      	ands	r3, r2
 8003be2:	d017      	beq.n	8003c14 <HAL_RCCEx_PeriphCLKConfig+0x350>
  {

    /* Check the parameters */
    assert_param(IS_RCC_TIM1CLKSOURCE(PeriphClkInit->Tim1ClockSelection));
    if (PeriphClkInit->Tim1ClockSelection == RCC_TIM1CLKSOURCE_PLLQ)
 8003be4:	687b      	ldr	r3, [r7, #4]
 8003be6:	6a5a      	ldr	r2, [r3, #36]	@ 0x24
 8003be8:	2380      	movs	r3, #128	@ 0x80
 8003bea:	045b      	lsls	r3, r3, #17
 8003bec:	429a      	cmp	r2, r3
 8003bee:	d106      	bne.n	8003bfe <HAL_RCCEx_PeriphCLKConfig+0x33a>
    {
      __HAL_RCC_PLLCLKOUT_ENABLE(RCC_PLL_DIVQ);
 8003bf0:	4b1b      	ldr	r3, [pc, #108]	@ (8003c60 <HAL_RCCEx_PeriphCLKConfig+0x39c>)
 8003bf2:	68da      	ldr	r2, [r3, #12]
 8003bf4:	4b1a      	ldr	r3, [pc, #104]	@ (8003c60 <HAL_RCCEx_PeriphCLKConfig+0x39c>)
 8003bf6:	2180      	movs	r1, #128	@ 0x80
 8003bf8:	0449      	lsls	r1, r1, #17
 8003bfa:	430a      	orrs	r2, r1
 8003bfc:	60da      	str	r2, [r3, #12]
    }
    /* Configure the TIM1 clock source */
    __HAL_RCC_TIM1_CONFIG(PeriphClkInit->Tim1ClockSelection);
 8003bfe:	4a18      	ldr	r2, [pc, #96]	@ (8003c60 <HAL_RCCEx_PeriphCLKConfig+0x39c>)
 8003c00:	2388      	movs	r3, #136	@ 0x88
 8003c02:	58d3      	ldr	r3, [r2, r3]
 8003c04:	4a20      	ldr	r2, [pc, #128]	@ (8003c88 <HAL_RCCEx_PeriphCLKConfig+0x3c4>)
 8003c06:	401a      	ands	r2, r3
 8003c08:	687b      	ldr	r3, [r7, #4]
 8003c0a:	6a5b      	ldr	r3, [r3, #36]	@ 0x24
 8003c0c:	4914      	ldr	r1, [pc, #80]	@ (8003c60 <HAL_RCCEx_PeriphCLKConfig+0x39c>)
 8003c0e:	4313      	orrs	r3, r2
 8003c10:	2288      	movs	r2, #136	@ 0x88
 8003c12:	508b      	str	r3, [r1, r2]

  }
  /*-------------------------- TIM15 clock source configuration ----------------*/
  if (((PeriphClkInit->PeriphClockSelection) & RCC_PERIPHCLK_TIM15) == RCC_PERIPHCLK_TIM15)
 8003c14:	687b      	ldr	r3, [r7, #4]
 8003c16:	681a      	ldr	r2, [r3, #0]
 8003c18:	2380      	movs	r3, #128	@ 0x80
 8003c1a:	011b      	lsls	r3, r3, #4
 8003c1c:	4013      	ands	r3, r2
 8003c1e:	d017      	beq.n	8003c50 <HAL_RCCEx_PeriphCLKConfig+0x38c>
  {
    /* Check the parameters */
    assert_param(IS_RCC_TIM15CLKSOURCE(PeriphClkInit->Tim15ClockSelection));
    if (PeriphClkInit->Tim15ClockSelection == RCC_TIM15CLKSOURCE_PLLQ)
 8003c20:	687b      	ldr	r3, [r7, #4]
 8003c22:	6a9a      	ldr	r2, [r3, #40]	@ 0x28
 8003c24:	2380      	movs	r3, #128	@ 0x80
 8003c26:	049b      	lsls	r3, r3, #18
 8003c28:	429a      	cmp	r2, r3
 8003c2a:	d106      	bne.n	8003c3a <HAL_RCCEx_PeriphCLKConfig+0x376>
    {
      __HAL_RCC_PLLCLKOUT_ENABLE(RCC_PLL_DIVQ);
 8003c2c:	4b0c      	ldr	r3, [pc, #48]	@ (8003c60 <HAL_RCCEx_PeriphCLKConfig+0x39c>)
 8003c2e:	68da      	ldr	r2, [r3, #12]
 8003c30:	4b0b      	ldr	r3, [pc, #44]	@ (8003c60 <HAL_RCCEx_PeriphCLKConfig+0x39c>)
 8003c32:	2180      	movs	r1, #128	@ 0x80
 8003c34:	0449      	lsls	r1, r1, #17
 8003c36:	430a      	orrs	r2, r1
 8003c38:	60da      	str	r2, [r3, #12]
    }
    /* Configure the TIM1 clock source */
    __HAL_RCC_TIM15_CONFIG(PeriphClkInit->Tim15ClockSelection);
 8003c3a:	4a09      	ldr	r2, [pc, #36]	@ (8003c60 <HAL_RCCEx_PeriphCLKConfig+0x39c>)
 8003c3c:	2388      	movs	r3, #136	@ 0x88
 8003c3e:	58d3      	ldr	r3, [r2, r3]
 8003c40:	4a11      	ldr	r2, [pc, #68]	@ (8003c88 <HAL_RCCEx_PeriphCLKConfig+0x3c4>)
 8003c42:	401a      	ands	r2, r3
 8003c44:	687b      	ldr	r3, [r7, #4]
 8003c46:	6a9b      	ldr	r3, [r3, #40]	@ 0x28
 8003c48:	4905      	ldr	r1, [pc, #20]	@ (8003c60 <HAL_RCCEx_PeriphCLKConfig+0x39c>)
 8003c4a:	4313      	orrs	r3, r2
 8003c4c:	2288      	movs	r2, #136	@ 0x88
 8003c4e:	508b      	str	r3, [r1, r2]

  }

  return status;
 8003c50:	2312      	movs	r3, #18
 8003c52:	18fb      	adds	r3, r7, r3
 8003c54:	781b      	ldrb	r3, [r3, #0]
}
 8003c56:	0018      	movs	r0, r3
 8003c58:	46bd      	mov	sp, r7
 8003c5a:	b006      	add	sp, #24
 8003c5c:	bd80      	pop	{r7, pc}
 8003c5e:	46c0      	nop			@ (mov r8, r8)
 8003c60:	40021000 	.word	0x40021000
 8003c64:	efffffff 	.word	0xefffffff
 8003c68:	fffff3ff 	.word	0xfffff3ff
 8003c6c:	fffffcff 	.word	0xfffffcff
 8003c70:	ffffcfff 	.word	0xffffcfff
 8003c74:	fffcffff 	.word	0xfffcffff
 8003c78:	fff3ffff 	.word	0xfff3ffff
 8003c7c:	ffcfffff 	.word	0xffcfffff
 8003c80:	cfffffff 	.word	0xcfffffff
 8003c84:	f3ffffff 	.word	0xf3ffffff
 8003c88:	feffffff 	.word	0xfeffffff

08003c8c <HAL_RCCEx_GetPeriphCLKFreq>:
  *            @arg @ref RCC_PERIPHCLK_TIM1  TIM1 peripheral clock (only for devices with TIM1)
  *            @arg @ref RCC_PERIPHCLK_TIM15  TIM15 peripheral clock (only for devices with TIM15)
  * @retval Frequency in Hz
  */
uint32_t HAL_RCCEx_GetPeriphCLKFreq(uint32_t PeriphClk)
{
 8003c8c:	b590      	push	{r4, r7, lr}
 8003c8e:	b089      	sub	sp, #36	@ 0x24
 8003c90:	af00      	add	r7, sp, #0
 8003c92:	6078      	str	r0, [r7, #4]
  uint32_t frequency = 0U;
 8003c94:	2300      	movs	r3, #0
 8003c96:	61fb      	str	r3, [r7, #28]
  PLL_ClocksTypeDef pll_freq;
  uint32_t msirange;
  /* Check the parameters */
  assert_param(IS_RCC_PERIPHCLOCK(PeriphClk));

  if (PeriphClk == RCC_PERIPHCLK_RTC)
 8003c98:	687a      	ldr	r2, [r7, #4]
 8003c9a:	2380      	movs	r3, #128	@ 0x80
 8003c9c:	021b      	lsls	r3, r3, #8
 8003c9e:	429a      	cmp	r2, r3
 8003ca0:	d154      	bne.n	8003d4c <HAL_RCCEx_GetPeriphCLKFreq+0xc0>
  {
    /* Get the current RCC_PERIPHCLK_RTC source */
    srcclk = __HAL_RCC_GET_RTC_SOURCE();
 8003ca2:	4ad0      	ldr	r2, [pc, #832]	@ (8003fe4 <HAL_RCCEx_GetPeriphCLKFreq+0x358>)
 8003ca4:	2390      	movs	r3, #144	@ 0x90
 8003ca6:	58d2      	ldr	r2, [r2, r3]
 8003ca8:	23c0      	movs	r3, #192	@ 0xc0
 8003caa:	009b      	lsls	r3, r3, #2
 8003cac:	4013      	ands	r3, r2
 8003cae:	617b      	str	r3, [r7, #20]

    switch (srcclk)
 8003cb0:	697a      	ldr	r2, [r7, #20]
 8003cb2:	23c0      	movs	r3, #192	@ 0xc0
 8003cb4:	009b      	lsls	r3, r3, #2
 8003cb6:	429a      	cmp	r2, r3
 8003cb8:	d039      	beq.n	8003d2e <HAL_RCCEx_GetPeriphCLKFreq+0xa2>
 8003cba:	697a      	ldr	r2, [r7, #20]
 8003cbc:	23c0      	movs	r3, #192	@ 0xc0
 8003cbe:	009b      	lsls	r3, r3, #2
 8003cc0:	429a      	cmp	r2, r3
 8003cc2:	d901      	bls.n	8003cc8 <HAL_RCCEx_GetPeriphCLKFreq+0x3c>
 8003cc4:	f000 fbf3 	bl	80044ae <HAL_RCCEx_GetPeriphCLKFreq+0x822>
 8003cc8:	697a      	ldr	r2, [r7, #20]
 8003cca:	2380      	movs	r3, #128	@ 0x80
 8003ccc:	005b      	lsls	r3, r3, #1
 8003cce:	429a      	cmp	r2, r3
 8003cd0:	d006      	beq.n	8003ce0 <HAL_RCCEx_GetPeriphCLKFreq+0x54>
 8003cd2:	697a      	ldr	r2, [r7, #20]
 8003cd4:	2380      	movs	r3, #128	@ 0x80
 8003cd6:	009b      	lsls	r3, r3, #2
 8003cd8:	429a      	cmp	r2, r3
 8003cda:	d00f      	beq.n	8003cfc <HAL_RCCEx_GetPeriphCLKFreq+0x70>
          frequency = HSE_VALUE / 32U;
        }
        break;
      default:
        /* No clock source, frequency default init at 0 */
        break;
 8003cdc:	f000 fbe7 	bl	80044ae <HAL_RCCEx_GetPeriphCLKFreq+0x822>
        if (HAL_IS_BIT_SET(RCC->BDCR, RCC_BDCR_LSERDY))
 8003ce0:	4ac0      	ldr	r2, [pc, #768]	@ (8003fe4 <HAL_RCCEx_GetPeriphCLKFreq+0x358>)
 8003ce2:	2390      	movs	r3, #144	@ 0x90
 8003ce4:	58d3      	ldr	r3, [r2, r3]
 8003ce6:	2202      	movs	r2, #2
 8003ce8:	4013      	ands	r3, r2
 8003cea:	2b02      	cmp	r3, #2
 8003cec:	d001      	beq.n	8003cf2 <HAL_RCCEx_GetPeriphCLKFreq+0x66>
 8003cee:	f000 fbe0 	bl	80044b2 <HAL_RCCEx_GetPeriphCLKFreq+0x826>
          frequency = LSE_VALUE;
 8003cf2:	2380      	movs	r3, #128	@ 0x80
 8003cf4:	021b      	lsls	r3, r3, #8
 8003cf6:	61fb      	str	r3, [r7, #28]
        break;
 8003cf8:	f000 fbdb 	bl	80044b2 <HAL_RCCEx_GetPeriphCLKFreq+0x826>
        if (HAL_IS_BIT_SET(RCC->CSR, RCC_CSR_LSIRDY))
 8003cfc:	4ab9      	ldr	r2, [pc, #740]	@ (8003fe4 <HAL_RCCEx_GetPeriphCLKFreq+0x358>)
 8003cfe:	2394      	movs	r3, #148	@ 0x94
 8003d00:	58d3      	ldr	r3, [r2, r3]
 8003d02:	2202      	movs	r2, #2
 8003d04:	4013      	ands	r3, r2
 8003d06:	2b02      	cmp	r3, #2
 8003d08:	d001      	beq.n	8003d0e <HAL_RCCEx_GetPeriphCLKFreq+0x82>
 8003d0a:	f000 fbd4 	bl	80044b6 <HAL_RCCEx_GetPeriphCLKFreq+0x82a>
          if (HAL_IS_BIT_SET(RCC->CSR, RCC_CSR_LSIPREDIV))
 8003d0e:	4ab5      	ldr	r2, [pc, #724]	@ (8003fe4 <HAL_RCCEx_GetPeriphCLKFreq+0x358>)
 8003d10:	2394      	movs	r3, #148	@ 0x94
 8003d12:	58d3      	ldr	r3, [r2, r3]
 8003d14:	2204      	movs	r2, #4
 8003d16:	4013      	ands	r3, r2
 8003d18:	2b04      	cmp	r3, #4
 8003d1a:	d103      	bne.n	8003d24 <HAL_RCCEx_GetPeriphCLKFreq+0x98>
            frequency = LSI_VALUE / 128U;
 8003d1c:	23fa      	movs	r3, #250	@ 0xfa
 8003d1e:	61fb      	str	r3, [r7, #28]
        break;
 8003d20:	f000 fbc9 	bl	80044b6 <HAL_RCCEx_GetPeriphCLKFreq+0x82a>
            frequency = LSI_VALUE;
 8003d24:	23fa      	movs	r3, #250	@ 0xfa
 8003d26:	01db      	lsls	r3, r3, #7
 8003d28:	61fb      	str	r3, [r7, #28]
        break;
 8003d2a:	f000 fbc4 	bl	80044b6 <HAL_RCCEx_GetPeriphCLKFreq+0x82a>
        if (HAL_IS_BIT_SET(RCC->CR, RCC_CR_HSERDY))
 8003d2e:	4bad      	ldr	r3, [pc, #692]	@ (8003fe4 <HAL_RCCEx_GetPeriphCLKFreq+0x358>)
 8003d30:	681a      	ldr	r2, [r3, #0]
 8003d32:	2380      	movs	r3, #128	@ 0x80
 8003d34:	029b      	lsls	r3, r3, #10
 8003d36:	401a      	ands	r2, r3
 8003d38:	2380      	movs	r3, #128	@ 0x80
 8003d3a:	029b      	lsls	r3, r3, #10
 8003d3c:	429a      	cmp	r2, r3
 8003d3e:	d001      	beq.n	8003d44 <HAL_RCCEx_GetPeriphCLKFreq+0xb8>
 8003d40:	f000 fbbb 	bl	80044ba <HAL_RCCEx_GetPeriphCLKFreq+0x82e>
          frequency = HSE_VALUE / 32U;
 8003d44:	4ba8      	ldr	r3, [pc, #672]	@ (8003fe8 <HAL_RCCEx_GetPeriphCLKFreq+0x35c>)
 8003d46:	61fb      	str	r3, [r7, #28]
        break;
 8003d48:	f000 fbb7 	bl	80044ba <HAL_RCCEx_GetPeriphCLKFreq+0x82e>
    }
  }
  else
  {
    /* Other external peripheral clock source than RTC */
    switch (PeriphClk)
 8003d4c:	687a      	ldr	r2, [r7, #4]
 8003d4e:	2380      	movs	r3, #128	@ 0x80
 8003d50:	029b      	lsls	r3, r3, #10
 8003d52:	429a      	cmp	r2, r3
 8003d54:	d100      	bne.n	8003d58 <HAL_RCCEx_GetPeriphCLKFreq+0xcc>
 8003d56:	e0f7      	b.n	8003f48 <HAL_RCCEx_GetPeriphCLKFreq+0x2bc>
 8003d58:	687a      	ldr	r2, [r7, #4]
 8003d5a:	2380      	movs	r3, #128	@ 0x80
 8003d5c:	029b      	lsls	r3, r3, #10
 8003d5e:	429a      	cmp	r2, r3
 8003d60:	d901      	bls.n	8003d66 <HAL_RCCEx_GetPeriphCLKFreq+0xda>
 8003d62:	f000 fbac 	bl	80044be <HAL_RCCEx_GetPeriphCLKFreq+0x832>
 8003d66:	687a      	ldr	r2, [r7, #4]
 8003d68:	2380      	movs	r3, #128	@ 0x80
 8003d6a:	025b      	lsls	r3, r3, #9
 8003d6c:	429a      	cmp	r2, r3
 8003d6e:	d100      	bne.n	8003d72 <HAL_RCCEx_GetPeriphCLKFreq+0xe6>
 8003d70:	e0ea      	b.n	8003f48 <HAL_RCCEx_GetPeriphCLKFreq+0x2bc>
 8003d72:	687a      	ldr	r2, [r7, #4]
 8003d74:	2380      	movs	r3, #128	@ 0x80
 8003d76:	025b      	lsls	r3, r3, #9
 8003d78:	429a      	cmp	r2, r3
 8003d7a:	d901      	bls.n	8003d80 <HAL_RCCEx_GetPeriphCLKFreq+0xf4>
 8003d7c:	f000 fb9f 	bl	80044be <HAL_RCCEx_GetPeriphCLKFreq+0x832>
 8003d80:	687a      	ldr	r2, [r7, #4]
 8003d82:	2380      	movs	r3, #128	@ 0x80
 8003d84:	01db      	lsls	r3, r3, #7
 8003d86:	429a      	cmp	r2, r3
 8003d88:	d100      	bne.n	8003d8c <HAL_RCCEx_GetPeriphCLKFreq+0x100>
 8003d8a:	e180      	b.n	800408e <HAL_RCCEx_GetPeriphCLKFreq+0x402>
 8003d8c:	687a      	ldr	r2, [r7, #4]
 8003d8e:	2380      	movs	r3, #128	@ 0x80
 8003d90:	01db      	lsls	r3, r3, #7
 8003d92:	429a      	cmp	r2, r3
 8003d94:	d901      	bls.n	8003d9a <HAL_RCCEx_GetPeriphCLKFreq+0x10e>
 8003d96:	f000 fb92 	bl	80044be <HAL_RCCEx_GetPeriphCLKFreq+0x832>
 8003d9a:	687a      	ldr	r2, [r7, #4]
 8003d9c:	2380      	movs	r3, #128	@ 0x80
 8003d9e:	019b      	lsls	r3, r3, #6
 8003da0:	429a      	cmp	r2, r3
 8003da2:	d101      	bne.n	8003da8 <HAL_RCCEx_GetPeriphCLKFreq+0x11c>
 8003da4:	f000 fb29 	bl	80043fa <HAL_RCCEx_GetPeriphCLKFreq+0x76e>
 8003da8:	687a      	ldr	r2, [r7, #4]
 8003daa:	2380      	movs	r3, #128	@ 0x80
 8003dac:	019b      	lsls	r3, r3, #6
 8003dae:	429a      	cmp	r2, r3
 8003db0:	d901      	bls.n	8003db6 <HAL_RCCEx_GetPeriphCLKFreq+0x12a>
 8003db2:	f000 fb84 	bl	80044be <HAL_RCCEx_GetPeriphCLKFreq+0x832>
 8003db6:	687a      	ldr	r2, [r7, #4]
 8003db8:	2380      	movs	r3, #128	@ 0x80
 8003dba:	011b      	lsls	r3, r3, #4
 8003dbc:	429a      	cmp	r2, r3
 8003dbe:	d100      	bne.n	8003dc2 <HAL_RCCEx_GetPeriphCLKFreq+0x136>
 8003dc0:	e2f0      	b.n	80043a4 <HAL_RCCEx_GetPeriphCLKFreq+0x718>
 8003dc2:	687a      	ldr	r2, [r7, #4]
 8003dc4:	2380      	movs	r3, #128	@ 0x80
 8003dc6:	011b      	lsls	r3, r3, #4
 8003dc8:	429a      	cmp	r2, r3
 8003dca:	d901      	bls.n	8003dd0 <HAL_RCCEx_GetPeriphCLKFreq+0x144>
 8003dcc:	f000 fb77 	bl	80044be <HAL_RCCEx_GetPeriphCLKFreq+0x832>
 8003dd0:	687a      	ldr	r2, [r7, #4]
 8003dd2:	2380      	movs	r3, #128	@ 0x80
 8003dd4:	00db      	lsls	r3, r3, #3
 8003dd6:	429a      	cmp	r2, r3
 8003dd8:	d100      	bne.n	8003ddc <HAL_RCCEx_GetPeriphCLKFreq+0x150>
 8003dda:	e2b8      	b.n	800434e <HAL_RCCEx_GetPeriphCLKFreq+0x6c2>
 8003ddc:	687a      	ldr	r2, [r7, #4]
 8003dde:	2380      	movs	r3, #128	@ 0x80
 8003de0:	00db      	lsls	r3, r3, #3
 8003de2:	429a      	cmp	r2, r3
 8003de4:	d901      	bls.n	8003dea <HAL_RCCEx_GetPeriphCLKFreq+0x15e>
 8003de6:	f000 fb6a 	bl	80044be <HAL_RCCEx_GetPeriphCLKFreq+0x832>
 8003dea:	687a      	ldr	r2, [r7, #4]
 8003dec:	2380      	movs	r3, #128	@ 0x80
 8003dee:	005b      	lsls	r3, r3, #1
 8003df0:	429a      	cmp	r2, r3
 8003df2:	d100      	bne.n	8003df6 <HAL_RCCEx_GetPeriphCLKFreq+0x16a>
 8003df4:	e249      	b.n	800428a <HAL_RCCEx_GetPeriphCLKFreq+0x5fe>
 8003df6:	687a      	ldr	r2, [r7, #4]
 8003df8:	2380      	movs	r3, #128	@ 0x80
 8003dfa:	005b      	lsls	r3, r3, #1
 8003dfc:	429a      	cmp	r2, r3
 8003dfe:	d901      	bls.n	8003e04 <HAL_RCCEx_GetPeriphCLKFreq+0x178>
 8003e00:	f000 fb5d 	bl	80044be <HAL_RCCEx_GetPeriphCLKFreq+0x832>
 8003e04:	687b      	ldr	r3, [r7, #4]
 8003e06:	2b80      	cmp	r3, #128	@ 0x80
 8003e08:	d100      	bne.n	8003e0c <HAL_RCCEx_GetPeriphCLKFreq+0x180>
 8003e0a:	e1e1      	b.n	80041d0 <HAL_RCCEx_GetPeriphCLKFreq+0x544>
 8003e0c:	687b      	ldr	r3, [r7, #4]
 8003e0e:	2b80      	cmp	r3, #128	@ 0x80
 8003e10:	d901      	bls.n	8003e16 <HAL_RCCEx_GetPeriphCLKFreq+0x18a>
 8003e12:	f000 fb54 	bl	80044be <HAL_RCCEx_GetPeriphCLKFreq+0x832>
 8003e16:	687b      	ldr	r3, [r7, #4]
 8003e18:	2b20      	cmp	r3, #32
 8003e1a:	d80f      	bhi.n	8003e3c <HAL_RCCEx_GetPeriphCLKFreq+0x1b0>
 8003e1c:	687b      	ldr	r3, [r7, #4]
 8003e1e:	2b00      	cmp	r3, #0
 8003e20:	d101      	bne.n	8003e26 <HAL_RCCEx_GetPeriphCLKFreq+0x19a>
 8003e22:	f000 fb4c 	bl	80044be <HAL_RCCEx_GetPeriphCLKFreq+0x832>
 8003e26:	687b      	ldr	r3, [r7, #4]
 8003e28:	2b20      	cmp	r3, #32
 8003e2a:	d901      	bls.n	8003e30 <HAL_RCCEx_GetPeriphCLKFreq+0x1a4>
 8003e2c:	f000 fb47 	bl	80044be <HAL_RCCEx_GetPeriphCLKFreq+0x832>
 8003e30:	687b      	ldr	r3, [r7, #4]
 8003e32:	009a      	lsls	r2, r3, #2
 8003e34:	4b6d      	ldr	r3, [pc, #436]	@ (8003fec <HAL_RCCEx_GetPeriphCLKFreq+0x360>)
 8003e36:	18d3      	adds	r3, r2, r3
 8003e38:	681b      	ldr	r3, [r3, #0]
 8003e3a:	469f      	mov	pc, r3
 8003e3c:	687b      	ldr	r3, [r7, #4]
 8003e3e:	2b40      	cmp	r3, #64	@ 0x40
 8003e40:	d100      	bne.n	8003e44 <HAL_RCCEx_GetPeriphCLKFreq+0x1b8>
 8003e42:	e191      	b.n	8004168 <HAL_RCCEx_GetPeriphCLKFreq+0x4dc>
            break;
        }
        break;
      }
      default:
        break;
 8003e44:	f000 fb3b 	bl	80044be <HAL_RCCEx_GetPeriphCLKFreq+0x832>
        srcclk = __HAL_RCC_GET_USART1_SOURCE();
 8003e48:	4a66      	ldr	r2, [pc, #408]	@ (8003fe4 <HAL_RCCEx_GetPeriphCLKFreq+0x358>)
 8003e4a:	2388      	movs	r3, #136	@ 0x88
 8003e4c:	58d3      	ldr	r3, [r2, r3]
 8003e4e:	2203      	movs	r2, #3
 8003e50:	4013      	ands	r3, r2
 8003e52:	617b      	str	r3, [r7, #20]
        switch (srcclk)
 8003e54:	697b      	ldr	r3, [r7, #20]
 8003e56:	2b03      	cmp	r3, #3
 8003e58:	d025      	beq.n	8003ea6 <HAL_RCCEx_GetPeriphCLKFreq+0x21a>
 8003e5a:	697b      	ldr	r3, [r7, #20]
 8003e5c:	2b03      	cmp	r3, #3
 8003e5e:	d82d      	bhi.n	8003ebc <HAL_RCCEx_GetPeriphCLKFreq+0x230>
 8003e60:	697b      	ldr	r3, [r7, #20]
 8003e62:	2b02      	cmp	r3, #2
 8003e64:	d013      	beq.n	8003e8e <HAL_RCCEx_GetPeriphCLKFreq+0x202>
 8003e66:	697b      	ldr	r3, [r7, #20]
 8003e68:	2b02      	cmp	r3, #2
 8003e6a:	d827      	bhi.n	8003ebc <HAL_RCCEx_GetPeriphCLKFreq+0x230>
 8003e6c:	697b      	ldr	r3, [r7, #20]
 8003e6e:	2b00      	cmp	r3, #0
 8003e70:	d003      	beq.n	8003e7a <HAL_RCCEx_GetPeriphCLKFreq+0x1ee>
 8003e72:	697b      	ldr	r3, [r7, #20]
 8003e74:	2b01      	cmp	r3, #1
 8003e76:	d005      	beq.n	8003e84 <HAL_RCCEx_GetPeriphCLKFreq+0x1f8>
            break;
 8003e78:	e020      	b.n	8003ebc <HAL_RCCEx_GetPeriphCLKFreq+0x230>
            frequency = HAL_RCC_GetPCLK1Freq();
 8003e7a:	f7ff fb8f 	bl	800359c <HAL_RCC_GetPCLK1Freq>
 8003e7e:	0003      	movs	r3, r0
 8003e80:	61fb      	str	r3, [r7, #28]
            break;
 8003e82:	e020      	b.n	8003ec6 <HAL_RCCEx_GetPeriphCLKFreq+0x23a>
            frequency = HAL_RCC_GetSysClockFreq();
 8003e84:	f7ff fae4 	bl	8003450 <HAL_RCC_GetSysClockFreq>
 8003e88:	0003      	movs	r3, r0
 8003e8a:	61fb      	str	r3, [r7, #28]
            break;
 8003e8c:	e01b      	b.n	8003ec6 <HAL_RCCEx_GetPeriphCLKFreq+0x23a>
            if (HAL_IS_BIT_SET(RCC->CR, RCC_CR_HSIRDY))
 8003e8e:	4b55      	ldr	r3, [pc, #340]	@ (8003fe4 <HAL_RCCEx_GetPeriphCLKFreq+0x358>)
 8003e90:	681a      	ldr	r2, [r3, #0]
 8003e92:	2380      	movs	r3, #128	@ 0x80
 8003e94:	00db      	lsls	r3, r3, #3
 8003e96:	401a      	ands	r2, r3
 8003e98:	2380      	movs	r3, #128	@ 0x80
 8003e9a:	00db      	lsls	r3, r3, #3
 8003e9c:	429a      	cmp	r2, r3
 8003e9e:	d10f      	bne.n	8003ec0 <HAL_RCCEx_GetPeriphCLKFreq+0x234>
              frequency = HSI_VALUE;
 8003ea0:	4b53      	ldr	r3, [pc, #332]	@ (8003ff0 <HAL_RCCEx_GetPeriphCLKFreq+0x364>)
 8003ea2:	61fb      	str	r3, [r7, #28]
            break;
 8003ea4:	e00c      	b.n	8003ec0 <HAL_RCCEx_GetPeriphCLKFreq+0x234>
            if (HAL_IS_BIT_SET(RCC->BDCR, RCC_BDCR_LSERDY))
 8003ea6:	4a4f      	ldr	r2, [pc, #316]	@ (8003fe4 <HAL_RCCEx_GetPeriphCLKFreq+0x358>)
 8003ea8:	2390      	movs	r3, #144	@ 0x90
 8003eaa:	58d3      	ldr	r3, [r2, r3]
 8003eac:	2202      	movs	r2, #2
 8003eae:	4013      	ands	r3, r2
 8003eb0:	2b02      	cmp	r3, #2
 8003eb2:	d107      	bne.n	8003ec4 <HAL_RCCEx_GetPeriphCLKFreq+0x238>
              frequency = LSE_VALUE;
 8003eb4:	2380      	movs	r3, #128	@ 0x80
 8003eb6:	021b      	lsls	r3, r3, #8
 8003eb8:	61fb      	str	r3, [r7, #28]
            break;
 8003eba:	e003      	b.n	8003ec4 <HAL_RCCEx_GetPeriphCLKFreq+0x238>
            break;
 8003ebc:	46c0      	nop			@ (mov r8, r8)
 8003ebe:	e2ff      	b.n	80044c0 <HAL_RCCEx_GetPeriphCLKFreq+0x834>
            break;
 8003ec0:	46c0      	nop			@ (mov r8, r8)
 8003ec2:	e2fd      	b.n	80044c0 <HAL_RCCEx_GetPeriphCLKFreq+0x834>
            break;
 8003ec4:	46c0      	nop			@ (mov r8, r8)
        break;
 8003ec6:	e2fb      	b.n	80044c0 <HAL_RCCEx_GetPeriphCLKFreq+0x834>
        srcclk = __HAL_RCC_GET_USART2_SOURCE();
 8003ec8:	4a46      	ldr	r2, [pc, #280]	@ (8003fe4 <HAL_RCCEx_GetPeriphCLKFreq+0x358>)
 8003eca:	2388      	movs	r3, #136	@ 0x88
 8003ecc:	58d3      	ldr	r3, [r2, r3]
 8003ece:	220c      	movs	r2, #12
 8003ed0:	4013      	ands	r3, r2
 8003ed2:	617b      	str	r3, [r7, #20]
        switch (srcclk)
 8003ed4:	697b      	ldr	r3, [r7, #20]
 8003ed6:	2b0c      	cmp	r3, #12
 8003ed8:	d025      	beq.n	8003f26 <HAL_RCCEx_GetPeriphCLKFreq+0x29a>
 8003eda:	697b      	ldr	r3, [r7, #20]
 8003edc:	2b0c      	cmp	r3, #12
 8003ede:	d82d      	bhi.n	8003f3c <HAL_RCCEx_GetPeriphCLKFreq+0x2b0>
 8003ee0:	697b      	ldr	r3, [r7, #20]
 8003ee2:	2b08      	cmp	r3, #8
 8003ee4:	d013      	beq.n	8003f0e <HAL_RCCEx_GetPeriphCLKFreq+0x282>
 8003ee6:	697b      	ldr	r3, [r7, #20]
 8003ee8:	2b08      	cmp	r3, #8
 8003eea:	d827      	bhi.n	8003f3c <HAL_RCCEx_GetPeriphCLKFreq+0x2b0>
 8003eec:	697b      	ldr	r3, [r7, #20]
 8003eee:	2b00      	cmp	r3, #0
 8003ef0:	d003      	beq.n	8003efa <HAL_RCCEx_GetPeriphCLKFreq+0x26e>
 8003ef2:	697b      	ldr	r3, [r7, #20]
 8003ef4:	2b04      	cmp	r3, #4
 8003ef6:	d005      	beq.n	8003f04 <HAL_RCCEx_GetPeriphCLKFreq+0x278>
            break;
 8003ef8:	e020      	b.n	8003f3c <HAL_RCCEx_GetPeriphCLKFreq+0x2b0>
            frequency = HAL_RCC_GetPCLK1Freq();
 8003efa:	f7ff fb4f 	bl	800359c <HAL_RCC_GetPCLK1Freq>
 8003efe:	0003      	movs	r3, r0
 8003f00:	61fb      	str	r3, [r7, #28]
            break;
 8003f02:	e020      	b.n	8003f46 <HAL_RCCEx_GetPeriphCLKFreq+0x2ba>
            frequency = HAL_RCC_GetSysClockFreq();
 8003f04:	f7ff faa4 	bl	8003450 <HAL_RCC_GetSysClockFreq>
 8003f08:	0003      	movs	r3, r0
 8003f0a:	61fb      	str	r3, [r7, #28]
            break;
 8003f0c:	e01b      	b.n	8003f46 <HAL_RCCEx_GetPeriphCLKFreq+0x2ba>
            if (HAL_IS_BIT_SET(RCC->CR, RCC_CR_HSIRDY))
 8003f0e:	4b35      	ldr	r3, [pc, #212]	@ (8003fe4 <HAL_RCCEx_GetPeriphCLKFreq+0x358>)
 8003f10:	681a      	ldr	r2, [r3, #0]
 8003f12:	2380      	movs	r3, #128	@ 0x80
 8003f14:	00db      	lsls	r3, r3, #3
 8003f16:	401a      	ands	r2, r3
 8003f18:	2380      	movs	r3, #128	@ 0x80
 8003f1a:	00db      	lsls	r3, r3, #3
 8003f1c:	429a      	cmp	r2, r3
 8003f1e:	d10f      	bne.n	8003f40 <HAL_RCCEx_GetPeriphCLKFreq+0x2b4>
              frequency = HSI_VALUE;
 8003f20:	4b33      	ldr	r3, [pc, #204]	@ (8003ff0 <HAL_RCCEx_GetPeriphCLKFreq+0x364>)
 8003f22:	61fb      	str	r3, [r7, #28]
            break;
 8003f24:	e00c      	b.n	8003f40 <HAL_RCCEx_GetPeriphCLKFreq+0x2b4>
            if (HAL_IS_BIT_SET(RCC->BDCR, RCC_BDCR_LSERDY))
 8003f26:	4a2f      	ldr	r2, [pc, #188]	@ (8003fe4 <HAL_RCCEx_GetPeriphCLKFreq+0x358>)
 8003f28:	2390      	movs	r3, #144	@ 0x90
 8003f2a:	58d3      	ldr	r3, [r2, r3]
 8003f2c:	2202      	movs	r2, #2
 8003f2e:	4013      	ands	r3, r2
 8003f30:	2b02      	cmp	r3, #2
 8003f32:	d107      	bne.n	8003f44 <HAL_RCCEx_GetPeriphCLKFreq+0x2b8>
              frequency = LSE_VALUE;
 8003f34:	2380      	movs	r3, #128	@ 0x80
 8003f36:	021b      	lsls	r3, r3, #8
 8003f38:	61fb      	str	r3, [r7, #28]
            break;
 8003f3a:	e003      	b.n	8003f44 <HAL_RCCEx_GetPeriphCLKFreq+0x2b8>
            break;
 8003f3c:	46c0      	nop			@ (mov r8, r8)
 8003f3e:	e2bf      	b.n	80044c0 <HAL_RCCEx_GetPeriphCLKFreq+0x834>
            break;
 8003f40:	46c0      	nop			@ (mov r8, r8)
 8003f42:	e2bd      	b.n	80044c0 <HAL_RCCEx_GetPeriphCLKFreq+0x834>
            break;
 8003f44:	46c0      	nop			@ (mov r8, r8)
        break;
 8003f46:	e2bb      	b.n	80044c0 <HAL_RCCEx_GetPeriphCLKFreq+0x834>
        frequency = HAL_RCC_GetPCLK1Freq();
 8003f48:	f7ff fb28 	bl	800359c <HAL_RCC_GetPCLK1Freq>
 8003f4c:	0003      	movs	r3, r0
 8003f4e:	61fb      	str	r3, [r7, #28]
        break;
 8003f50:	e2b6      	b.n	80044c0 <HAL_RCCEx_GetPeriphCLKFreq+0x834>
        srcclk = __HAL_RCC_GET_LPUART1_SOURCE();
 8003f52:	4a24      	ldr	r2, [pc, #144]	@ (8003fe4 <HAL_RCCEx_GetPeriphCLKFreq+0x358>)
 8003f54:	2388      	movs	r3, #136	@ 0x88
 8003f56:	58d2      	ldr	r2, [r2, r3]
 8003f58:	23c0      	movs	r3, #192	@ 0xc0
 8003f5a:	011b      	lsls	r3, r3, #4
 8003f5c:	4013      	ands	r3, r2
 8003f5e:	617b      	str	r3, [r7, #20]
        switch (srcclk)
 8003f60:	697a      	ldr	r2, [r7, #20]
 8003f62:	23c0      	movs	r3, #192	@ 0xc0
 8003f64:	011b      	lsls	r3, r3, #4
 8003f66:	429a      	cmp	r2, r3
 8003f68:	d02d      	beq.n	8003fc6 <HAL_RCCEx_GetPeriphCLKFreq+0x33a>
 8003f6a:	697a      	ldr	r2, [r7, #20]
 8003f6c:	23c0      	movs	r3, #192	@ 0xc0
 8003f6e:	011b      	lsls	r3, r3, #4
 8003f70:	429a      	cmp	r2, r3
 8003f72:	d833      	bhi.n	8003fdc <HAL_RCCEx_GetPeriphCLKFreq+0x350>
 8003f74:	697a      	ldr	r2, [r7, #20]
 8003f76:	2380      	movs	r3, #128	@ 0x80
 8003f78:	011b      	lsls	r3, r3, #4
 8003f7a:	429a      	cmp	r2, r3
 8003f7c:	d017      	beq.n	8003fae <HAL_RCCEx_GetPeriphCLKFreq+0x322>
 8003f7e:	697a      	ldr	r2, [r7, #20]
 8003f80:	2380      	movs	r3, #128	@ 0x80
 8003f82:	011b      	lsls	r3, r3, #4
 8003f84:	429a      	cmp	r2, r3
 8003f86:	d829      	bhi.n	8003fdc <HAL_RCCEx_GetPeriphCLKFreq+0x350>
 8003f88:	697b      	ldr	r3, [r7, #20]
 8003f8a:	2b00      	cmp	r3, #0
 8003f8c:	d005      	beq.n	8003f9a <HAL_RCCEx_GetPeriphCLKFreq+0x30e>
 8003f8e:	697a      	ldr	r2, [r7, #20]
 8003f90:	2380      	movs	r3, #128	@ 0x80
 8003f92:	00db      	lsls	r3, r3, #3
 8003f94:	429a      	cmp	r2, r3
 8003f96:	d005      	beq.n	8003fa4 <HAL_RCCEx_GetPeriphCLKFreq+0x318>
            break;
 8003f98:	e020      	b.n	8003fdc <HAL_RCCEx_GetPeriphCLKFreq+0x350>
            frequency = HAL_RCC_GetPCLK1Freq();
 8003f9a:	f7ff faff 	bl	800359c <HAL_RCC_GetPCLK1Freq>
 8003f9e:	0003      	movs	r3, r0
 8003fa0:	61fb      	str	r3, [r7, #28]
            break;
 8003fa2:	e028      	b.n	8003ff6 <HAL_RCCEx_GetPeriphCLKFreq+0x36a>
            frequency = HAL_RCC_GetSysClockFreq();
 8003fa4:	f7ff fa54 	bl	8003450 <HAL_RCC_GetSysClockFreq>
 8003fa8:	0003      	movs	r3, r0
 8003faa:	61fb      	str	r3, [r7, #28]
            break;
 8003fac:	e023      	b.n	8003ff6 <HAL_RCCEx_GetPeriphCLKFreq+0x36a>
            if (HAL_IS_BIT_SET(RCC->CR, RCC_CR_HSIRDY))
 8003fae:	4b0d      	ldr	r3, [pc, #52]	@ (8003fe4 <HAL_RCCEx_GetPeriphCLKFreq+0x358>)
 8003fb0:	681a      	ldr	r2, [r3, #0]
 8003fb2:	2380      	movs	r3, #128	@ 0x80
 8003fb4:	00db      	lsls	r3, r3, #3
 8003fb6:	401a      	ands	r2, r3
 8003fb8:	2380      	movs	r3, #128	@ 0x80
 8003fba:	00db      	lsls	r3, r3, #3
 8003fbc:	429a      	cmp	r2, r3
 8003fbe:	d10f      	bne.n	8003fe0 <HAL_RCCEx_GetPeriphCLKFreq+0x354>
              frequency = HSI_VALUE;
 8003fc0:	4b0b      	ldr	r3, [pc, #44]	@ (8003ff0 <HAL_RCCEx_GetPeriphCLKFreq+0x364>)
 8003fc2:	61fb      	str	r3, [r7, #28]
            break;
 8003fc4:	e00c      	b.n	8003fe0 <HAL_RCCEx_GetPeriphCLKFreq+0x354>
            if (HAL_IS_BIT_SET(RCC->BDCR, RCC_BDCR_LSERDY))
 8003fc6:	4a07      	ldr	r2, [pc, #28]	@ (8003fe4 <HAL_RCCEx_GetPeriphCLKFreq+0x358>)
 8003fc8:	2390      	movs	r3, #144	@ 0x90
 8003fca:	58d3      	ldr	r3, [r2, r3]
 8003fcc:	2202      	movs	r2, #2
 8003fce:	4013      	ands	r3, r2
 8003fd0:	2b02      	cmp	r3, #2
 8003fd2:	d10f      	bne.n	8003ff4 <HAL_RCCEx_GetPeriphCLKFreq+0x368>
              frequency = LSE_VALUE;
 8003fd4:	2380      	movs	r3, #128	@ 0x80
 8003fd6:	021b      	lsls	r3, r3, #8
 8003fd8:	61fb      	str	r3, [r7, #28]
            break;
 8003fda:	e00b      	b.n	8003ff4 <HAL_RCCEx_GetPeriphCLKFreq+0x368>
            break;
 8003fdc:	46c0      	nop			@ (mov r8, r8)
 8003fde:	e26f      	b.n	80044c0 <HAL_RCCEx_GetPeriphCLKFreq+0x834>
            break;
 8003fe0:	46c0      	nop			@ (mov r8, r8)
 8003fe2:	e26d      	b.n	80044c0 <HAL_RCCEx_GetPeriphCLKFreq+0x834>
 8003fe4:	40021000 	.word	0x40021000
 8003fe8:	0001e848 	.word	0x0001e848
 8003fec:	08005f38 	.word	0x08005f38
 8003ff0:	00f42400 	.word	0x00f42400
            break;
 8003ff4:	46c0      	nop			@ (mov r8, r8)
        break;
 8003ff6:	e263      	b.n	80044c0 <HAL_RCCEx_GetPeriphCLKFreq+0x834>
        srcclk = __HAL_RCC_GET_LPUART2_SOURCE();
 8003ff8:	4ac1      	ldr	r2, [pc, #772]	@ (8004300 <HAL_RCCEx_GetPeriphCLKFreq+0x674>)
 8003ffa:	2388      	movs	r3, #136	@ 0x88
 8003ffc:	58d2      	ldr	r2, [r2, r3]
 8003ffe:	23c0      	movs	r3, #192	@ 0xc0
 8004000:	009b      	lsls	r3, r3, #2
 8004002:	4013      	ands	r3, r2
 8004004:	617b      	str	r3, [r7, #20]
        switch (srcclk)
 8004006:	697a      	ldr	r2, [r7, #20]
 8004008:	23c0      	movs	r3, #192	@ 0xc0
 800400a:	009b      	lsls	r3, r3, #2
 800400c:	429a      	cmp	r2, r3
 800400e:	d02d      	beq.n	800406c <HAL_RCCEx_GetPeriphCLKFreq+0x3e0>
 8004010:	697a      	ldr	r2, [r7, #20]
 8004012:	23c0      	movs	r3, #192	@ 0xc0
 8004014:	009b      	lsls	r3, r3, #2
 8004016:	429a      	cmp	r2, r3
 8004018:	d833      	bhi.n	8004082 <HAL_RCCEx_GetPeriphCLKFreq+0x3f6>
 800401a:	697a      	ldr	r2, [r7, #20]
 800401c:	2380      	movs	r3, #128	@ 0x80
 800401e:	009b      	lsls	r3, r3, #2
 8004020:	429a      	cmp	r2, r3
 8004022:	d017      	beq.n	8004054 <HAL_RCCEx_GetPeriphCLKFreq+0x3c8>
 8004024:	697a      	ldr	r2, [r7, #20]
 8004026:	2380      	movs	r3, #128	@ 0x80
 8004028:	009b      	lsls	r3, r3, #2
 800402a:	429a      	cmp	r2, r3
 800402c:	d829      	bhi.n	8004082 <HAL_RCCEx_GetPeriphCLKFreq+0x3f6>
 800402e:	697b      	ldr	r3, [r7, #20]
 8004030:	2b00      	cmp	r3, #0
 8004032:	d005      	beq.n	8004040 <HAL_RCCEx_GetPeriphCLKFreq+0x3b4>
 8004034:	697a      	ldr	r2, [r7, #20]
 8004036:	2380      	movs	r3, #128	@ 0x80
 8004038:	005b      	lsls	r3, r3, #1
 800403a:	429a      	cmp	r2, r3
 800403c:	d005      	beq.n	800404a <HAL_RCCEx_GetPeriphCLKFreq+0x3be>
            break;
 800403e:	e020      	b.n	8004082 <HAL_RCCEx_GetPeriphCLKFreq+0x3f6>
            frequency = HAL_RCC_GetPCLK1Freq();
 8004040:	f7ff faac 	bl	800359c <HAL_RCC_GetPCLK1Freq>
 8004044:	0003      	movs	r3, r0
 8004046:	61fb      	str	r3, [r7, #28]
            break;
 8004048:	e020      	b.n	800408c <HAL_RCCEx_GetPeriphCLKFreq+0x400>
            frequency = HAL_RCC_GetSysClockFreq();
 800404a:	f7ff fa01 	bl	8003450 <HAL_RCC_GetSysClockFreq>
 800404e:	0003      	movs	r3, r0
 8004050:	61fb      	str	r3, [r7, #28]
            break;
 8004052:	e01b      	b.n	800408c <HAL_RCCEx_GetPeriphCLKFreq+0x400>
            if (HAL_IS_BIT_SET(RCC->CR, RCC_CR_HSIRDY))
 8004054:	4baa      	ldr	r3, [pc, #680]	@ (8004300 <HAL_RCCEx_GetPeriphCLKFreq+0x674>)
 8004056:	681a      	ldr	r2, [r3, #0]
 8004058:	2380      	movs	r3, #128	@ 0x80
 800405a:	00db      	lsls	r3, r3, #3
 800405c:	401a      	ands	r2, r3
 800405e:	2380      	movs	r3, #128	@ 0x80
 8004060:	00db      	lsls	r3, r3, #3
 8004062:	429a      	cmp	r2, r3
 8004064:	d10f      	bne.n	8004086 <HAL_RCCEx_GetPeriphCLKFreq+0x3fa>
              frequency = HSI_VALUE;
 8004066:	4ba7      	ldr	r3, [pc, #668]	@ (8004304 <HAL_RCCEx_GetPeriphCLKFreq+0x678>)
 8004068:	61fb      	str	r3, [r7, #28]
            break;
 800406a:	e00c      	b.n	8004086 <HAL_RCCEx_GetPeriphCLKFreq+0x3fa>
            if (HAL_IS_BIT_SET(RCC->BDCR, RCC_BDCR_LSERDY))
 800406c:	4aa4      	ldr	r2, [pc, #656]	@ (8004300 <HAL_RCCEx_GetPeriphCLKFreq+0x674>)
 800406e:	2390      	movs	r3, #144	@ 0x90
 8004070:	58d3      	ldr	r3, [r2, r3]
 8004072:	2202      	movs	r2, #2
 8004074:	4013      	ands	r3, r2
 8004076:	2b02      	cmp	r3, #2
 8004078:	d107      	bne.n	800408a <HAL_RCCEx_GetPeriphCLKFreq+0x3fe>
              frequency = LSE_VALUE;
 800407a:	2380      	movs	r3, #128	@ 0x80
 800407c:	021b      	lsls	r3, r3, #8
 800407e:	61fb      	str	r3, [r7, #28]
            break;
 8004080:	e003      	b.n	800408a <HAL_RCCEx_GetPeriphCLKFreq+0x3fe>
            break;
 8004082:	46c0      	nop			@ (mov r8, r8)
 8004084:	e21c      	b.n	80044c0 <HAL_RCCEx_GetPeriphCLKFreq+0x834>
            break;
 8004086:	46c0      	nop			@ (mov r8, r8)
 8004088:	e21a      	b.n	80044c0 <HAL_RCCEx_GetPeriphCLKFreq+0x834>
            break;
 800408a:	46c0      	nop			@ (mov r8, r8)
        break;
 800408c:	e218      	b.n	80044c0 <HAL_RCCEx_GetPeriphCLKFreq+0x834>
        srcclk = __HAL_RCC_GET_ADC_SOURCE();
 800408e:	4a9c      	ldr	r2, [pc, #624]	@ (8004300 <HAL_RCCEx_GetPeriphCLKFreq+0x674>)
 8004090:	2388      	movs	r3, #136	@ 0x88
 8004092:	58d2      	ldr	r2, [r2, r3]
 8004094:	23c0      	movs	r3, #192	@ 0xc0
 8004096:	059b      	lsls	r3, r3, #22
 8004098:	4013      	ands	r3, r2
 800409a:	617b      	str	r3, [r7, #20]
        switch (srcclk)
 800409c:	697a      	ldr	r2, [r7, #20]
 800409e:	2380      	movs	r3, #128	@ 0x80
 80040a0:	059b      	lsls	r3, r3, #22
 80040a2:	429a      	cmp	r2, r3
 80040a4:	d012      	beq.n	80040cc <HAL_RCCEx_GetPeriphCLKFreq+0x440>
 80040a6:	697a      	ldr	r2, [r7, #20]
 80040a8:	2380      	movs	r3, #128	@ 0x80
 80040aa:	059b      	lsls	r3, r3, #22
 80040ac:	429a      	cmp	r2, r3
 80040ae:	d825      	bhi.n	80040fc <HAL_RCCEx_GetPeriphCLKFreq+0x470>
 80040b0:	697b      	ldr	r3, [r7, #20]
 80040b2:	2b00      	cmp	r3, #0
 80040b4:	d005      	beq.n	80040c2 <HAL_RCCEx_GetPeriphCLKFreq+0x436>
 80040b6:	697a      	ldr	r2, [r7, #20]
 80040b8:	2380      	movs	r3, #128	@ 0x80
 80040ba:	055b      	lsls	r3, r3, #21
 80040bc:	429a      	cmp	r2, r3
 80040be:	d014      	beq.n	80040ea <HAL_RCCEx_GetPeriphCLKFreq+0x45e>
            break;
 80040c0:	e01c      	b.n	80040fc <HAL_RCCEx_GetPeriphCLKFreq+0x470>
            frequency = HAL_RCC_GetSysClockFreq();
 80040c2:	f7ff f9c5 	bl	8003450 <HAL_RCC_GetSysClockFreq>
 80040c6:	0003      	movs	r3, r0
 80040c8:	61fb      	str	r3, [r7, #28]
            break;
 80040ca:	e018      	b.n	80040fe <HAL_RCCEx_GetPeriphCLKFreq+0x472>
            if (HAL_IS_BIT_SET(RCC->CR, RCC_CR_HSIRDY))
 80040cc:	4b8c      	ldr	r3, [pc, #560]	@ (8004300 <HAL_RCCEx_GetPeriphCLKFreq+0x674>)
 80040ce:	681a      	ldr	r2, [r3, #0]
 80040d0:	2380      	movs	r3, #128	@ 0x80
 80040d2:	00db      	lsls	r3, r3, #3
 80040d4:	401a      	ands	r2, r3
 80040d6:	2380      	movs	r3, #128	@ 0x80
 80040d8:	00db      	lsls	r3, r3, #3
 80040da:	429a      	cmp	r2, r3
 80040dc:	d102      	bne.n	80040e4 <HAL_RCCEx_GetPeriphCLKFreq+0x458>
              frequency = HSI_VALUE;
 80040de:	4b89      	ldr	r3, [pc, #548]	@ (8004304 <HAL_RCCEx_GetPeriphCLKFreq+0x678>)
 80040e0:	61fb      	str	r3, [r7, #28]
            break;
 80040e2:	e00c      	b.n	80040fe <HAL_RCCEx_GetPeriphCLKFreq+0x472>
              frequency = 0U;
 80040e4:	2300      	movs	r3, #0
 80040e6:	61fb      	str	r3, [r7, #28]
            break;
 80040e8:	e009      	b.n	80040fe <HAL_RCCEx_GetPeriphCLKFreq+0x472>
            HAL_RCCEx_GetPLLClockFreq(&pll_freq);
 80040ea:	2408      	movs	r4, #8
 80040ec:	193b      	adds	r3, r7, r4
 80040ee:	0018      	movs	r0, r3
 80040f0:	f000 f9f4 	bl	80044dc <HAL_RCCEx_GetPLLClockFreq>
            frequency = pll_freq.PLL_P_Frequency;
 80040f4:	193b      	adds	r3, r7, r4
 80040f6:	681b      	ldr	r3, [r3, #0]
 80040f8:	61fb      	str	r3, [r7, #28]
            break;
 80040fa:	e000      	b.n	80040fe <HAL_RCCEx_GetPeriphCLKFreq+0x472>
            break;
 80040fc:	46c0      	nop			@ (mov r8, r8)
        break;
 80040fe:	e1df      	b.n	80044c0 <HAL_RCCEx_GetPeriphCLKFreq+0x834>
        srcclk = __HAL_RCC_GET_I2C1_SOURCE();
 8004100:	4a7f      	ldr	r2, [pc, #508]	@ (8004300 <HAL_RCCEx_GetPeriphCLKFreq+0x674>)
 8004102:	2388      	movs	r3, #136	@ 0x88
 8004104:	58d2      	ldr	r2, [r2, r3]
 8004106:	23c0      	movs	r3, #192	@ 0xc0
 8004108:	019b      	lsls	r3, r3, #6
 800410a:	4013      	ands	r3, r2
 800410c:	617b      	str	r3, [r7, #20]
        switch (srcclk)
 800410e:	697a      	ldr	r2, [r7, #20]
 8004110:	2380      	movs	r3, #128	@ 0x80
 8004112:	019b      	lsls	r3, r3, #6
 8004114:	429a      	cmp	r2, r3
 8004116:	d017      	beq.n	8004148 <HAL_RCCEx_GetPeriphCLKFreq+0x4bc>
 8004118:	697a      	ldr	r2, [r7, #20]
 800411a:	2380      	movs	r3, #128	@ 0x80
 800411c:	019b      	lsls	r3, r3, #6
 800411e:	429a      	cmp	r2, r3
 8004120:	d81e      	bhi.n	8004160 <HAL_RCCEx_GetPeriphCLKFreq+0x4d4>
 8004122:	697b      	ldr	r3, [r7, #20]
 8004124:	2b00      	cmp	r3, #0
 8004126:	d005      	beq.n	8004134 <HAL_RCCEx_GetPeriphCLKFreq+0x4a8>
 8004128:	697a      	ldr	r2, [r7, #20]
 800412a:	2380      	movs	r3, #128	@ 0x80
 800412c:	015b      	lsls	r3, r3, #5
 800412e:	429a      	cmp	r2, r3
 8004130:	d005      	beq.n	800413e <HAL_RCCEx_GetPeriphCLKFreq+0x4b2>
            break;
 8004132:	e015      	b.n	8004160 <HAL_RCCEx_GetPeriphCLKFreq+0x4d4>
            frequency = HAL_RCC_GetPCLK1Freq();
 8004134:	f7ff fa32 	bl	800359c <HAL_RCC_GetPCLK1Freq>
 8004138:	0003      	movs	r3, r0
 800413a:	61fb      	str	r3, [r7, #28]
            break;
 800413c:	e013      	b.n	8004166 <HAL_RCCEx_GetPeriphCLKFreq+0x4da>
            frequency = HAL_RCC_GetSysClockFreq();
 800413e:	f7ff f987 	bl	8003450 <HAL_RCC_GetSysClockFreq>
 8004142:	0003      	movs	r3, r0
 8004144:	61fb      	str	r3, [r7, #28]
            break;
 8004146:	e00e      	b.n	8004166 <HAL_RCCEx_GetPeriphCLKFreq+0x4da>
            if (HAL_IS_BIT_SET(RCC->CR, RCC_CR_HSIRDY))
 8004148:	4b6d      	ldr	r3, [pc, #436]	@ (8004300 <HAL_RCCEx_GetPeriphCLKFreq+0x674>)
 800414a:	681a      	ldr	r2, [r3, #0]
 800414c:	2380      	movs	r3, #128	@ 0x80
 800414e:	00db      	lsls	r3, r3, #3
 8004150:	401a      	ands	r2, r3
 8004152:	2380      	movs	r3, #128	@ 0x80
 8004154:	00db      	lsls	r3, r3, #3
 8004156:	429a      	cmp	r2, r3
 8004158:	d104      	bne.n	8004164 <HAL_RCCEx_GetPeriphCLKFreq+0x4d8>
              frequency = HSI_VALUE;
 800415a:	4b6a      	ldr	r3, [pc, #424]	@ (8004304 <HAL_RCCEx_GetPeriphCLKFreq+0x678>)
 800415c:	61fb      	str	r3, [r7, #28]
            break;
 800415e:	e001      	b.n	8004164 <HAL_RCCEx_GetPeriphCLKFreq+0x4d8>
            break;
 8004160:	46c0      	nop			@ (mov r8, r8)
 8004162:	e1ad      	b.n	80044c0 <HAL_RCCEx_GetPeriphCLKFreq+0x834>
            break;
 8004164:	46c0      	nop			@ (mov r8, r8)
        break;
 8004166:	e1ab      	b.n	80044c0 <HAL_RCCEx_GetPeriphCLKFreq+0x834>
        srcclk = __HAL_RCC_GET_I2C3_SOURCE();
 8004168:	4a65      	ldr	r2, [pc, #404]	@ (8004300 <HAL_RCCEx_GetPeriphCLKFreq+0x674>)
 800416a:	2388      	movs	r3, #136	@ 0x88
 800416c:	58d2      	ldr	r2, [r2, r3]
 800416e:	23c0      	movs	r3, #192	@ 0xc0
 8004170:	029b      	lsls	r3, r3, #10
 8004172:	4013      	ands	r3, r2
 8004174:	617b      	str	r3, [r7, #20]
        switch (srcclk)
 8004176:	697a      	ldr	r2, [r7, #20]
 8004178:	2380      	movs	r3, #128	@ 0x80
 800417a:	029b      	lsls	r3, r3, #10
 800417c:	429a      	cmp	r2, r3
 800417e:	d017      	beq.n	80041b0 <HAL_RCCEx_GetPeriphCLKFreq+0x524>
 8004180:	697a      	ldr	r2, [r7, #20]
 8004182:	2380      	movs	r3, #128	@ 0x80
 8004184:	029b      	lsls	r3, r3, #10
 8004186:	429a      	cmp	r2, r3
 8004188:	d81e      	bhi.n	80041c8 <HAL_RCCEx_GetPeriphCLKFreq+0x53c>
 800418a:	697b      	ldr	r3, [r7, #20]
 800418c:	2b00      	cmp	r3, #0
 800418e:	d005      	beq.n	800419c <HAL_RCCEx_GetPeriphCLKFreq+0x510>
 8004190:	697a      	ldr	r2, [r7, #20]
 8004192:	2380      	movs	r3, #128	@ 0x80
 8004194:	025b      	lsls	r3, r3, #9
 8004196:	429a      	cmp	r2, r3
 8004198:	d005      	beq.n	80041a6 <HAL_RCCEx_GetPeriphCLKFreq+0x51a>
            break;
 800419a:	e015      	b.n	80041c8 <HAL_RCCEx_GetPeriphCLKFreq+0x53c>
            frequency = HAL_RCC_GetPCLK1Freq();
 800419c:	f7ff f9fe 	bl	800359c <HAL_RCC_GetPCLK1Freq>
 80041a0:	0003      	movs	r3, r0
 80041a2:	61fb      	str	r3, [r7, #28]
            break;
 80041a4:	e013      	b.n	80041ce <HAL_RCCEx_GetPeriphCLKFreq+0x542>
            frequency = HAL_RCC_GetSysClockFreq();
 80041a6:	f7ff f953 	bl	8003450 <HAL_RCC_GetSysClockFreq>
 80041aa:	0003      	movs	r3, r0
 80041ac:	61fb      	str	r3, [r7, #28]
            break;
 80041ae:	e00e      	b.n	80041ce <HAL_RCCEx_GetPeriphCLKFreq+0x542>
            if (HAL_IS_BIT_SET(RCC->CR, RCC_CR_HSIRDY))
 80041b0:	4b53      	ldr	r3, [pc, #332]	@ (8004300 <HAL_RCCEx_GetPeriphCLKFreq+0x674>)
 80041b2:	681a      	ldr	r2, [r3, #0]
 80041b4:	2380      	movs	r3, #128	@ 0x80
 80041b6:	00db      	lsls	r3, r3, #3
 80041b8:	401a      	ands	r2, r3
 80041ba:	2380      	movs	r3, #128	@ 0x80
 80041bc:	00db      	lsls	r3, r3, #3
 80041be:	429a      	cmp	r2, r3
 80041c0:	d104      	bne.n	80041cc <HAL_RCCEx_GetPeriphCLKFreq+0x540>
              frequency = HSI_VALUE;
 80041c2:	4b50      	ldr	r3, [pc, #320]	@ (8004304 <HAL_RCCEx_GetPeriphCLKFreq+0x678>)
 80041c4:	61fb      	str	r3, [r7, #28]
            break;
 80041c6:	e001      	b.n	80041cc <HAL_RCCEx_GetPeriphCLKFreq+0x540>
            break;
 80041c8:	46c0      	nop			@ (mov r8, r8)
 80041ca:	e179      	b.n	80044c0 <HAL_RCCEx_GetPeriphCLKFreq+0x834>
            break;
 80041cc:	46c0      	nop			@ (mov r8, r8)
        break;
 80041ce:	e177      	b.n	80044c0 <HAL_RCCEx_GetPeriphCLKFreq+0x834>
        srcclk = __HAL_RCC_GET_LPTIM1_SOURCE();
 80041d0:	4a4b      	ldr	r2, [pc, #300]	@ (8004300 <HAL_RCCEx_GetPeriphCLKFreq+0x674>)
 80041d2:	2388      	movs	r3, #136	@ 0x88
 80041d4:	58d2      	ldr	r2, [r2, r3]
 80041d6:	23c0      	movs	r3, #192	@ 0xc0
 80041d8:	031b      	lsls	r3, r3, #12
 80041da:	4013      	ands	r3, r2
 80041dc:	617b      	str	r3, [r7, #20]
        switch (srcclk)
 80041de:	697a      	ldr	r2, [r7, #20]
 80041e0:	23c0      	movs	r3, #192	@ 0xc0
 80041e2:	031b      	lsls	r3, r3, #12
 80041e4:	429a      	cmp	r2, r3
 80041e6:	d03d      	beq.n	8004264 <HAL_RCCEx_GetPeriphCLKFreq+0x5d8>
 80041e8:	697a      	ldr	r2, [r7, #20]
 80041ea:	23c0      	movs	r3, #192	@ 0xc0
 80041ec:	031b      	lsls	r3, r3, #12
 80041ee:	429a      	cmp	r2, r3
 80041f0:	d843      	bhi.n	800427a <HAL_RCCEx_GetPeriphCLKFreq+0x5ee>
 80041f2:	697a      	ldr	r2, [r7, #20]
 80041f4:	2380      	movs	r3, #128	@ 0x80
 80041f6:	031b      	lsls	r3, r3, #12
 80041f8:	429a      	cmp	r2, r3
 80041fa:	d027      	beq.n	800424c <HAL_RCCEx_GetPeriphCLKFreq+0x5c0>
 80041fc:	697a      	ldr	r2, [r7, #20]
 80041fe:	2380      	movs	r3, #128	@ 0x80
 8004200:	031b      	lsls	r3, r3, #12
 8004202:	429a      	cmp	r2, r3
 8004204:	d839      	bhi.n	800427a <HAL_RCCEx_GetPeriphCLKFreq+0x5ee>
 8004206:	697b      	ldr	r3, [r7, #20]
 8004208:	2b00      	cmp	r3, #0
 800420a:	d005      	beq.n	8004218 <HAL_RCCEx_GetPeriphCLKFreq+0x58c>
 800420c:	697a      	ldr	r2, [r7, #20]
 800420e:	2380      	movs	r3, #128	@ 0x80
 8004210:	02db      	lsls	r3, r3, #11
 8004212:	429a      	cmp	r2, r3
 8004214:	d005      	beq.n	8004222 <HAL_RCCEx_GetPeriphCLKFreq+0x596>
            break;
 8004216:	e030      	b.n	800427a <HAL_RCCEx_GetPeriphCLKFreq+0x5ee>
            frequency = HAL_RCC_GetPCLK1Freq();
 8004218:	f7ff f9c0 	bl	800359c <HAL_RCC_GetPCLK1Freq>
 800421c:	0003      	movs	r3, r0
 800421e:	61fb      	str	r3, [r7, #28]
            break;
 8004220:	e032      	b.n	8004288 <HAL_RCCEx_GetPeriphCLKFreq+0x5fc>
            if (HAL_IS_BIT_SET(RCC->CSR, RCC_CSR_LSIRDY))
 8004222:	4a37      	ldr	r2, [pc, #220]	@ (8004300 <HAL_RCCEx_GetPeriphCLKFreq+0x674>)
 8004224:	2394      	movs	r3, #148	@ 0x94
 8004226:	58d3      	ldr	r3, [r2, r3]
 8004228:	2202      	movs	r2, #2
 800422a:	4013      	ands	r3, r2
 800422c:	2b02      	cmp	r3, #2
 800422e:	d126      	bne.n	800427e <HAL_RCCEx_GetPeriphCLKFreq+0x5f2>
              if (HAL_IS_BIT_SET(RCC->CSR, RCC_CSR_LSIPREDIV))
 8004230:	4a33      	ldr	r2, [pc, #204]	@ (8004300 <HAL_RCCEx_GetPeriphCLKFreq+0x674>)
 8004232:	2394      	movs	r3, #148	@ 0x94
 8004234:	58d3      	ldr	r3, [r2, r3]
 8004236:	2204      	movs	r2, #4
 8004238:	4013      	ands	r3, r2
 800423a:	2b04      	cmp	r3, #4
 800423c:	d102      	bne.n	8004244 <HAL_RCCEx_GetPeriphCLKFreq+0x5b8>
                frequency = LSI_VALUE / 128U;
 800423e:	23fa      	movs	r3, #250	@ 0xfa
 8004240:	61fb      	str	r3, [r7, #28]
            break;
 8004242:	e01c      	b.n	800427e <HAL_RCCEx_GetPeriphCLKFreq+0x5f2>
                frequency = LSI_VALUE;
 8004244:	23fa      	movs	r3, #250	@ 0xfa
 8004246:	01db      	lsls	r3, r3, #7
 8004248:	61fb      	str	r3, [r7, #28]
            break;
 800424a:	e018      	b.n	800427e <HAL_RCCEx_GetPeriphCLKFreq+0x5f2>
            if (HAL_IS_BIT_SET(RCC->CR, RCC_CR_HSIRDY))
 800424c:	4b2c      	ldr	r3, [pc, #176]	@ (8004300 <HAL_RCCEx_GetPeriphCLKFreq+0x674>)
 800424e:	681a      	ldr	r2, [r3, #0]
 8004250:	2380      	movs	r3, #128	@ 0x80
 8004252:	00db      	lsls	r3, r3, #3
 8004254:	401a      	ands	r2, r3
 8004256:	2380      	movs	r3, #128	@ 0x80
 8004258:	00db      	lsls	r3, r3, #3
 800425a:	429a      	cmp	r2, r3
 800425c:	d111      	bne.n	8004282 <HAL_RCCEx_GetPeriphCLKFreq+0x5f6>
              frequency = HSI_VALUE;
 800425e:	4b29      	ldr	r3, [pc, #164]	@ (8004304 <HAL_RCCEx_GetPeriphCLKFreq+0x678>)
 8004260:	61fb      	str	r3, [r7, #28]
            break;
 8004262:	e00e      	b.n	8004282 <HAL_RCCEx_GetPeriphCLKFreq+0x5f6>
            if (HAL_IS_BIT_SET(RCC->BDCR, RCC_BDCR_LSERDY))
 8004264:	4a26      	ldr	r2, [pc, #152]	@ (8004300 <HAL_RCCEx_GetPeriphCLKFreq+0x674>)
 8004266:	2390      	movs	r3, #144	@ 0x90
 8004268:	58d3      	ldr	r3, [r2, r3]
 800426a:	2202      	movs	r2, #2
 800426c:	4013      	ands	r3, r2
 800426e:	2b02      	cmp	r3, #2
 8004270:	d109      	bne.n	8004286 <HAL_RCCEx_GetPeriphCLKFreq+0x5fa>
              frequency = LSE_VALUE;
 8004272:	2380      	movs	r3, #128	@ 0x80
 8004274:	021b      	lsls	r3, r3, #8
 8004276:	61fb      	str	r3, [r7, #28]
            break;
 8004278:	e005      	b.n	8004286 <HAL_RCCEx_GetPeriphCLKFreq+0x5fa>
            break;
 800427a:	46c0      	nop			@ (mov r8, r8)
 800427c:	e120      	b.n	80044c0 <HAL_RCCEx_GetPeriphCLKFreq+0x834>
            break;
 800427e:	46c0      	nop			@ (mov r8, r8)
 8004280:	e11e      	b.n	80044c0 <HAL_RCCEx_GetPeriphCLKFreq+0x834>
            break;
 8004282:	46c0      	nop			@ (mov r8, r8)
 8004284:	e11c      	b.n	80044c0 <HAL_RCCEx_GetPeriphCLKFreq+0x834>
            break;
 8004286:	46c0      	nop			@ (mov r8, r8)
        break;
 8004288:	e11a      	b.n	80044c0 <HAL_RCCEx_GetPeriphCLKFreq+0x834>
        srcclk = __HAL_RCC_GET_LPTIM2_SOURCE();
 800428a:	4a1d      	ldr	r2, [pc, #116]	@ (8004300 <HAL_RCCEx_GetPeriphCLKFreq+0x674>)
 800428c:	2388      	movs	r3, #136	@ 0x88
 800428e:	58d2      	ldr	r2, [r2, r3]
 8004290:	23c0      	movs	r3, #192	@ 0xc0
 8004292:	039b      	lsls	r3, r3, #14
 8004294:	4013      	ands	r3, r2
 8004296:	617b      	str	r3, [r7, #20]
        switch (srcclk)
 8004298:	697a      	ldr	r2, [r7, #20]
 800429a:	23c0      	movs	r3, #192	@ 0xc0
 800429c:	039b      	lsls	r3, r3, #14
 800429e:	429a      	cmp	r2, r3
 80042a0:	d042      	beq.n	8004328 <HAL_RCCEx_GetPeriphCLKFreq+0x69c>
 80042a2:	697a      	ldr	r2, [r7, #20]
 80042a4:	23c0      	movs	r3, #192	@ 0xc0
 80042a6:	039b      	lsls	r3, r3, #14
 80042a8:	429a      	cmp	r2, r3
 80042aa:	d848      	bhi.n	800433e <HAL_RCCEx_GetPeriphCLKFreq+0x6b2>
 80042ac:	697a      	ldr	r2, [r7, #20]
 80042ae:	2380      	movs	r3, #128	@ 0x80
 80042b0:	039b      	lsls	r3, r3, #14
 80042b2:	429a      	cmp	r2, r3
 80042b4:	d02c      	beq.n	8004310 <HAL_RCCEx_GetPeriphCLKFreq+0x684>
 80042b6:	697a      	ldr	r2, [r7, #20]
 80042b8:	2380      	movs	r3, #128	@ 0x80
 80042ba:	039b      	lsls	r3, r3, #14
 80042bc:	429a      	cmp	r2, r3
 80042be:	d83e      	bhi.n	800433e <HAL_RCCEx_GetPeriphCLKFreq+0x6b2>
 80042c0:	697b      	ldr	r3, [r7, #20]
 80042c2:	2b00      	cmp	r3, #0
 80042c4:	d005      	beq.n	80042d2 <HAL_RCCEx_GetPeriphCLKFreq+0x646>
 80042c6:	697a      	ldr	r2, [r7, #20]
 80042c8:	2380      	movs	r3, #128	@ 0x80
 80042ca:	035b      	lsls	r3, r3, #13
 80042cc:	429a      	cmp	r2, r3
 80042ce:	d005      	beq.n	80042dc <HAL_RCCEx_GetPeriphCLKFreq+0x650>
            break;
 80042d0:	e035      	b.n	800433e <HAL_RCCEx_GetPeriphCLKFreq+0x6b2>
            frequency = HAL_RCC_GetPCLK1Freq();
 80042d2:	f7ff f963 	bl	800359c <HAL_RCC_GetPCLK1Freq>
 80042d6:	0003      	movs	r3, r0
 80042d8:	61fb      	str	r3, [r7, #28]
            break;
 80042da:	e037      	b.n	800434c <HAL_RCCEx_GetPeriphCLKFreq+0x6c0>
            if (HAL_IS_BIT_SET(RCC->CSR, RCC_CSR_LSIRDY))
 80042dc:	4a08      	ldr	r2, [pc, #32]	@ (8004300 <HAL_RCCEx_GetPeriphCLKFreq+0x674>)
 80042de:	2394      	movs	r3, #148	@ 0x94
 80042e0:	58d3      	ldr	r3, [r2, r3]
 80042e2:	2202      	movs	r2, #2
 80042e4:	4013      	ands	r3, r2
 80042e6:	2b02      	cmp	r3, #2
 80042e8:	d12b      	bne.n	8004342 <HAL_RCCEx_GetPeriphCLKFreq+0x6b6>
              if (HAL_IS_BIT_SET(RCC->CSR, RCC_CSR_LSIPREDIV))
 80042ea:	4a05      	ldr	r2, [pc, #20]	@ (8004300 <HAL_RCCEx_GetPeriphCLKFreq+0x674>)
 80042ec:	2394      	movs	r3, #148	@ 0x94
 80042ee:	58d3      	ldr	r3, [r2, r3]
 80042f0:	2204      	movs	r2, #4
 80042f2:	4013      	ands	r3, r2
 80042f4:	2b04      	cmp	r3, #4
 80042f6:	d107      	bne.n	8004308 <HAL_RCCEx_GetPeriphCLKFreq+0x67c>
                frequency = LSI_VALUE / 128U;
 80042f8:	23fa      	movs	r3, #250	@ 0xfa
 80042fa:	61fb      	str	r3, [r7, #28]
            break;
 80042fc:	e021      	b.n	8004342 <HAL_RCCEx_GetPeriphCLKFreq+0x6b6>
 80042fe:	46c0      	nop			@ (mov r8, r8)
 8004300:	40021000 	.word	0x40021000
 8004304:	00f42400 	.word	0x00f42400
                frequency = LSI_VALUE;
 8004308:	23fa      	movs	r3, #250	@ 0xfa
 800430a:	01db      	lsls	r3, r3, #7
 800430c:	61fb      	str	r3, [r7, #28]
            break;
 800430e:	e018      	b.n	8004342 <HAL_RCCEx_GetPeriphCLKFreq+0x6b6>
            if (HAL_IS_BIT_SET(RCC->CR, RCC_CR_HSIRDY))
 8004310:	4b6e      	ldr	r3, [pc, #440]	@ (80044cc <HAL_RCCEx_GetPeriphCLKFreq+0x840>)
 8004312:	681a      	ldr	r2, [r3, #0]
 8004314:	2380      	movs	r3, #128	@ 0x80
 8004316:	00db      	lsls	r3, r3, #3
 8004318:	401a      	ands	r2, r3
 800431a:	2380      	movs	r3, #128	@ 0x80
 800431c:	00db      	lsls	r3, r3, #3
 800431e:	429a      	cmp	r2, r3
 8004320:	d111      	bne.n	8004346 <HAL_RCCEx_GetPeriphCLKFreq+0x6ba>
              frequency = HSI_VALUE;
 8004322:	4b6b      	ldr	r3, [pc, #428]	@ (80044d0 <HAL_RCCEx_GetPeriphCLKFreq+0x844>)
 8004324:	61fb      	str	r3, [r7, #28]
            break;
 8004326:	e00e      	b.n	8004346 <HAL_RCCEx_GetPeriphCLKFreq+0x6ba>
            if (HAL_IS_BIT_SET(RCC->BDCR, RCC_BDCR_LSERDY))
 8004328:	4a68      	ldr	r2, [pc, #416]	@ (80044cc <HAL_RCCEx_GetPeriphCLKFreq+0x840>)
 800432a:	2390      	movs	r3, #144	@ 0x90
 800432c:	58d3      	ldr	r3, [r2, r3]
 800432e:	2202      	movs	r2, #2
 8004330:	4013      	ands	r3, r2
 8004332:	2b02      	cmp	r3, #2
 8004334:	d109      	bne.n	800434a <HAL_RCCEx_GetPeriphCLKFreq+0x6be>
              frequency = LSE_VALUE;
 8004336:	2380      	movs	r3, #128	@ 0x80
 8004338:	021b      	lsls	r3, r3, #8
 800433a:	61fb      	str	r3, [r7, #28]
            break;
 800433c:	e005      	b.n	800434a <HAL_RCCEx_GetPeriphCLKFreq+0x6be>
            break;
 800433e:	46c0      	nop			@ (mov r8, r8)
 8004340:	e0be      	b.n	80044c0 <HAL_RCCEx_GetPeriphCLKFreq+0x834>
            break;
 8004342:	46c0      	nop			@ (mov r8, r8)
 8004344:	e0bc      	b.n	80044c0 <HAL_RCCEx_GetPeriphCLKFreq+0x834>
            break;
 8004346:	46c0      	nop			@ (mov r8, r8)
 8004348:	e0ba      	b.n	80044c0 <HAL_RCCEx_GetPeriphCLKFreq+0x834>
            break;
 800434a:	46c0      	nop			@ (mov r8, r8)
        break;
 800434c:	e0b8      	b.n	80044c0 <HAL_RCCEx_GetPeriphCLKFreq+0x834>
        srcclk = __HAL_RCC_GET_TIM1_SOURCE();
 800434e:	4a5f      	ldr	r2, [pc, #380]	@ (80044cc <HAL_RCCEx_GetPeriphCLKFreq+0x840>)
 8004350:	2388      	movs	r3, #136	@ 0x88
 8004352:	58d2      	ldr	r2, [r2, r3]
 8004354:	2380      	movs	r3, #128	@ 0x80
 8004356:	045b      	lsls	r3, r3, #17
 8004358:	4013      	ands	r3, r2
 800435a:	617b      	str	r3, [r7, #20]
        switch (srcclk)
 800435c:	697b      	ldr	r3, [r7, #20]
 800435e:	2b00      	cmp	r3, #0
 8004360:	d005      	beq.n	800436e <HAL_RCCEx_GetPeriphCLKFreq+0x6e2>
 8004362:	697a      	ldr	r2, [r7, #20]
 8004364:	2380      	movs	r3, #128	@ 0x80
 8004366:	045b      	lsls	r3, r3, #17
 8004368:	429a      	cmp	r2, r3
 800436a:	d011      	beq.n	8004390 <HAL_RCCEx_GetPeriphCLKFreq+0x704>
            break;
 800436c:	e019      	b.n	80043a2 <HAL_RCCEx_GetPeriphCLKFreq+0x716>
            if ((READ_BIT(RCC->CFGR, RCC_CFGR_PPRE) == RCC_HCLK_DIV1))
 800436e:	4b57      	ldr	r3, [pc, #348]	@ (80044cc <HAL_RCCEx_GetPeriphCLKFreq+0x840>)
 8004370:	689a      	ldr	r2, [r3, #8]
 8004372:	23e0      	movs	r3, #224	@ 0xe0
 8004374:	01db      	lsls	r3, r3, #7
 8004376:	4013      	ands	r3, r2
 8004378:	d104      	bne.n	8004384 <HAL_RCCEx_GetPeriphCLKFreq+0x6f8>
              frequency = HAL_RCC_GetPCLK1Freq();
 800437a:	f7ff f90f 	bl	800359c <HAL_RCC_GetPCLK1Freq>
 800437e:	0003      	movs	r3, r0
 8004380:	61fb      	str	r3, [r7, #28]
            break;
 8004382:	e00e      	b.n	80043a2 <HAL_RCCEx_GetPeriphCLKFreq+0x716>
              frequency = (HAL_RCC_GetPCLK1Freq() * 2U);
 8004384:	f7ff f90a 	bl	800359c <HAL_RCC_GetPCLK1Freq>
 8004388:	0003      	movs	r3, r0
 800438a:	005b      	lsls	r3, r3, #1
 800438c:	61fb      	str	r3, [r7, #28]
            break;
 800438e:	e008      	b.n	80043a2 <HAL_RCCEx_GetPeriphCLKFreq+0x716>
            HAL_RCCEx_GetPLLClockFreq(&pll_freq);
 8004390:	2408      	movs	r4, #8
 8004392:	193b      	adds	r3, r7, r4
 8004394:	0018      	movs	r0, r3
 8004396:	f000 f8a1 	bl	80044dc <HAL_RCCEx_GetPLLClockFreq>
            frequency = pll_freq.PLL_Q_Frequency;
 800439a:	193b      	adds	r3, r7, r4
 800439c:	685b      	ldr	r3, [r3, #4]
 800439e:	61fb      	str	r3, [r7, #28]
            break;
 80043a0:	46c0      	nop			@ (mov r8, r8)
        break;
 80043a2:	e08d      	b.n	80044c0 <HAL_RCCEx_GetPeriphCLKFreq+0x834>
        srcclk = __HAL_RCC_GET_TIM15_SOURCE();
 80043a4:	4a49      	ldr	r2, [pc, #292]	@ (80044cc <HAL_RCCEx_GetPeriphCLKFreq+0x840>)
 80043a6:	2388      	movs	r3, #136	@ 0x88
 80043a8:	58d2      	ldr	r2, [r2, r3]
 80043aa:	2380      	movs	r3, #128	@ 0x80
 80043ac:	049b      	lsls	r3, r3, #18
 80043ae:	4013      	ands	r3, r2
 80043b0:	617b      	str	r3, [r7, #20]
        switch (srcclk)
 80043b2:	697b      	ldr	r3, [r7, #20]
 80043b4:	2b00      	cmp	r3, #0
 80043b6:	d005      	beq.n	80043c4 <HAL_RCCEx_GetPeriphCLKFreq+0x738>
 80043b8:	697a      	ldr	r2, [r7, #20]
 80043ba:	2380      	movs	r3, #128	@ 0x80
 80043bc:	049b      	lsls	r3, r3, #18
 80043be:	429a      	cmp	r2, r3
 80043c0:	d011      	beq.n	80043e6 <HAL_RCCEx_GetPeriphCLKFreq+0x75a>
            break;
 80043c2:	e019      	b.n	80043f8 <HAL_RCCEx_GetPeriphCLKFreq+0x76c>
            if ((READ_BIT(RCC->CFGR, RCC_CFGR_PPRE) == RCC_HCLK_DIV1))
 80043c4:	4b41      	ldr	r3, [pc, #260]	@ (80044cc <HAL_RCCEx_GetPeriphCLKFreq+0x840>)
 80043c6:	689a      	ldr	r2, [r3, #8]
 80043c8:	23e0      	movs	r3, #224	@ 0xe0
 80043ca:	01db      	lsls	r3, r3, #7
 80043cc:	4013      	ands	r3, r2
 80043ce:	d104      	bne.n	80043da <HAL_RCCEx_GetPeriphCLKFreq+0x74e>
              frequency = HAL_RCC_GetPCLK1Freq();
 80043d0:	f7ff f8e4 	bl	800359c <HAL_RCC_GetPCLK1Freq>
 80043d4:	0003      	movs	r3, r0
 80043d6:	61fb      	str	r3, [r7, #28]
            break;
 80043d8:	e00e      	b.n	80043f8 <HAL_RCCEx_GetPeriphCLKFreq+0x76c>
              frequency = (HAL_RCC_GetPCLK1Freq() * 2U);
 80043da:	f7ff f8df 	bl	800359c <HAL_RCC_GetPCLK1Freq>
 80043de:	0003      	movs	r3, r0
 80043e0:	005b      	lsls	r3, r3, #1
 80043e2:	61fb      	str	r3, [r7, #28]
            break;
 80043e4:	e008      	b.n	80043f8 <HAL_RCCEx_GetPeriphCLKFreq+0x76c>
            HAL_RCCEx_GetPLLClockFreq(&pll_freq);
 80043e6:	2408      	movs	r4, #8
 80043e8:	193b      	adds	r3, r7, r4
 80043ea:	0018      	movs	r0, r3
 80043ec:	f000 f876 	bl	80044dc <HAL_RCCEx_GetPLLClockFreq>
            frequency = pll_freq.PLL_Q_Frequency;
 80043f0:	193b      	adds	r3, r7, r4
 80043f2:	685b      	ldr	r3, [r3, #4]
 80043f4:	61fb      	str	r3, [r7, #28]
            break;
 80043f6:	46c0      	nop			@ (mov r8, r8)
        break;
 80043f8:	e062      	b.n	80044c0 <HAL_RCCEx_GetPeriphCLKFreq+0x834>
        srcclk = __HAL_RCC_GET_RNG_SOURCE();
 80043fa:	4a34      	ldr	r2, [pc, #208]	@ (80044cc <HAL_RCCEx_GetPeriphCLKFreq+0x840>)
 80043fc:	2388      	movs	r3, #136	@ 0x88
 80043fe:	58d2      	ldr	r2, [r2, r3]
 8004400:	23c0      	movs	r3, #192	@ 0xc0
 8004402:	051b      	lsls	r3, r3, #20
 8004404:	4013      	ands	r3, r2
 8004406:	617b      	str	r3, [r7, #20]
        switch (srcclk)
 8004408:	697a      	ldr	r2, [r7, #20]
 800440a:	23c0      	movs	r3, #192	@ 0xc0
 800440c:	051b      	lsls	r3, r3, #20
 800440e:	429a      	cmp	r2, r3
 8004410:	d017      	beq.n	8004442 <HAL_RCCEx_GetPeriphCLKFreq+0x7b6>
 8004412:	697a      	ldr	r2, [r7, #20]
 8004414:	23c0      	movs	r3, #192	@ 0xc0
 8004416:	051b      	lsls	r3, r3, #20
 8004418:	429a      	cmp	r2, r3
 800441a:	d844      	bhi.n	80044a6 <HAL_RCCEx_GetPeriphCLKFreq+0x81a>
 800441c:	697a      	ldr	r2, [r7, #20]
 800441e:	2380      	movs	r3, #128	@ 0x80
 8004420:	051b      	lsls	r3, r3, #20
 8004422:	429a      	cmp	r2, r3
 8004424:	d033      	beq.n	800448e <HAL_RCCEx_GetPeriphCLKFreq+0x802>
 8004426:	697a      	ldr	r2, [r7, #20]
 8004428:	2380      	movs	r3, #128	@ 0x80
 800442a:	051b      	lsls	r3, r3, #20
 800442c:	429a      	cmp	r2, r3
 800442e:	d83a      	bhi.n	80044a6 <HAL_RCCEx_GetPeriphCLKFreq+0x81a>
 8004430:	697b      	ldr	r3, [r7, #20]
 8004432:	2b00      	cmp	r3, #0
 8004434:	d034      	beq.n	80044a0 <HAL_RCCEx_GetPeriphCLKFreq+0x814>
 8004436:	697a      	ldr	r2, [r7, #20]
 8004438:	2380      	movs	r3, #128	@ 0x80
 800443a:	04db      	lsls	r3, r3, #19
 800443c:	429a      	cmp	r2, r3
 800443e:	d003      	beq.n	8004448 <HAL_RCCEx_GetPeriphCLKFreq+0x7bc>
            break;
 8004440:	e031      	b.n	80044a6 <HAL_RCCEx_GetPeriphCLKFreq+0x81a>
            frequency = HSI48_VALUE;
 8004442:	4b24      	ldr	r3, [pc, #144]	@ (80044d4 <HAL_RCCEx_GetPeriphCLKFreq+0x848>)
 8004444:	61fb      	str	r3, [r7, #28]
            break;
 8004446:	e031      	b.n	80044ac <HAL_RCCEx_GetPeriphCLKFreq+0x820>
            if (HAL_IS_BIT_SET(RCC->CR, RCC_CR_MSIRDY))
 8004448:	4b20      	ldr	r3, [pc, #128]	@ (80044cc <HAL_RCCEx_GetPeriphCLKFreq+0x840>)
 800444a:	681b      	ldr	r3, [r3, #0]
 800444c:	2202      	movs	r2, #2
 800444e:	4013      	ands	r3, r2
 8004450:	2b02      	cmp	r3, #2
 8004452:	d12a      	bne.n	80044aa <HAL_RCCEx_GetPeriphCLKFreq+0x81e>
              msirange = (__HAL_RCC_GET_MSI_RANGE() >> 4U);
 8004454:	4b1d      	ldr	r3, [pc, #116]	@ (80044cc <HAL_RCCEx_GetPeriphCLKFreq+0x840>)
 8004456:	681b      	ldr	r3, [r3, #0]
 8004458:	2208      	movs	r2, #8
 800445a:	4013      	ands	r3, r2
 800445c:	d005      	beq.n	800446a <HAL_RCCEx_GetPeriphCLKFreq+0x7de>
 800445e:	4b1b      	ldr	r3, [pc, #108]	@ (80044cc <HAL_RCCEx_GetPeriphCLKFreq+0x840>)
 8004460:	681b      	ldr	r3, [r3, #0]
 8004462:	091b      	lsrs	r3, r3, #4
 8004464:	220f      	movs	r2, #15
 8004466:	4013      	ands	r3, r2
 8004468:	e005      	b.n	8004476 <HAL_RCCEx_GetPeriphCLKFreq+0x7ea>
 800446a:	4a18      	ldr	r2, [pc, #96]	@ (80044cc <HAL_RCCEx_GetPeriphCLKFreq+0x840>)
 800446c:	2394      	movs	r3, #148	@ 0x94
 800446e:	58d3      	ldr	r3, [r2, r3]
 8004470:	0a1b      	lsrs	r3, r3, #8
 8004472:	220f      	movs	r2, #15
 8004474:	4013      	ands	r3, r2
 8004476:	61bb      	str	r3, [r7, #24]
              if (msirange > 11U)
 8004478:	69bb      	ldr	r3, [r7, #24]
 800447a:	2b0b      	cmp	r3, #11
 800447c:	d901      	bls.n	8004482 <HAL_RCCEx_GetPeriphCLKFreq+0x7f6>
                msirange = 11U;
 800447e:	230b      	movs	r3, #11
 8004480:	61bb      	str	r3, [r7, #24]
              frequency = MSIRangeTable[msirange];
 8004482:	4b15      	ldr	r3, [pc, #84]	@ (80044d8 <HAL_RCCEx_GetPeriphCLKFreq+0x84c>)
 8004484:	69ba      	ldr	r2, [r7, #24]
 8004486:	0092      	lsls	r2, r2, #2
 8004488:	58d3      	ldr	r3, [r2, r3]
 800448a:	61fb      	str	r3, [r7, #28]
            break;
 800448c:	e00d      	b.n	80044aa <HAL_RCCEx_GetPeriphCLKFreq+0x81e>
            HAL_RCCEx_GetPLLClockFreq(&pll_freq);
 800448e:	2408      	movs	r4, #8
 8004490:	193b      	adds	r3, r7, r4
 8004492:	0018      	movs	r0, r3
 8004494:	f000 f822 	bl	80044dc <HAL_RCCEx_GetPLLClockFreq>
            frequency = pll_freq.PLL_Q_Frequency;
 8004498:	193b      	adds	r3, r7, r4
 800449a:	685b      	ldr	r3, [r3, #4]
 800449c:	61fb      	str	r3, [r7, #28]
            break;
 800449e:	e005      	b.n	80044ac <HAL_RCCEx_GetPeriphCLKFreq+0x820>
            frequency = 0U;
 80044a0:	2300      	movs	r3, #0
 80044a2:	61fb      	str	r3, [r7, #28]
            break;
 80044a4:	e002      	b.n	80044ac <HAL_RCCEx_GetPeriphCLKFreq+0x820>
            break;
 80044a6:	46c0      	nop			@ (mov r8, r8)
 80044a8:	e00a      	b.n	80044c0 <HAL_RCCEx_GetPeriphCLKFreq+0x834>
            break;
 80044aa:	46c0      	nop			@ (mov r8, r8)
        break;
 80044ac:	e008      	b.n	80044c0 <HAL_RCCEx_GetPeriphCLKFreq+0x834>
        break;
 80044ae:	46c0      	nop			@ (mov r8, r8)
 80044b0:	e006      	b.n	80044c0 <HAL_RCCEx_GetPeriphCLKFreq+0x834>
        break;
 80044b2:	46c0      	nop			@ (mov r8, r8)
 80044b4:	e004      	b.n	80044c0 <HAL_RCCEx_GetPeriphCLKFreq+0x834>
        break;
 80044b6:	46c0      	nop			@ (mov r8, r8)
 80044b8:	e002      	b.n	80044c0 <HAL_RCCEx_GetPeriphCLKFreq+0x834>
        break;
 80044ba:	46c0      	nop			@ (mov r8, r8)
 80044bc:	e000      	b.n	80044c0 <HAL_RCCEx_GetPeriphCLKFreq+0x834>
        break;
 80044be:	46c0      	nop			@ (mov r8, r8)
    }
  }
  return (frequency);
 80044c0:	69fb      	ldr	r3, [r7, #28]
}
 80044c2:	0018      	movs	r0, r3
 80044c4:	46bd      	mov	sp, r7
 80044c6:	b009      	add	sp, #36	@ 0x24
 80044c8:	bd90      	pop	{r4, r7, pc}
 80044ca:	46c0      	nop			@ (mov r8, r8)
 80044cc:	40021000 	.word	0x40021000
 80044d0:	00f42400 	.word	0x00f42400
 80044d4:	02dc6c00 	.word	0x02dc6c00
 80044d8:	08005ec8 	.word	0x08005ec8

080044dc <HAL_RCCEx_GetPLLClockFreq>:
  * @param  PLL_Clocks structure.
  * @retval None
  */

void HAL_RCCEx_GetPLLClockFreq(PLL_ClocksTypeDef *PLL_Clocks)
{
 80044dc:	b580      	push	{r7, lr}
 80044de:	b088      	sub	sp, #32
 80044e0:	af00      	add	r7, sp, #0
 80044e2:	6078      	str	r0, [r7, #4]
  uint32_t pllm;
  uint32_t plln;
  uint32_t pllvco;
  uint32_t msirange;

  plln = ((RCC->PLLCFGR & RCC_PLLCFGR_PLLN) >> RCC_PLLCFGR_PLLN_Pos);
 80044e4:	4b58      	ldr	r3, [pc, #352]	@ (8004648 <HAL_RCCEx_GetPLLClockFreq+0x16c>)
 80044e6:	68db      	ldr	r3, [r3, #12]
 80044e8:	0a1b      	lsrs	r3, r3, #8
 80044ea:	227f      	movs	r2, #127	@ 0x7f
 80044ec:	4013      	ands	r3, r2
 80044ee:	617b      	str	r3, [r7, #20]
  pllsource = (RCC->PLLCFGR & RCC_PLLCFGR_PLLSRC);
 80044f0:	4b55      	ldr	r3, [pc, #340]	@ (8004648 <HAL_RCCEx_GetPLLClockFreq+0x16c>)
 80044f2:	68db      	ldr	r3, [r3, #12]
 80044f4:	2203      	movs	r2, #3
 80044f6:	4013      	ands	r3, r2
 80044f8:	613b      	str	r3, [r7, #16]
  pllm = ((RCC->PLLCFGR & RCC_PLLCFGR_PLLM) >> RCC_PLLCFGR_PLLM_Pos) + 1U;
 80044fa:	4b53      	ldr	r3, [pc, #332]	@ (8004648 <HAL_RCCEx_GetPLLClockFreq+0x16c>)
 80044fc:	68db      	ldr	r3, [r3, #12]
 80044fe:	091b      	lsrs	r3, r3, #4
 8004500:	2207      	movs	r2, #7
 8004502:	4013      	ands	r3, r2
 8004504:	3301      	adds	r3, #1
 8004506:	60fb      	str	r3, [r7, #12]
  msirange = (__HAL_RCC_GET_MSI_RANGE() >> 4U);
 8004508:	4b4f      	ldr	r3, [pc, #316]	@ (8004648 <HAL_RCCEx_GetPLLClockFreq+0x16c>)
 800450a:	681b      	ldr	r3, [r3, #0]
 800450c:	2208      	movs	r2, #8
 800450e:	4013      	ands	r3, r2
 8004510:	d005      	beq.n	800451e <HAL_RCCEx_GetPLLClockFreq+0x42>
 8004512:	4b4d      	ldr	r3, [pc, #308]	@ (8004648 <HAL_RCCEx_GetPLLClockFreq+0x16c>)
 8004514:	681b      	ldr	r3, [r3, #0]
 8004516:	091b      	lsrs	r3, r3, #4
 8004518:	220f      	movs	r2, #15
 800451a:	4013      	ands	r3, r2
 800451c:	e005      	b.n	800452a <HAL_RCCEx_GetPLLClockFreq+0x4e>
 800451e:	4a4a      	ldr	r2, [pc, #296]	@ (8004648 <HAL_RCCEx_GetPLLClockFreq+0x16c>)
 8004520:	2394      	movs	r3, #148	@ 0x94
 8004522:	58d3      	ldr	r3, [r2, r3]
 8004524:	0a1b      	lsrs	r3, r3, #8
 8004526:	220f      	movs	r2, #15
 8004528:	4013      	ands	r3, r2
 800452a:	61bb      	str	r3, [r7, #24]
  if (msirange > 11U)
 800452c:	69bb      	ldr	r3, [r7, #24]
 800452e:	2b0b      	cmp	r3, #11
 8004530:	d901      	bls.n	8004536 <HAL_RCCEx_GetPLLClockFreq+0x5a>
  {
    msirange = 11U;
 8004532:	230b      	movs	r3, #11
 8004534:	61bb      	str	r3, [r7, #24]
  }
  switch (pllsource)
 8004536:	693b      	ldr	r3, [r7, #16]
 8004538:	2b03      	cmp	r3, #3
 800453a:	d020      	beq.n	800457e <HAL_RCCEx_GetPLLClockFreq+0xa2>
 800453c:	693b      	ldr	r3, [r7, #16]
 800453e:	2b03      	cmp	r3, #3
 8004540:	d827      	bhi.n	8004592 <HAL_RCCEx_GetPLLClockFreq+0xb6>
 8004542:	693b      	ldr	r3, [r7, #16]
 8004544:	2b01      	cmp	r3, #1
 8004546:	d00c      	beq.n	8004562 <HAL_RCCEx_GetPLLClockFreq+0x86>
 8004548:	693b      	ldr	r3, [r7, #16]
 800454a:	2b02      	cmp	r3, #2
 800454c:	d121      	bne.n	8004592 <HAL_RCCEx_GetPLLClockFreq+0xb6>
  {

    case RCC_PLLSOURCE_HSI:  /* HSI used as PLL clock source */
      pllvco = (HSI_VALUE / pllm) * plln;
 800454e:	68f9      	ldr	r1, [r7, #12]
 8004550:	483e      	ldr	r0, [pc, #248]	@ (800464c <HAL_RCCEx_GetPLLClockFreq+0x170>)
 8004552:	f7fb fdeb 	bl	800012c <__udivsi3>
 8004556:	0003      	movs	r3, r0
 8004558:	001a      	movs	r2, r3
 800455a:	697b      	ldr	r3, [r7, #20]
 800455c:	4353      	muls	r3, r2
 800455e:	61fb      	str	r3, [r7, #28]
      break;
 8004560:	e025      	b.n	80045ae <HAL_RCCEx_GetPLLClockFreq+0xd2>

    case RCC_PLLSOURCE_MSI:  /* MSI used as PLL clock source */
      pllvco = ((MSIRangeTable[msirange] / pllm) * plln);
 8004562:	4b3b      	ldr	r3, [pc, #236]	@ (8004650 <HAL_RCCEx_GetPLLClockFreq+0x174>)
 8004564:	69ba      	ldr	r2, [r7, #24]
 8004566:	0092      	lsls	r2, r2, #2
 8004568:	58d3      	ldr	r3, [r2, r3]
 800456a:	68f9      	ldr	r1, [r7, #12]
 800456c:	0018      	movs	r0, r3
 800456e:	f7fb fddd 	bl	800012c <__udivsi3>
 8004572:	0003      	movs	r3, r0
 8004574:	001a      	movs	r2, r3
 8004576:	697b      	ldr	r3, [r7, #20]
 8004578:	4353      	muls	r3, r2
 800457a:	61fb      	str	r3, [r7, #28]
      break;
 800457c:	e017      	b.n	80045ae <HAL_RCCEx_GetPLLClockFreq+0xd2>

    case RCC_PLLSOURCE_HSE:  /* HSE used as PLL clock source */
      pllvco = (HSE_VALUE / pllm) * plln;
 800457e:	68f9      	ldr	r1, [r7, #12]
 8004580:	4834      	ldr	r0, [pc, #208]	@ (8004654 <HAL_RCCEx_GetPLLClockFreq+0x178>)
 8004582:	f7fb fdd3 	bl	800012c <__udivsi3>
 8004586:	0003      	movs	r3, r0
 8004588:	001a      	movs	r2, r3
 800458a:	697b      	ldr	r3, [r7, #20]
 800458c:	4353      	muls	r3, r2
 800458e:	61fb      	str	r3, [r7, #28]
      break;
 8004590:	e00d      	b.n	80045ae <HAL_RCCEx_GetPLLClockFreq+0xd2>

    default:
      pllvco = ((MSIRangeTable[msirange] / pllm) * plln);
 8004592:	4b2f      	ldr	r3, [pc, #188]	@ (8004650 <HAL_RCCEx_GetPLLClockFreq+0x174>)
 8004594:	69ba      	ldr	r2, [r7, #24]
 8004596:	0092      	lsls	r2, r2, #2
 8004598:	58d3      	ldr	r3, [r2, r3]
 800459a:	68f9      	ldr	r1, [r7, #12]
 800459c:	0018      	movs	r0, r3
 800459e:	f7fb fdc5 	bl	800012c <__udivsi3>
 80045a2:	0003      	movs	r3, r0
 80045a4:	001a      	movs	r2, r3
 80045a6:	697b      	ldr	r3, [r7, #20]
 80045a8:	4353      	muls	r3, r2
 80045aa:	61fb      	str	r3, [r7, #28]
      break;
 80045ac:	46c0      	nop			@ (mov r8, r8)
  }

  if (__HAL_RCC_GET_PLLCLKOUT_CONFIG(RCC_PLL_DIVP) != 0U)
 80045ae:	4b26      	ldr	r3, [pc, #152]	@ (8004648 <HAL_RCCEx_GetPLLClockFreq+0x16c>)
 80045b0:	68da      	ldr	r2, [r3, #12]
 80045b2:	2380      	movs	r3, #128	@ 0x80
 80045b4:	025b      	lsls	r3, r3, #9
 80045b6:	4013      	ands	r3, r2
 80045b8:	d00e      	beq.n	80045d8 <HAL_RCCEx_GetPLLClockFreq+0xfc>
  {
    PLL_Clocks->PLL_P_Frequency = (uint32_t)(pllvco / (((RCC->PLLCFGR & RCC_PLLCFGR_PLLP) \
 80045ba:	4b23      	ldr	r3, [pc, #140]	@ (8004648 <HAL_RCCEx_GetPLLClockFreq+0x16c>)
 80045bc:	68db      	ldr	r3, [r3, #12]
                                                        >> RCC_PLLCFGR_PLLP_Pos) + 1U));
 80045be:	0c5b      	lsrs	r3, r3, #17
 80045c0:	221f      	movs	r2, #31
 80045c2:	4013      	ands	r3, r2
 80045c4:	3301      	adds	r3, #1
    PLL_Clocks->PLL_P_Frequency = (uint32_t)(pllvco / (((RCC->PLLCFGR & RCC_PLLCFGR_PLLP) \
 80045c6:	0019      	movs	r1, r3
 80045c8:	69f8      	ldr	r0, [r7, #28]
 80045ca:	f7fb fdaf 	bl	800012c <__udivsi3>
 80045ce:	0003      	movs	r3, r0
 80045d0:	001a      	movs	r2, r3
 80045d2:	687b      	ldr	r3, [r7, #4]
 80045d4:	601a      	str	r2, [r3, #0]
 80045d6:	e002      	b.n	80045de <HAL_RCCEx_GetPLLClockFreq+0x102>
  }
  else
  {
    PLL_Clocks->PLL_P_Frequency = 0;
 80045d8:	687b      	ldr	r3, [r7, #4]
 80045da:	2200      	movs	r2, #0
 80045dc:	601a      	str	r2, [r3, #0]
  }

  if (__HAL_RCC_GET_PLLCLKOUT_CONFIG(RCC_PLL_DIVQ) != 0U)
 80045de:	4b1a      	ldr	r3, [pc, #104]	@ (8004648 <HAL_RCCEx_GetPLLClockFreq+0x16c>)
 80045e0:	68da      	ldr	r2, [r3, #12]
 80045e2:	2380      	movs	r3, #128	@ 0x80
 80045e4:	045b      	lsls	r3, r3, #17
 80045e6:	4013      	ands	r3, r2
 80045e8:	d00e      	beq.n	8004608 <HAL_RCCEx_GetPLLClockFreq+0x12c>
  {
    PLL_Clocks->PLL_Q_Frequency = (uint32_t)(pllvco / (((RCC->PLLCFGR & RCC_PLLCFGR_PLLQ) \
 80045ea:	4b17      	ldr	r3, [pc, #92]	@ (8004648 <HAL_RCCEx_GetPLLClockFreq+0x16c>)
 80045ec:	68db      	ldr	r3, [r3, #12]
                                                        >> RCC_PLLCFGR_PLLQ_Pos) + 1U));
 80045ee:	0e5b      	lsrs	r3, r3, #25
 80045f0:	2207      	movs	r2, #7
 80045f2:	4013      	ands	r3, r2
 80045f4:	3301      	adds	r3, #1
    PLL_Clocks->PLL_Q_Frequency = (uint32_t)(pllvco / (((RCC->PLLCFGR & RCC_PLLCFGR_PLLQ) \
 80045f6:	0019      	movs	r1, r3
 80045f8:	69f8      	ldr	r0, [r7, #28]
 80045fa:	f7fb fd97 	bl	800012c <__udivsi3>
 80045fe:	0003      	movs	r3, r0
 8004600:	001a      	movs	r2, r3
 8004602:	687b      	ldr	r3, [r7, #4]
 8004604:	605a      	str	r2, [r3, #4]
 8004606:	e002      	b.n	800460e <HAL_RCCEx_GetPLLClockFreq+0x132>
  }
  else
  {
    PLL_Clocks->PLL_Q_Frequency = 0;
 8004608:	687b      	ldr	r3, [r7, #4]
 800460a:	2200      	movs	r2, #0
 800460c:	605a      	str	r2, [r3, #4]
  }

  if (__HAL_RCC_GET_PLLCLKOUT_CONFIG(RCC_PLL_DIVR) != 0U)
 800460e:	4b0e      	ldr	r3, [pc, #56]	@ (8004648 <HAL_RCCEx_GetPLLClockFreq+0x16c>)
 8004610:	68da      	ldr	r2, [r3, #12]
 8004612:	2380      	movs	r3, #128	@ 0x80
 8004614:	055b      	lsls	r3, r3, #21
 8004616:	4013      	ands	r3, r2
 8004618:	d00e      	beq.n	8004638 <HAL_RCCEx_GetPLLClockFreq+0x15c>
  {
    PLL_Clocks->PLL_R_Frequency = (uint32_t)(pllvco / (((RCC->PLLCFGR & RCC_PLLCFGR_PLLR) \
 800461a:	4b0b      	ldr	r3, [pc, #44]	@ (8004648 <HAL_RCCEx_GetPLLClockFreq+0x16c>)
 800461c:	68db      	ldr	r3, [r3, #12]
                                                        >> RCC_PLLCFGR_PLLR_Pos) + 1U));
 800461e:	0f5b      	lsrs	r3, r3, #29
 8004620:	2207      	movs	r2, #7
 8004622:	4013      	ands	r3, r2
 8004624:	3301      	adds	r3, #1
    PLL_Clocks->PLL_R_Frequency = (uint32_t)(pllvco / (((RCC->PLLCFGR & RCC_PLLCFGR_PLLR) \
 8004626:	0019      	movs	r1, r3
 8004628:	69f8      	ldr	r0, [r7, #28]
 800462a:	f7fb fd7f 	bl	800012c <__udivsi3>
 800462e:	0003      	movs	r3, r0
 8004630:	001a      	movs	r2, r3
 8004632:	687b      	ldr	r3, [r7, #4]
 8004634:	609a      	str	r2, [r3, #8]
  }
  else
  {
    PLL_Clocks->PLL_R_Frequency = 0;
  }
}
 8004636:	e002      	b.n	800463e <HAL_RCCEx_GetPLLClockFreq+0x162>
    PLL_Clocks->PLL_R_Frequency = 0;
 8004638:	687b      	ldr	r3, [r7, #4]
 800463a:	2200      	movs	r2, #0
 800463c:	609a      	str	r2, [r3, #8]
}
 800463e:	46c0      	nop			@ (mov r8, r8)
 8004640:	46bd      	mov	sp, r7
 8004642:	b008      	add	sp, #32
 8004644:	bd80      	pop	{r7, pc}
 8004646:	46c0      	nop			@ (mov r8, r8)
 8004648:	40021000 	.word	0x40021000
 800464c:	00f42400 	.word	0x00f42400
 8004650:	08005ec8 	.word	0x08005ec8
 8004654:	003d0900 	.word	0x003d0900

08004658 <HAL_RTC_Init>:
  * @brief  Initialize the RTC peripheral
  * @param  hrtc RTC handle
  * @retval HAL status
  */
HAL_StatusTypeDef HAL_RTC_Init(RTC_HandleTypeDef *hrtc)
{
 8004658:	b580      	push	{r7, lr}
 800465a:	b084      	sub	sp, #16
 800465c:	af00      	add	r7, sp, #0
 800465e:	6078      	str	r0, [r7, #4]
  HAL_StatusTypeDef status = HAL_ERROR;
 8004660:	210f      	movs	r1, #15
 8004662:	187b      	adds	r3, r7, r1
 8004664:	2201      	movs	r2, #1
 8004666:	701a      	strb	r2, [r3, #0]

  /* Check the RTC peripheral state */
  if (hrtc != NULL)
 8004668:	687b      	ldr	r3, [r7, #4]
 800466a:	2b00      	cmp	r3, #0
 800466c:	d100      	bne.n	8004670 <HAL_RTC_Init+0x18>
 800466e:	e08b      	b.n	8004788 <HAL_RTC_Init+0x130>
  {
    status = HAL_OK;
 8004670:	187b      	adds	r3, r7, r1
 8004672:	2200      	movs	r2, #0
 8004674:	701a      	strb	r2, [r3, #0]
      {
        hrtc->MspDeInitCallback = HAL_RTC_MspDeInit;
      }
    }
#else
    if (hrtc->State == HAL_RTC_STATE_RESET)
 8004676:	687b      	ldr	r3, [r7, #4]
 8004678:	222d      	movs	r2, #45	@ 0x2d
 800467a:	5c9b      	ldrb	r3, [r3, r2]
 800467c:	b2db      	uxtb	r3, r3
 800467e:	2b00      	cmp	r3, #0
 8004680:	d107      	bne.n	8004692 <HAL_RTC_Init+0x3a>
    {
      /* Allocate lock resource and initialize it */
      hrtc->Lock = HAL_UNLOCKED;
 8004682:	687b      	ldr	r3, [r7, #4]
 8004684:	222c      	movs	r2, #44	@ 0x2c
 8004686:	2100      	movs	r1, #0
 8004688:	5499      	strb	r1, [r3, r2]

      /* Initialize RTC MSP */
      HAL_RTC_MspInit(hrtc);
 800468a:	687b      	ldr	r3, [r7, #4]
 800468c:	0018      	movs	r0, r3
 800468e:	f7fc fdcf 	bl	8001230 <HAL_RTC_MspInit>
    }
#endif /* (USE_HAL_RTC_REGISTER_CALLBACKS) */

    /* Set RTC state */
    hrtc->State = HAL_RTC_STATE_BUSY;
 8004692:	687b      	ldr	r3, [r7, #4]
 8004694:	222d      	movs	r2, #45	@ 0x2d
 8004696:	2102      	movs	r1, #2
 8004698:	5499      	strb	r1, [r3, r2]

    /* Disable the write protection for RTC registers */
    __HAL_RTC_WRITEPROTECTION_DISABLE(hrtc);
 800469a:	4b3f      	ldr	r3, [pc, #252]	@ (8004798 <HAL_RTC_Init+0x140>)
 800469c:	22ca      	movs	r2, #202	@ 0xca
 800469e:	625a      	str	r2, [r3, #36]	@ 0x24
 80046a0:	4b3d      	ldr	r3, [pc, #244]	@ (8004798 <HAL_RTC_Init+0x140>)
 80046a2:	2253      	movs	r2, #83	@ 0x53
 80046a4:	625a      	str	r2, [r3, #36]	@ 0x24

    /* Set Initialization mode */
    if (RTC_EnterInitMode(hrtc) != HAL_OK)
 80046a6:	687b      	ldr	r3, [r7, #4]
 80046a8:	0018      	movs	r0, r3
 80046aa:	f000 f8a1 	bl	80047f0 <RTC_EnterInitMode>
 80046ae:	1e03      	subs	r3, r0, #0
 80046b0:	d00b      	beq.n	80046ca <HAL_RTC_Init+0x72>
    {
      /* Enable the write protection for RTC registers */
      __HAL_RTC_WRITEPROTECTION_ENABLE(hrtc);
 80046b2:	4b39      	ldr	r3, [pc, #228]	@ (8004798 <HAL_RTC_Init+0x140>)
 80046b4:	22ff      	movs	r2, #255	@ 0xff
 80046b6:	625a      	str	r2, [r3, #36]	@ 0x24

      /* Set RTC state */
      hrtc->State = HAL_RTC_STATE_ERROR;
 80046b8:	687b      	ldr	r3, [r7, #4]
 80046ba:	222d      	movs	r2, #45	@ 0x2d
 80046bc:	2104      	movs	r1, #4
 80046be:	5499      	strb	r1, [r3, r2]

      status = HAL_ERROR;
 80046c0:	230f      	movs	r3, #15
 80046c2:	18fb      	adds	r3, r7, r3
 80046c4:	2201      	movs	r2, #1
 80046c6:	701a      	strb	r2, [r3, #0]
 80046c8:	e05e      	b.n	8004788 <HAL_RTC_Init+0x130>
    }
    else
    {
      /* Clear RTC_CR FMT, OSEL and POL Bits */
      CLEAR_BIT(RTC->CR, (RTC_CR_FMT | RTC_CR_POL | RTC_CR_OSEL | RTC_CR_TAMPOE));
 80046ca:	4b33      	ldr	r3, [pc, #204]	@ (8004798 <HAL_RTC_Init+0x140>)
 80046cc:	699a      	ldr	r2, [r3, #24]
 80046ce:	4b32      	ldr	r3, [pc, #200]	@ (8004798 <HAL_RTC_Init+0x140>)
 80046d0:	4932      	ldr	r1, [pc, #200]	@ (800479c <HAL_RTC_Init+0x144>)
 80046d2:	400a      	ands	r2, r1
 80046d4:	619a      	str	r2, [r3, #24]
      /* Set RTC_CR register */
      SET_BIT(RTC->CR, (hrtc->Init.HourFormat | hrtc->Init.OutPut | hrtc->Init.OutPutPolarity));
 80046d6:	4b30      	ldr	r3, [pc, #192]	@ (8004798 <HAL_RTC_Init+0x140>)
 80046d8:	6999      	ldr	r1, [r3, #24]
 80046da:	687b      	ldr	r3, [r7, #4]
 80046dc:	685a      	ldr	r2, [r3, #4]
 80046de:	687b      	ldr	r3, [r7, #4]
 80046e0:	691b      	ldr	r3, [r3, #16]
 80046e2:	431a      	orrs	r2, r3
 80046e4:	687b      	ldr	r3, [r7, #4]
 80046e6:	699b      	ldr	r3, [r3, #24]
 80046e8:	431a      	orrs	r2, r3
 80046ea:	4b2b      	ldr	r3, [pc, #172]	@ (8004798 <HAL_RTC_Init+0x140>)
 80046ec:	430a      	orrs	r2, r1
 80046ee:	619a      	str	r2, [r3, #24]

      /* Configure the RTC PRER */
      WRITE_REG(RTC->PRER, ((hrtc->Init.SynchPrediv) | (hrtc->Init.AsynchPrediv << RTC_PRER_PREDIV_A_Pos)));
 80046f0:	687b      	ldr	r3, [r7, #4]
 80046f2:	68d9      	ldr	r1, [r3, #12]
 80046f4:	687b      	ldr	r3, [r7, #4]
 80046f6:	689b      	ldr	r3, [r3, #8]
 80046f8:	041a      	lsls	r2, r3, #16
 80046fa:	4b27      	ldr	r3, [pc, #156]	@ (8004798 <HAL_RTC_Init+0x140>)
 80046fc:	430a      	orrs	r2, r1
 80046fe:	611a      	str	r2, [r3, #16]

      /* Configure the Binary mode */
      MODIFY_REG(RTC->ICSR, RTC_ICSR_BIN | RTC_ICSR_BCDU, hrtc->Init.BinMode | hrtc->Init.BinMixBcdU);
 8004700:	4b25      	ldr	r3, [pc, #148]	@ (8004798 <HAL_RTC_Init+0x140>)
 8004702:	68db      	ldr	r3, [r3, #12]
 8004704:	4a26      	ldr	r2, [pc, #152]	@ (80047a0 <HAL_RTC_Init+0x148>)
 8004706:	4013      	ands	r3, r2
 8004708:	0019      	movs	r1, r3
 800470a:	687b      	ldr	r3, [r7, #4]
 800470c:	6a5a      	ldr	r2, [r3, #36]	@ 0x24
 800470e:	687b      	ldr	r3, [r7, #4]
 8004710:	6a9b      	ldr	r3, [r3, #40]	@ 0x28
 8004712:	431a      	orrs	r2, r3
 8004714:	4b20      	ldr	r3, [pc, #128]	@ (8004798 <HAL_RTC_Init+0x140>)
 8004716:	430a      	orrs	r2, r1
 8004718:	60da      	str	r2, [r3, #12]

      /* Exit Initialization mode */
      CLEAR_BIT(RTC->ICSR, RTC_ICSR_INIT);
 800471a:	4b1f      	ldr	r3, [pc, #124]	@ (8004798 <HAL_RTC_Init+0x140>)
 800471c:	68da      	ldr	r2, [r3, #12]
 800471e:	4b1e      	ldr	r3, [pc, #120]	@ (8004798 <HAL_RTC_Init+0x140>)
 8004720:	2180      	movs	r1, #128	@ 0x80
 8004722:	438a      	bics	r2, r1
 8004724:	60da      	str	r2, [r3, #12]

      /* If CR_BYPSHAD bit = 0, wait for synchro else this check is not needed */
      if (READ_BIT(RTC->CR, RTC_CR_BYPSHAD) == 0U)
 8004726:	4b1c      	ldr	r3, [pc, #112]	@ (8004798 <HAL_RTC_Init+0x140>)
 8004728:	699b      	ldr	r3, [r3, #24]
 800472a:	2220      	movs	r2, #32
 800472c:	4013      	ands	r3, r2
 800472e:	d110      	bne.n	8004752 <HAL_RTC_Init+0xfa>
      {
        if (HAL_RTC_WaitForSynchro(hrtc) != HAL_OK)
 8004730:	687b      	ldr	r3, [r7, #4]
 8004732:	0018      	movs	r0, r3
 8004734:	f000 f836 	bl	80047a4 <HAL_RTC_WaitForSynchro>
 8004738:	1e03      	subs	r3, r0, #0
 800473a:	d00a      	beq.n	8004752 <HAL_RTC_Init+0xfa>
        {
          /* Enable the write protection for RTC registers */
          __HAL_RTC_WRITEPROTECTION_ENABLE(hrtc);
 800473c:	4b16      	ldr	r3, [pc, #88]	@ (8004798 <HAL_RTC_Init+0x140>)
 800473e:	22ff      	movs	r2, #255	@ 0xff
 8004740:	625a      	str	r2, [r3, #36]	@ 0x24

          hrtc->State = HAL_RTC_STATE_ERROR;
 8004742:	687b      	ldr	r3, [r7, #4]
 8004744:	222d      	movs	r2, #45	@ 0x2d
 8004746:	2104      	movs	r1, #4
 8004748:	5499      	strb	r1, [r3, r2]
          status = HAL_ERROR;
 800474a:	230f      	movs	r3, #15
 800474c:	18fb      	adds	r3, r7, r3
 800474e:	2201      	movs	r2, #1
 8004750:	701a      	strb	r2, [r3, #0]
        }
      }

      if (status == HAL_OK)
 8004752:	230f      	movs	r3, #15
 8004754:	18fb      	adds	r3, r7, r3
 8004756:	781b      	ldrb	r3, [r3, #0]
 8004758:	2b00      	cmp	r3, #0
 800475a:	d115      	bne.n	8004788 <HAL_RTC_Init+0x130>
      {
        MODIFY_REG(RTC->CR, \
 800475c:	4b0e      	ldr	r3, [pc, #56]	@ (8004798 <HAL_RTC_Init+0x140>)
 800475e:	699b      	ldr	r3, [r3, #24]
 8004760:	00db      	lsls	r3, r3, #3
 8004762:	08d9      	lsrs	r1, r3, #3
 8004764:	687b      	ldr	r3, [r7, #4]
 8004766:	6a1a      	ldr	r2, [r3, #32]
 8004768:	687b      	ldr	r3, [r7, #4]
 800476a:	69db      	ldr	r3, [r3, #28]
 800476c:	431a      	orrs	r2, r3
 800476e:	687b      	ldr	r3, [r7, #4]
 8004770:	695b      	ldr	r3, [r3, #20]
 8004772:	431a      	orrs	r2, r3
 8004774:	4b08      	ldr	r3, [pc, #32]	@ (8004798 <HAL_RTC_Init+0x140>)
 8004776:	430a      	orrs	r2, r1
 8004778:	619a      	str	r2, [r3, #24]
                   RTC_CR_TAMPALRM_PU | RTC_CR_TAMPALRM_TYPE | RTC_CR_OUT2EN, \
                   hrtc->Init.OutPutPullUp | hrtc->Init.OutPutType | hrtc->Init.OutPutRemap);

        /* Enable the write protection for RTC registers */
        __HAL_RTC_WRITEPROTECTION_ENABLE(hrtc);
 800477a:	4b07      	ldr	r3, [pc, #28]	@ (8004798 <HAL_RTC_Init+0x140>)
 800477c:	22ff      	movs	r2, #255	@ 0xff
 800477e:	625a      	str	r2, [r3, #36]	@ 0x24

        /* Set RTC state */
        hrtc->State = HAL_RTC_STATE_READY;
 8004780:	687b      	ldr	r3, [r7, #4]
 8004782:	222d      	movs	r2, #45	@ 0x2d
 8004784:	2101      	movs	r1, #1
 8004786:	5499      	strb	r1, [r3, r2]
      }
    }
  }

  return status;
 8004788:	230f      	movs	r3, #15
 800478a:	18fb      	adds	r3, r7, r3
 800478c:	781b      	ldrb	r3, [r3, #0]
}
 800478e:	0018      	movs	r0, r3
 8004790:	46bd      	mov	sp, r7
 8004792:	b004      	add	sp, #16
 8004794:	bd80      	pop	{r7, pc}
 8004796:	46c0      	nop			@ (mov r8, r8)
 8004798:	40002800 	.word	0x40002800
 800479c:	fb8fffbf 	.word	0xfb8fffbf
 80047a0:	ffffe0ff 	.word	0xffffe0ff

080047a4 <HAL_RTC_WaitForSynchro>:
  *         correctly copied into the RTC_TR and RTC_DR shadow registers.
  * @param  hrtc RTC handle
  * @retval HAL status
  */
HAL_StatusTypeDef HAL_RTC_WaitForSynchro(const RTC_HandleTypeDef *hrtc)
{
 80047a4:	b580      	push	{r7, lr}
 80047a6:	b084      	sub	sp, #16
 80047a8:	af00      	add	r7, sp, #0
 80047aa:	6078      	str	r0, [r7, #4]
  uint32_t tickstart;

  UNUSED(hrtc);
  /* Clear RSF flag */
  CLEAR_BIT(RTC->ICSR, RTC_ICSR_RSF);
 80047ac:	4b0f      	ldr	r3, [pc, #60]	@ (80047ec <HAL_RTC_WaitForSynchro+0x48>)
 80047ae:	68da      	ldr	r2, [r3, #12]
 80047b0:	4b0e      	ldr	r3, [pc, #56]	@ (80047ec <HAL_RTC_WaitForSynchro+0x48>)
 80047b2:	2120      	movs	r1, #32
 80047b4:	438a      	bics	r2, r1
 80047b6:	60da      	str	r2, [r3, #12]

  tickstart = HAL_GetTick();
 80047b8:	f7fd f812 	bl	80017e0 <HAL_GetTick>
 80047bc:	0003      	movs	r3, r0
 80047be:	60fb      	str	r3, [r7, #12]

  /* Wait the registers to be synchronised */
  while (READ_BIT(RTC->ICSR, RTC_ICSR_RSF) == 0U)
 80047c0:	e00a      	b.n	80047d8 <HAL_RTC_WaitForSynchro+0x34>
  {
    if ((HAL_GetTick() - tickstart) > RTC_TIMEOUT_VALUE)
 80047c2:	f7fd f80d 	bl	80017e0 <HAL_GetTick>
 80047c6:	0002      	movs	r2, r0
 80047c8:	68fb      	ldr	r3, [r7, #12]
 80047ca:	1ad2      	subs	r2, r2, r3
 80047cc:	23fa      	movs	r3, #250	@ 0xfa
 80047ce:	009b      	lsls	r3, r3, #2
 80047d0:	429a      	cmp	r2, r3
 80047d2:	d901      	bls.n	80047d8 <HAL_RTC_WaitForSynchro+0x34>
    {
      return HAL_TIMEOUT;
 80047d4:	2303      	movs	r3, #3
 80047d6:	e005      	b.n	80047e4 <HAL_RTC_WaitForSynchro+0x40>
  while (READ_BIT(RTC->ICSR, RTC_ICSR_RSF) == 0U)
 80047d8:	4b04      	ldr	r3, [pc, #16]	@ (80047ec <HAL_RTC_WaitForSynchro+0x48>)
 80047da:	68db      	ldr	r3, [r3, #12]
 80047dc:	2220      	movs	r2, #32
 80047de:	4013      	ands	r3, r2
 80047e0:	d0ef      	beq.n	80047c2 <HAL_RTC_WaitForSynchro+0x1e>
    }
  }

  return HAL_OK;
 80047e2:	2300      	movs	r3, #0
}
 80047e4:	0018      	movs	r0, r3
 80047e6:	46bd      	mov	sp, r7
 80047e8:	b004      	add	sp, #16
 80047ea:	bd80      	pop	{r7, pc}
 80047ec:	40002800 	.word	0x40002800

080047f0 <RTC_EnterInitMode>:
  *         __HAL_RTC_WRITEPROTECTION_DISABLE() before calling this function.
  * @param  hrtc RTC handle
  * @retval HAL status
  */
HAL_StatusTypeDef RTC_EnterInitMode(const RTC_HandleTypeDef *hrtc)
{
 80047f0:	b580      	push	{r7, lr}
 80047f2:	b084      	sub	sp, #16
 80047f4:	af00      	add	r7, sp, #0
 80047f6:	6078      	str	r0, [r7, #4]
  uint32_t tickstart;

  UNUSED(hrtc);
  /* Check if the Initialization mode is set */
  if (READ_BIT(RTC->ICSR, RTC_ICSR_INITF) == 0U)
 80047f8:	4b12      	ldr	r3, [pc, #72]	@ (8004844 <RTC_EnterInitMode+0x54>)
 80047fa:	68db      	ldr	r3, [r3, #12]
 80047fc:	2240      	movs	r2, #64	@ 0x40
 80047fe:	4013      	ands	r3, r2
 8004800:	d11a      	bne.n	8004838 <RTC_EnterInitMode+0x48>
  {
    /* Set the Initialization mode */
    SET_BIT(RTC->ICSR, RTC_ICSR_INIT);
 8004802:	4b10      	ldr	r3, [pc, #64]	@ (8004844 <RTC_EnterInitMode+0x54>)
 8004804:	68da      	ldr	r2, [r3, #12]
 8004806:	4b0f      	ldr	r3, [pc, #60]	@ (8004844 <RTC_EnterInitMode+0x54>)
 8004808:	2180      	movs	r1, #128	@ 0x80
 800480a:	430a      	orrs	r2, r1
 800480c:	60da      	str	r2, [r3, #12]

    tickstart = HAL_GetTick();
 800480e:	f7fc ffe7 	bl	80017e0 <HAL_GetTick>
 8004812:	0003      	movs	r3, r0
 8004814:	60fb      	str	r3, [r7, #12]
    /* Wait till RTC is in INIT state and if Time out is reached exit */
    while (READ_BIT(RTC->ICSR, RTC_ICSR_INITF) == 0U)
 8004816:	e00a      	b.n	800482e <RTC_EnterInitMode+0x3e>
    {
      if ((HAL_GetTick()  - tickstart) > RTC_TIMEOUT_VALUE)
 8004818:	f7fc ffe2 	bl	80017e0 <HAL_GetTick>
 800481c:	0002      	movs	r2, r0
 800481e:	68fb      	ldr	r3, [r7, #12]
 8004820:	1ad2      	subs	r2, r2, r3
 8004822:	23fa      	movs	r3, #250	@ 0xfa
 8004824:	009b      	lsls	r3, r3, #2
 8004826:	429a      	cmp	r2, r3
 8004828:	d901      	bls.n	800482e <RTC_EnterInitMode+0x3e>
      {
        return HAL_TIMEOUT;
 800482a:	2303      	movs	r3, #3
 800482c:	e005      	b.n	800483a <RTC_EnterInitMode+0x4a>
    while (READ_BIT(RTC->ICSR, RTC_ICSR_INITF) == 0U)
 800482e:	4b05      	ldr	r3, [pc, #20]	@ (8004844 <RTC_EnterInitMode+0x54>)
 8004830:	68db      	ldr	r3, [r3, #12]
 8004832:	2240      	movs	r2, #64	@ 0x40
 8004834:	4013      	ands	r3, r2
 8004836:	d0ef      	beq.n	8004818 <RTC_EnterInitMode+0x28>
      }
    }
  }

  return HAL_OK;
 8004838:	2300      	movs	r3, #0
}
 800483a:	0018      	movs	r0, r3
 800483c:	46bd      	mov	sp, r7
 800483e:	b004      	add	sp, #16
 8004840:	bd80      	pop	{r7, pc}
 8004842:	46c0      	nop			@ (mov r8, r8)
 8004844:	40002800 	.word	0x40002800

08004848 <HAL_UART_Init>:
  *        parameters in the UART_InitTypeDef and initialize the associated handle.
  * @param huart UART handle.
  * @retval HAL status
  */
HAL_StatusTypeDef HAL_UART_Init(UART_HandleTypeDef *huart)
{
 8004848:	b580      	push	{r7, lr}
 800484a:	b082      	sub	sp, #8
 800484c:	af00      	add	r7, sp, #0
 800484e:	6078      	str	r0, [r7, #4]
  /* Check the UART handle allocation */
  if (huart == NULL)
 8004850:	687b      	ldr	r3, [r7, #4]
 8004852:	2b00      	cmp	r3, #0
 8004854:	d101      	bne.n	800485a <HAL_UART_Init+0x12>
  {
    return HAL_ERROR;
 8004856:	2301      	movs	r3, #1
 8004858:	e046      	b.n	80048e8 <HAL_UART_Init+0xa0>
  {
    /* Check the parameters */
    assert_param((IS_UART_INSTANCE(huart->Instance)) || (IS_LPUART_INSTANCE(huart->Instance)));
  }

  if (huart->gState == HAL_UART_STATE_RESET)
 800485a:	687b      	ldr	r3, [r7, #4]
 800485c:	2288      	movs	r2, #136	@ 0x88
 800485e:	589b      	ldr	r3, [r3, r2]
 8004860:	2b00      	cmp	r3, #0
 8004862:	d107      	bne.n	8004874 <HAL_UART_Init+0x2c>
  {
    /* Allocate lock resource and initialize it */
    huart->Lock = HAL_UNLOCKED;
 8004864:	687b      	ldr	r3, [r7, #4]
 8004866:	2284      	movs	r2, #132	@ 0x84
 8004868:	2100      	movs	r1, #0
 800486a:	5499      	strb	r1, [r3, r2]

    /* Init the low level hardware */
    huart->MspInitCallback(huart);
#else
    /* Init the low level hardware : GPIO, CLOCK */
    HAL_UART_MspInit(huart);
 800486c:	687b      	ldr	r3, [r7, #4]
 800486e:	0018      	movs	r0, r3
 8004870:	f7fc fd1e 	bl	80012b0 <HAL_UART_MspInit>
#endif /* (USE_HAL_UART_REGISTER_CALLBACKS) */
  }

  huart->gState = HAL_UART_STATE_BUSY;
 8004874:	687b      	ldr	r3, [r7, #4]
 8004876:	2288      	movs	r2, #136	@ 0x88
 8004878:	2124      	movs	r1, #36	@ 0x24
 800487a:	5099      	str	r1, [r3, r2]

  __HAL_UART_DISABLE(huart);
 800487c:	687b      	ldr	r3, [r7, #4]
 800487e:	681b      	ldr	r3, [r3, #0]
 8004880:	681a      	ldr	r2, [r3, #0]
 8004882:	687b      	ldr	r3, [r7, #4]
 8004884:	681b      	ldr	r3, [r3, #0]
 8004886:	2101      	movs	r1, #1
 8004888:	438a      	bics	r2, r1
 800488a:	601a      	str	r2, [r3, #0]

  /* Perform advanced settings configuration */
  /* For some items, configuration requires to be done prior TE and RE bits are set */
  if (huart->AdvancedInit.AdvFeatureInit != UART_ADVFEATURE_NO_INIT)
 800488c:	687b      	ldr	r3, [r7, #4]
 800488e:	6a9b      	ldr	r3, [r3, #40]	@ 0x28
 8004890:	2b00      	cmp	r3, #0
 8004892:	d003      	beq.n	800489c <HAL_UART_Init+0x54>
  {
    UART_AdvFeatureConfig(huart);
 8004894:	687b      	ldr	r3, [r7, #4]
 8004896:	0018      	movs	r0, r3
 8004898:	f000 fa8a 	bl	8004db0 <UART_AdvFeatureConfig>
  }

  /* Set the UART Communication parameters */
  if (UART_SetConfig(huart) == HAL_ERROR)
 800489c:	687b      	ldr	r3, [r7, #4]
 800489e:	0018      	movs	r0, r3
 80048a0:	f000 f8cc 	bl	8004a3c <UART_SetConfig>
 80048a4:	0003      	movs	r3, r0
 80048a6:	2b01      	cmp	r3, #1
 80048a8:	d101      	bne.n	80048ae <HAL_UART_Init+0x66>
  {
    return HAL_ERROR;
 80048aa:	2301      	movs	r3, #1
 80048ac:	e01c      	b.n	80048e8 <HAL_UART_Init+0xa0>
  }

  /* In asynchronous mode, the following bits must be kept cleared:
  - LINEN and CLKEN bits in the USART_CR2 register,
  - SCEN, HDSEL and IREN  bits in the USART_CR3 register.*/
  CLEAR_BIT(huart->Instance->CR2, (USART_CR2_LINEN | USART_CR2_CLKEN));
 80048ae:	687b      	ldr	r3, [r7, #4]
 80048b0:	681b      	ldr	r3, [r3, #0]
 80048b2:	685a      	ldr	r2, [r3, #4]
 80048b4:	687b      	ldr	r3, [r7, #4]
 80048b6:	681b      	ldr	r3, [r3, #0]
 80048b8:	490d      	ldr	r1, [pc, #52]	@ (80048f0 <HAL_UART_Init+0xa8>)
 80048ba:	400a      	ands	r2, r1
 80048bc:	605a      	str	r2, [r3, #4]
  CLEAR_BIT(huart->Instance->CR3, (USART_CR3_SCEN | USART_CR3_HDSEL | USART_CR3_IREN));
 80048be:	687b      	ldr	r3, [r7, #4]
 80048c0:	681b      	ldr	r3, [r3, #0]
 80048c2:	689a      	ldr	r2, [r3, #8]
 80048c4:	687b      	ldr	r3, [r7, #4]
 80048c6:	681b      	ldr	r3, [r3, #0]
 80048c8:	212a      	movs	r1, #42	@ 0x2a
 80048ca:	438a      	bics	r2, r1
 80048cc:	609a      	str	r2, [r3, #8]

  __HAL_UART_ENABLE(huart);
 80048ce:	687b      	ldr	r3, [r7, #4]
 80048d0:	681b      	ldr	r3, [r3, #0]
 80048d2:	681a      	ldr	r2, [r3, #0]
 80048d4:	687b      	ldr	r3, [r7, #4]
 80048d6:	681b      	ldr	r3, [r3, #0]
 80048d8:	2101      	movs	r1, #1
 80048da:	430a      	orrs	r2, r1
 80048dc:	601a      	str	r2, [r3, #0]

  /* TEACK and/or REACK to check before moving huart->gState and huart->RxState to Ready */
  return (UART_CheckIdleState(huart));
 80048de:	687b      	ldr	r3, [r7, #4]
 80048e0:	0018      	movs	r0, r3
 80048e2:	f000 fb19 	bl	8004f18 <UART_CheckIdleState>
 80048e6:	0003      	movs	r3, r0
}
 80048e8:	0018      	movs	r0, r3
 80048ea:	46bd      	mov	sp, r7
 80048ec:	b002      	add	sp, #8
 80048ee:	bd80      	pop	{r7, pc}
 80048f0:	ffffb7ff 	.word	0xffffb7ff

080048f4 <HAL_UART_Transmit>:
  * @param Size    Amount of data elements (u8 or u16) to be sent.
  * @param Timeout Timeout duration.
  * @retval HAL status
  */
HAL_StatusTypeDef HAL_UART_Transmit(UART_HandleTypeDef *huart, const uint8_t *pData, uint16_t Size, uint32_t Timeout)
{
 80048f4:	b580      	push	{r7, lr}
 80048f6:	b08a      	sub	sp, #40	@ 0x28
 80048f8:	af02      	add	r7, sp, #8
 80048fa:	60f8      	str	r0, [r7, #12]
 80048fc:	60b9      	str	r1, [r7, #8]
 80048fe:	603b      	str	r3, [r7, #0]
 8004900:	1dbb      	adds	r3, r7, #6
 8004902:	801a      	strh	r2, [r3, #0]
  const uint8_t  *pdata8bits;
  const uint16_t *pdata16bits;
  uint32_t tickstart;

  /* Check that a Tx process is not already ongoing */
  if (huart->gState == HAL_UART_STATE_READY)
 8004904:	68fb      	ldr	r3, [r7, #12]
 8004906:	2288      	movs	r2, #136	@ 0x88
 8004908:	589b      	ldr	r3, [r3, r2]
 800490a:	2b20      	cmp	r3, #32
 800490c:	d000      	beq.n	8004910 <HAL_UART_Transmit+0x1c>
 800490e:	e090      	b.n	8004a32 <HAL_UART_Transmit+0x13e>
  {
    if ((pData == NULL) || (Size == 0U))
 8004910:	68bb      	ldr	r3, [r7, #8]
 8004912:	2b00      	cmp	r3, #0
 8004914:	d003      	beq.n	800491e <HAL_UART_Transmit+0x2a>
 8004916:	1dbb      	adds	r3, r7, #6
 8004918:	881b      	ldrh	r3, [r3, #0]
 800491a:	2b00      	cmp	r3, #0
 800491c:	d101      	bne.n	8004922 <HAL_UART_Transmit+0x2e>
    {
      return  HAL_ERROR;
 800491e:	2301      	movs	r3, #1
 8004920:	e088      	b.n	8004a34 <HAL_UART_Transmit+0x140>
    }

    /* In case of 9bits/No Parity transfer, pData buffer provided as input parameter
       should be aligned on a u16 frontier, as data to be filled into TDR will be
       handled through a u16 cast. */
    if ((huart->Init.WordLength == UART_WORDLENGTH_9B) && (huart->Init.Parity == UART_PARITY_NONE))
 8004922:	68fb      	ldr	r3, [r7, #12]
 8004924:	689a      	ldr	r2, [r3, #8]
 8004926:	2380      	movs	r3, #128	@ 0x80
 8004928:	015b      	lsls	r3, r3, #5
 800492a:	429a      	cmp	r2, r3
 800492c:	d109      	bne.n	8004942 <HAL_UART_Transmit+0x4e>
 800492e:	68fb      	ldr	r3, [r7, #12]
 8004930:	691b      	ldr	r3, [r3, #16]
 8004932:	2b00      	cmp	r3, #0
 8004934:	d105      	bne.n	8004942 <HAL_UART_Transmit+0x4e>
    {
      if ((((uint32_t)pData) & 1U) != 0U)
 8004936:	68bb      	ldr	r3, [r7, #8]
 8004938:	2201      	movs	r2, #1
 800493a:	4013      	ands	r3, r2
 800493c:	d001      	beq.n	8004942 <HAL_UART_Transmit+0x4e>
      {
        return  HAL_ERROR;
 800493e:	2301      	movs	r3, #1
 8004940:	e078      	b.n	8004a34 <HAL_UART_Transmit+0x140>
      }
    }

    huart->ErrorCode = HAL_UART_ERROR_NONE;
 8004942:	68fb      	ldr	r3, [r7, #12]
 8004944:	2290      	movs	r2, #144	@ 0x90
 8004946:	2100      	movs	r1, #0
 8004948:	5099      	str	r1, [r3, r2]
    huart->gState = HAL_UART_STATE_BUSY_TX;
 800494a:	68fb      	ldr	r3, [r7, #12]
 800494c:	2288      	movs	r2, #136	@ 0x88
 800494e:	2121      	movs	r1, #33	@ 0x21
 8004950:	5099      	str	r1, [r3, r2]

    /* Init tickstart for timeout management */
    tickstart = HAL_GetTick();
 8004952:	f7fc ff45 	bl	80017e0 <HAL_GetTick>
 8004956:	0003      	movs	r3, r0
 8004958:	617b      	str	r3, [r7, #20]

    huart->TxXferSize  = Size;
 800495a:	68fb      	ldr	r3, [r7, #12]
 800495c:	1dba      	adds	r2, r7, #6
 800495e:	2154      	movs	r1, #84	@ 0x54
 8004960:	8812      	ldrh	r2, [r2, #0]
 8004962:	525a      	strh	r2, [r3, r1]
    huart->TxXferCount = Size;
 8004964:	68fb      	ldr	r3, [r7, #12]
 8004966:	1dba      	adds	r2, r7, #6
 8004968:	2156      	movs	r1, #86	@ 0x56
 800496a:	8812      	ldrh	r2, [r2, #0]
 800496c:	525a      	strh	r2, [r3, r1]

    /* In case of 9bits/No Parity transfer, pData needs to be handled as a uint16_t pointer */
    if ((huart->Init.WordLength == UART_WORDLENGTH_9B) && (huart->Init.Parity == UART_PARITY_NONE))
 800496e:	68fb      	ldr	r3, [r7, #12]
 8004970:	689a      	ldr	r2, [r3, #8]
 8004972:	2380      	movs	r3, #128	@ 0x80
 8004974:	015b      	lsls	r3, r3, #5
 8004976:	429a      	cmp	r2, r3
 8004978:	d108      	bne.n	800498c <HAL_UART_Transmit+0x98>
 800497a:	68fb      	ldr	r3, [r7, #12]
 800497c:	691b      	ldr	r3, [r3, #16]
 800497e:	2b00      	cmp	r3, #0
 8004980:	d104      	bne.n	800498c <HAL_UART_Transmit+0x98>
    {
      pdata8bits  = NULL;
 8004982:	2300      	movs	r3, #0
 8004984:	61fb      	str	r3, [r7, #28]
      pdata16bits = (const uint16_t *) pData;
 8004986:	68bb      	ldr	r3, [r7, #8]
 8004988:	61bb      	str	r3, [r7, #24]
 800498a:	e003      	b.n	8004994 <HAL_UART_Transmit+0xa0>
    }
    else
    {
      pdata8bits  = pData;
 800498c:	68bb      	ldr	r3, [r7, #8]
 800498e:	61fb      	str	r3, [r7, #28]
      pdata16bits = NULL;
 8004990:	2300      	movs	r3, #0
 8004992:	61bb      	str	r3, [r7, #24]
    }

    while (huart->TxXferCount > 0U)
 8004994:	e030      	b.n	80049f8 <HAL_UART_Transmit+0x104>
    {
      if (UART_WaitOnFlagUntilTimeout(huart, UART_FLAG_TXE, RESET, tickstart, Timeout) != HAL_OK)
 8004996:	697a      	ldr	r2, [r7, #20]
 8004998:	68f8      	ldr	r0, [r7, #12]
 800499a:	683b      	ldr	r3, [r7, #0]
 800499c:	9300      	str	r3, [sp, #0]
 800499e:	0013      	movs	r3, r2
 80049a0:	2200      	movs	r2, #0
 80049a2:	2180      	movs	r1, #128	@ 0x80
 80049a4:	f000 fb62 	bl	800506c <UART_WaitOnFlagUntilTimeout>
 80049a8:	1e03      	subs	r3, r0, #0
 80049aa:	d005      	beq.n	80049b8 <HAL_UART_Transmit+0xc4>
      {

        huart->gState = HAL_UART_STATE_READY;
 80049ac:	68fb      	ldr	r3, [r7, #12]
 80049ae:	2288      	movs	r2, #136	@ 0x88
 80049b0:	2120      	movs	r1, #32
 80049b2:	5099      	str	r1, [r3, r2]

        return HAL_TIMEOUT;
 80049b4:	2303      	movs	r3, #3
 80049b6:	e03d      	b.n	8004a34 <HAL_UART_Transmit+0x140>
      }
      if (pdata8bits == NULL)
 80049b8:	69fb      	ldr	r3, [r7, #28]
 80049ba:	2b00      	cmp	r3, #0
 80049bc:	d10b      	bne.n	80049d6 <HAL_UART_Transmit+0xe2>
      {
        huart->Instance->TDR = (uint16_t)(*pdata16bits & 0x01FFU);
 80049be:	69bb      	ldr	r3, [r7, #24]
 80049c0:	881b      	ldrh	r3, [r3, #0]
 80049c2:	001a      	movs	r2, r3
 80049c4:	68fb      	ldr	r3, [r7, #12]
 80049c6:	681b      	ldr	r3, [r3, #0]
 80049c8:	05d2      	lsls	r2, r2, #23
 80049ca:	0dd2      	lsrs	r2, r2, #23
 80049cc:	629a      	str	r2, [r3, #40]	@ 0x28
        pdata16bits++;
 80049ce:	69bb      	ldr	r3, [r7, #24]
 80049d0:	3302      	adds	r3, #2
 80049d2:	61bb      	str	r3, [r7, #24]
 80049d4:	e007      	b.n	80049e6 <HAL_UART_Transmit+0xf2>
      }
      else
      {
        huart->Instance->TDR = (uint8_t)(*pdata8bits & 0xFFU);
 80049d6:	69fb      	ldr	r3, [r7, #28]
 80049d8:	781a      	ldrb	r2, [r3, #0]
 80049da:	68fb      	ldr	r3, [r7, #12]
 80049dc:	681b      	ldr	r3, [r3, #0]
 80049de:	629a      	str	r2, [r3, #40]	@ 0x28
        pdata8bits++;
 80049e0:	69fb      	ldr	r3, [r7, #28]
 80049e2:	3301      	adds	r3, #1
 80049e4:	61fb      	str	r3, [r7, #28]
      }
      huart->TxXferCount--;
 80049e6:	68fb      	ldr	r3, [r7, #12]
 80049e8:	2256      	movs	r2, #86	@ 0x56
 80049ea:	5a9b      	ldrh	r3, [r3, r2]
 80049ec:	b29b      	uxth	r3, r3
 80049ee:	3b01      	subs	r3, #1
 80049f0:	b299      	uxth	r1, r3
 80049f2:	68fb      	ldr	r3, [r7, #12]
 80049f4:	2256      	movs	r2, #86	@ 0x56
 80049f6:	5299      	strh	r1, [r3, r2]
    while (huart->TxXferCount > 0U)
 80049f8:	68fb      	ldr	r3, [r7, #12]
 80049fa:	2256      	movs	r2, #86	@ 0x56
 80049fc:	5a9b      	ldrh	r3, [r3, r2]
 80049fe:	b29b      	uxth	r3, r3
 8004a00:	2b00      	cmp	r3, #0
 8004a02:	d1c8      	bne.n	8004996 <HAL_UART_Transmit+0xa2>
    }

    if (UART_WaitOnFlagUntilTimeout(huart, UART_FLAG_TC, RESET, tickstart, Timeout) != HAL_OK)
 8004a04:	697a      	ldr	r2, [r7, #20]
 8004a06:	68f8      	ldr	r0, [r7, #12]
 8004a08:	683b      	ldr	r3, [r7, #0]
 8004a0a:	9300      	str	r3, [sp, #0]
 8004a0c:	0013      	movs	r3, r2
 8004a0e:	2200      	movs	r2, #0
 8004a10:	2140      	movs	r1, #64	@ 0x40
 8004a12:	f000 fb2b 	bl	800506c <UART_WaitOnFlagUntilTimeout>
 8004a16:	1e03      	subs	r3, r0, #0
 8004a18:	d005      	beq.n	8004a26 <HAL_UART_Transmit+0x132>
    {
      huart->gState = HAL_UART_STATE_READY;
 8004a1a:	68fb      	ldr	r3, [r7, #12]
 8004a1c:	2288      	movs	r2, #136	@ 0x88
 8004a1e:	2120      	movs	r1, #32
 8004a20:	5099      	str	r1, [r3, r2]

      return HAL_TIMEOUT;
 8004a22:	2303      	movs	r3, #3
 8004a24:	e006      	b.n	8004a34 <HAL_UART_Transmit+0x140>
    }

    /* At end of Tx process, restore huart->gState to Ready */
    huart->gState = HAL_UART_STATE_READY;
 8004a26:	68fb      	ldr	r3, [r7, #12]
 8004a28:	2288      	movs	r2, #136	@ 0x88
 8004a2a:	2120      	movs	r1, #32
 8004a2c:	5099      	str	r1, [r3, r2]

    return HAL_OK;
 8004a2e:	2300      	movs	r3, #0
 8004a30:	e000      	b.n	8004a34 <HAL_UART_Transmit+0x140>
  }
  else
  {
    return HAL_BUSY;
 8004a32:	2302      	movs	r3, #2
  }
}
 8004a34:	0018      	movs	r0, r3
 8004a36:	46bd      	mov	sp, r7
 8004a38:	b008      	add	sp, #32
 8004a3a:	bd80      	pop	{r7, pc}

08004a3c <UART_SetConfig>:
  * @brief Configure the UART peripheral.
  * @param huart UART handle.
  * @retval HAL status
  */
HAL_StatusTypeDef UART_SetConfig(UART_HandleTypeDef *huart)
{
 8004a3c:	b5b0      	push	{r4, r5, r7, lr}
 8004a3e:	b092      	sub	sp, #72	@ 0x48
 8004a40:	af00      	add	r7, sp, #0
 8004a42:	6278      	str	r0, [r7, #36]	@ 0x24
  uint32_t tmpreg;
  uint16_t brrtemp;
  uint32_t clocksource;
  uint32_t usartdiv;
  HAL_StatusTypeDef ret               = HAL_OK;
 8004a44:	231f      	movs	r3, #31
 8004a46:	2220      	movs	r2, #32
 8004a48:	189b      	adds	r3, r3, r2
 8004a4a:	19db      	adds	r3, r3, r7
 8004a4c:	2200      	movs	r2, #0
 8004a4e:	701a      	strb	r2, [r3, #0]
  *  the UART Word Length, Parity, Mode and oversampling:
  *  set the M bits according to huart->Init.WordLength value
  *  set PCE and PS bits according to huart->Init.Parity value
  *  set TE and RE bits according to huart->Init.Mode value
  *  set OVER8 bit according to huart->Init.OverSampling value */
  tmpreg = (uint32_t)huart->Init.WordLength | huart->Init.Parity | huart->Init.Mode | huart->Init.OverSampling ;
 8004a50:	6a7b      	ldr	r3, [r7, #36]	@ 0x24
 8004a52:	689a      	ldr	r2, [r3, #8]
 8004a54:	6a7b      	ldr	r3, [r7, #36]	@ 0x24
 8004a56:	691b      	ldr	r3, [r3, #16]
 8004a58:	431a      	orrs	r2, r3
 8004a5a:	6a7b      	ldr	r3, [r7, #36]	@ 0x24
 8004a5c:	695b      	ldr	r3, [r3, #20]
 8004a5e:	431a      	orrs	r2, r3
 8004a60:	6a7b      	ldr	r3, [r7, #36]	@ 0x24
 8004a62:	69db      	ldr	r3, [r3, #28]
 8004a64:	4313      	orrs	r3, r2
 8004a66:	647b      	str	r3, [r7, #68]	@ 0x44
  MODIFY_REG(huart->Instance->CR1, USART_CR1_FIELDS, tmpreg);
 8004a68:	6a7b      	ldr	r3, [r7, #36]	@ 0x24
 8004a6a:	681b      	ldr	r3, [r3, #0]
 8004a6c:	681b      	ldr	r3, [r3, #0]
 8004a6e:	4ac6      	ldr	r2, [pc, #792]	@ (8004d88 <UART_SetConfig+0x34c>)
 8004a70:	4013      	ands	r3, r2
 8004a72:	0019      	movs	r1, r3
 8004a74:	6a7b      	ldr	r3, [r7, #36]	@ 0x24
 8004a76:	681a      	ldr	r2, [r3, #0]
 8004a78:	6c7b      	ldr	r3, [r7, #68]	@ 0x44
 8004a7a:	430b      	orrs	r3, r1
 8004a7c:	6013      	str	r3, [r2, #0]

  /*-------------------------- USART CR2 Configuration -----------------------*/
  /* Configure the UART Stop Bits: Set STOP[13:12] bits according
  * to huart->Init.StopBits value */
  MODIFY_REG(huart->Instance->CR2, USART_CR2_STOP, huart->Init.StopBits);
 8004a7e:	6a7b      	ldr	r3, [r7, #36]	@ 0x24
 8004a80:	681b      	ldr	r3, [r3, #0]
 8004a82:	685b      	ldr	r3, [r3, #4]
 8004a84:	4ac1      	ldr	r2, [pc, #772]	@ (8004d8c <UART_SetConfig+0x350>)
 8004a86:	4013      	ands	r3, r2
 8004a88:	0018      	movs	r0, r3
 8004a8a:	6a7b      	ldr	r3, [r7, #36]	@ 0x24
 8004a8c:	68d9      	ldr	r1, [r3, #12]
 8004a8e:	6a7b      	ldr	r3, [r7, #36]	@ 0x24
 8004a90:	681a      	ldr	r2, [r3, #0]
 8004a92:	0003      	movs	r3, r0
 8004a94:	430b      	orrs	r3, r1
 8004a96:	6053      	str	r3, [r2, #4]
  /* Configure
  * - UART HardWare Flow Control: set CTSE and RTSE bits according
  *   to huart->Init.HwFlowCtl value
  * - one-bit sampling method versus three samples' majority rule according
  *   to huart->Init.OneBitSampling (not applicable to LPUART) */
  tmpreg = (uint32_t)huart->Init.HwFlowCtl;
 8004a98:	6a7b      	ldr	r3, [r7, #36]	@ 0x24
 8004a9a:	699b      	ldr	r3, [r3, #24]
 8004a9c:	647b      	str	r3, [r7, #68]	@ 0x44

  if (!(UART_INSTANCE_LOWPOWER(huart)))
 8004a9e:	6a7b      	ldr	r3, [r7, #36]	@ 0x24
 8004aa0:	681b      	ldr	r3, [r3, #0]
 8004aa2:	4abb      	ldr	r2, [pc, #748]	@ (8004d90 <UART_SetConfig+0x354>)
 8004aa4:	4293      	cmp	r3, r2
 8004aa6:	d009      	beq.n	8004abc <UART_SetConfig+0x80>
 8004aa8:	6a7b      	ldr	r3, [r7, #36]	@ 0x24
 8004aaa:	681b      	ldr	r3, [r3, #0]
 8004aac:	4ab9      	ldr	r2, [pc, #740]	@ (8004d94 <UART_SetConfig+0x358>)
 8004aae:	4293      	cmp	r3, r2
 8004ab0:	d004      	beq.n	8004abc <UART_SetConfig+0x80>
  {
    tmpreg |= huart->Init.OneBitSampling;
 8004ab2:	6a7b      	ldr	r3, [r7, #36]	@ 0x24
 8004ab4:	6a1b      	ldr	r3, [r3, #32]
 8004ab6:	6c7a      	ldr	r2, [r7, #68]	@ 0x44
 8004ab8:	4313      	orrs	r3, r2
 8004aba:	647b      	str	r3, [r7, #68]	@ 0x44
  }
  MODIFY_REG(huart->Instance->CR3, USART_CR3_FIELDS, tmpreg);
 8004abc:	6a7b      	ldr	r3, [r7, #36]	@ 0x24
 8004abe:	681b      	ldr	r3, [r3, #0]
 8004ac0:	689b      	ldr	r3, [r3, #8]
 8004ac2:	4ab5      	ldr	r2, [pc, #724]	@ (8004d98 <UART_SetConfig+0x35c>)
 8004ac4:	4013      	ands	r3, r2
 8004ac6:	0019      	movs	r1, r3
 8004ac8:	6a7b      	ldr	r3, [r7, #36]	@ 0x24
 8004aca:	681a      	ldr	r2, [r3, #0]
 8004acc:	6c7b      	ldr	r3, [r7, #68]	@ 0x44
 8004ace:	430b      	orrs	r3, r1
 8004ad0:	6093      	str	r3, [r2, #8]

  /*-------------------------- USART PRESC Configuration -----------------------*/
  /* Configure
  * - UART Clock Prescaler : set PRESCALER according to huart->Init.ClockPrescaler value */
  MODIFY_REG(huart->Instance->PRESC, USART_PRESC_PRESCALER, huart->Init.ClockPrescaler);
 8004ad2:	6a7b      	ldr	r3, [r7, #36]	@ 0x24
 8004ad4:	681b      	ldr	r3, [r3, #0]
 8004ad6:	6adb      	ldr	r3, [r3, #44]	@ 0x2c
 8004ad8:	220f      	movs	r2, #15
 8004ada:	4393      	bics	r3, r2
 8004adc:	0018      	movs	r0, r3
 8004ade:	6a7b      	ldr	r3, [r7, #36]	@ 0x24
 8004ae0:	6a59      	ldr	r1, [r3, #36]	@ 0x24
 8004ae2:	6a7b      	ldr	r3, [r7, #36]	@ 0x24
 8004ae4:	681a      	ldr	r2, [r3, #0]
 8004ae6:	0003      	movs	r3, r0
 8004ae8:	430b      	orrs	r3, r1
 8004aea:	62d3      	str	r3, [r2, #44]	@ 0x2c

  /*-------------------------- USART BRR Configuration -----------------------*/
  UART_GETCLOCKSOURCE(huart, clocksource);
 8004aec:	6a7b      	ldr	r3, [r7, #36]	@ 0x24
 8004aee:	681b      	ldr	r3, [r3, #0]
 8004af0:	4aaa      	ldr	r2, [pc, #680]	@ (8004d9c <UART_SetConfig+0x360>)
 8004af2:	4293      	cmp	r3, r2
 8004af4:	d102      	bne.n	8004afc <UART_SetConfig+0xc0>
 8004af6:	2301      	movs	r3, #1
 8004af8:	643b      	str	r3, [r7, #64]	@ 0x40
 8004afa:	e02b      	b.n	8004b54 <UART_SetConfig+0x118>
 8004afc:	6a7b      	ldr	r3, [r7, #36]	@ 0x24
 8004afe:	681b      	ldr	r3, [r3, #0]
 8004b00:	4aa7      	ldr	r2, [pc, #668]	@ (8004da0 <UART_SetConfig+0x364>)
 8004b02:	4293      	cmp	r3, r2
 8004b04:	d102      	bne.n	8004b0c <UART_SetConfig+0xd0>
 8004b06:	2302      	movs	r3, #2
 8004b08:	643b      	str	r3, [r7, #64]	@ 0x40
 8004b0a:	e023      	b.n	8004b54 <UART_SetConfig+0x118>
 8004b0c:	6a7b      	ldr	r3, [r7, #36]	@ 0x24
 8004b0e:	681b      	ldr	r3, [r3, #0]
 8004b10:	4aa4      	ldr	r2, [pc, #656]	@ (8004da4 <UART_SetConfig+0x368>)
 8004b12:	4293      	cmp	r3, r2
 8004b14:	d103      	bne.n	8004b1e <UART_SetConfig+0xe2>
 8004b16:	2380      	movs	r3, #128	@ 0x80
 8004b18:	025b      	lsls	r3, r3, #9
 8004b1a:	643b      	str	r3, [r7, #64]	@ 0x40
 8004b1c:	e01a      	b.n	8004b54 <UART_SetConfig+0x118>
 8004b1e:	6a7b      	ldr	r3, [r7, #36]	@ 0x24
 8004b20:	681b      	ldr	r3, [r3, #0]
 8004b22:	4aa1      	ldr	r2, [pc, #644]	@ (8004da8 <UART_SetConfig+0x36c>)
 8004b24:	4293      	cmp	r3, r2
 8004b26:	d103      	bne.n	8004b30 <UART_SetConfig+0xf4>
 8004b28:	2380      	movs	r3, #128	@ 0x80
 8004b2a:	029b      	lsls	r3, r3, #10
 8004b2c:	643b      	str	r3, [r7, #64]	@ 0x40
 8004b2e:	e011      	b.n	8004b54 <UART_SetConfig+0x118>
 8004b30:	6a7b      	ldr	r3, [r7, #36]	@ 0x24
 8004b32:	681b      	ldr	r3, [r3, #0]
 8004b34:	4a96      	ldr	r2, [pc, #600]	@ (8004d90 <UART_SetConfig+0x354>)
 8004b36:	4293      	cmp	r3, r2
 8004b38:	d102      	bne.n	8004b40 <UART_SetConfig+0x104>
 8004b3a:	2310      	movs	r3, #16
 8004b3c:	643b      	str	r3, [r7, #64]	@ 0x40
 8004b3e:	e009      	b.n	8004b54 <UART_SetConfig+0x118>
 8004b40:	6a7b      	ldr	r3, [r7, #36]	@ 0x24
 8004b42:	681b      	ldr	r3, [r3, #0]
 8004b44:	4a93      	ldr	r2, [pc, #588]	@ (8004d94 <UART_SetConfig+0x358>)
 8004b46:	4293      	cmp	r3, r2
 8004b48:	d102      	bne.n	8004b50 <UART_SetConfig+0x114>
 8004b4a:	2308      	movs	r3, #8
 8004b4c:	643b      	str	r3, [r7, #64]	@ 0x40
 8004b4e:	e001      	b.n	8004b54 <UART_SetConfig+0x118>
 8004b50:	2300      	movs	r3, #0
 8004b52:	643b      	str	r3, [r7, #64]	@ 0x40

  /* Check LPUART instance */
  if (UART_INSTANCE_LOWPOWER(huart))
 8004b54:	6a7b      	ldr	r3, [r7, #36]	@ 0x24
 8004b56:	681b      	ldr	r3, [r3, #0]
 8004b58:	4a8d      	ldr	r2, [pc, #564]	@ (8004d90 <UART_SetConfig+0x354>)
 8004b5a:	4293      	cmp	r3, r2
 8004b5c:	d005      	beq.n	8004b6a <UART_SetConfig+0x12e>
 8004b5e:	6a7b      	ldr	r3, [r7, #36]	@ 0x24
 8004b60:	681b      	ldr	r3, [r3, #0]
 8004b62:	4a8c      	ldr	r2, [pc, #560]	@ (8004d94 <UART_SetConfig+0x358>)
 8004b64:	4293      	cmp	r3, r2
 8004b66:	d000      	beq.n	8004b6a <UART_SetConfig+0x12e>
 8004b68:	e06f      	b.n	8004c4a <UART_SetConfig+0x20e>
  {
    /* Retrieve frequency clock */
    pclk = HAL_RCCEx_GetPeriphCLKFreq(clocksource);
 8004b6a:	6c3b      	ldr	r3, [r7, #64]	@ 0x40
 8004b6c:	0018      	movs	r0, r3
 8004b6e:	f7ff f88d 	bl	8003c8c <HAL_RCCEx_GetPeriphCLKFreq>
 8004b72:	0003      	movs	r3, r0
 8004b74:	63bb      	str	r3, [r7, #56]	@ 0x38

    /* If proper clock source reported */
    if (pclk != 0U)
 8004b76:	6bbb      	ldr	r3, [r7, #56]	@ 0x38
 8004b78:	2b00      	cmp	r3, #0
 8004b7a:	d100      	bne.n	8004b7e <UART_SetConfig+0x142>
 8004b7c:	e0ec      	b.n	8004d58 <UART_SetConfig+0x31c>
    {
      /* Compute clock after Prescaler */
      lpuart_ker_ck_pres = (pclk / UARTPrescTable[huart->Init.ClockPrescaler]);
 8004b7e:	6a7b      	ldr	r3, [r7, #36]	@ 0x24
 8004b80:	6a5a      	ldr	r2, [r3, #36]	@ 0x24
 8004b82:	4b8a      	ldr	r3, [pc, #552]	@ (8004dac <UART_SetConfig+0x370>)
 8004b84:	0052      	lsls	r2, r2, #1
 8004b86:	5ad3      	ldrh	r3, [r2, r3]
 8004b88:	0019      	movs	r1, r3
 8004b8a:	6bb8      	ldr	r0, [r7, #56]	@ 0x38
 8004b8c:	f7fb face 	bl	800012c <__udivsi3>
 8004b90:	0003      	movs	r3, r0
 8004b92:	62fb      	str	r3, [r7, #44]	@ 0x2c

      /* Ensure that Frequency clock is in the range [3 * baudrate, 4096 * baudrate] */
      if ((lpuart_ker_ck_pres < (3U * huart->Init.BaudRate)) ||
 8004b94:	6a7b      	ldr	r3, [r7, #36]	@ 0x24
 8004b96:	685a      	ldr	r2, [r3, #4]
 8004b98:	0013      	movs	r3, r2
 8004b9a:	005b      	lsls	r3, r3, #1
 8004b9c:	189b      	adds	r3, r3, r2
 8004b9e:	6afa      	ldr	r2, [r7, #44]	@ 0x2c
 8004ba0:	429a      	cmp	r2, r3
 8004ba2:	d305      	bcc.n	8004bb0 <UART_SetConfig+0x174>
          (lpuart_ker_ck_pres > (4096U * huart->Init.BaudRate)))
 8004ba4:	6a7b      	ldr	r3, [r7, #36]	@ 0x24
 8004ba6:	685b      	ldr	r3, [r3, #4]
 8004ba8:	031b      	lsls	r3, r3, #12
      if ((lpuart_ker_ck_pres < (3U * huart->Init.BaudRate)) ||
 8004baa:	6afa      	ldr	r2, [r7, #44]	@ 0x2c
 8004bac:	429a      	cmp	r2, r3
 8004bae:	d906      	bls.n	8004bbe <UART_SetConfig+0x182>
      {
        ret = HAL_ERROR;
 8004bb0:	231f      	movs	r3, #31
 8004bb2:	2220      	movs	r2, #32
 8004bb4:	189b      	adds	r3, r3, r2
 8004bb6:	19db      	adds	r3, r3, r7
 8004bb8:	2201      	movs	r2, #1
 8004bba:	701a      	strb	r2, [r3, #0]
 8004bbc:	e044      	b.n	8004c48 <UART_SetConfig+0x20c>
      }
      else
      {
        /* Check computed UsartDiv value is in allocated range
           (it is forbidden to write values lower than 0x300 in the LPUART_BRR register) */
        usartdiv = (uint32_t)(UART_DIV_LPUART(pclk, huart->Init.BaudRate, huart->Init.ClockPrescaler));
 8004bbe:	6bbb      	ldr	r3, [r7, #56]	@ 0x38
 8004bc0:	61bb      	str	r3, [r7, #24]
 8004bc2:	2300      	movs	r3, #0
 8004bc4:	61fb      	str	r3, [r7, #28]
 8004bc6:	6a7b      	ldr	r3, [r7, #36]	@ 0x24
 8004bc8:	6a5a      	ldr	r2, [r3, #36]	@ 0x24
 8004bca:	4b78      	ldr	r3, [pc, #480]	@ (8004dac <UART_SetConfig+0x370>)
 8004bcc:	0052      	lsls	r2, r2, #1
 8004bce:	5ad3      	ldrh	r3, [r2, r3]
 8004bd0:	613b      	str	r3, [r7, #16]
 8004bd2:	2300      	movs	r3, #0
 8004bd4:	617b      	str	r3, [r7, #20]
 8004bd6:	693a      	ldr	r2, [r7, #16]
 8004bd8:	697b      	ldr	r3, [r7, #20]
 8004bda:	69b8      	ldr	r0, [r7, #24]
 8004bdc:	69f9      	ldr	r1, [r7, #28]
 8004bde:	f7fb fc1b 	bl	8000418 <__aeabi_uldivmod>
 8004be2:	0002      	movs	r2, r0
 8004be4:	000b      	movs	r3, r1
 8004be6:	0e11      	lsrs	r1, r2, #24
 8004be8:	021d      	lsls	r5, r3, #8
 8004bea:	430d      	orrs	r5, r1
 8004bec:	0214      	lsls	r4, r2, #8
 8004bee:	6a7b      	ldr	r3, [r7, #36]	@ 0x24
 8004bf0:	685b      	ldr	r3, [r3, #4]
 8004bf2:	085b      	lsrs	r3, r3, #1
 8004bf4:	60bb      	str	r3, [r7, #8]
 8004bf6:	2300      	movs	r3, #0
 8004bf8:	60fb      	str	r3, [r7, #12]
 8004bfa:	68b8      	ldr	r0, [r7, #8]
 8004bfc:	68f9      	ldr	r1, [r7, #12]
 8004bfe:	1900      	adds	r0, r0, r4
 8004c00:	4169      	adcs	r1, r5
 8004c02:	6a7b      	ldr	r3, [r7, #36]	@ 0x24
 8004c04:	685b      	ldr	r3, [r3, #4]
 8004c06:	603b      	str	r3, [r7, #0]
 8004c08:	2300      	movs	r3, #0
 8004c0a:	607b      	str	r3, [r7, #4]
 8004c0c:	683a      	ldr	r2, [r7, #0]
 8004c0e:	687b      	ldr	r3, [r7, #4]
 8004c10:	f7fb fc02 	bl	8000418 <__aeabi_uldivmod>
 8004c14:	0002      	movs	r2, r0
 8004c16:	000b      	movs	r3, r1
 8004c18:	0013      	movs	r3, r2
 8004c1a:	637b      	str	r3, [r7, #52]	@ 0x34
        if ((usartdiv >= LPUART_BRR_MIN) && (usartdiv <= LPUART_BRR_MAX))
 8004c1c:	6b7a      	ldr	r2, [r7, #52]	@ 0x34
 8004c1e:	23c0      	movs	r3, #192	@ 0xc0
 8004c20:	009b      	lsls	r3, r3, #2
 8004c22:	429a      	cmp	r2, r3
 8004c24:	d309      	bcc.n	8004c3a <UART_SetConfig+0x1fe>
 8004c26:	6b7a      	ldr	r2, [r7, #52]	@ 0x34
 8004c28:	2380      	movs	r3, #128	@ 0x80
 8004c2a:	035b      	lsls	r3, r3, #13
 8004c2c:	429a      	cmp	r2, r3
 8004c2e:	d204      	bcs.n	8004c3a <UART_SetConfig+0x1fe>
        {
          huart->Instance->BRR = usartdiv;
 8004c30:	6a7b      	ldr	r3, [r7, #36]	@ 0x24
 8004c32:	681b      	ldr	r3, [r3, #0]
 8004c34:	6b7a      	ldr	r2, [r7, #52]	@ 0x34
 8004c36:	60da      	str	r2, [r3, #12]
 8004c38:	e006      	b.n	8004c48 <UART_SetConfig+0x20c>
        }
        else
        {
          ret = HAL_ERROR;
 8004c3a:	231f      	movs	r3, #31
 8004c3c:	2220      	movs	r2, #32
 8004c3e:	189b      	adds	r3, r3, r2
 8004c40:	19db      	adds	r3, r3, r7
 8004c42:	2201      	movs	r2, #1
 8004c44:	701a      	strb	r2, [r3, #0]
    if (pclk != 0U)
 8004c46:	e087      	b.n	8004d58 <UART_SetConfig+0x31c>
 8004c48:	e086      	b.n	8004d58 <UART_SetConfig+0x31c>
      } /* if ( (lpuart_ker_ck_pres < (3 * huart->Init.BaudRate) ) ||
                (lpuart_ker_ck_pres > (4096 * huart->Init.BaudRate) )) */
    } /* if (pclk != 0) */
  }
  /* Check UART Over Sampling to set Baud Rate Register */
  else if (huart->Init.OverSampling == UART_OVERSAMPLING_8)
 8004c4a:	6a7b      	ldr	r3, [r7, #36]	@ 0x24
 8004c4c:	69da      	ldr	r2, [r3, #28]
 8004c4e:	2380      	movs	r3, #128	@ 0x80
 8004c50:	021b      	lsls	r3, r3, #8
 8004c52:	429a      	cmp	r2, r3
 8004c54:	d14c      	bne.n	8004cf0 <UART_SetConfig+0x2b4>
  {
    pclk = HAL_RCCEx_GetPeriphCLKFreq(clocksource);
 8004c56:	6c3b      	ldr	r3, [r7, #64]	@ 0x40
 8004c58:	0018      	movs	r0, r3
 8004c5a:	f7ff f817 	bl	8003c8c <HAL_RCCEx_GetPeriphCLKFreq>
 8004c5e:	0003      	movs	r3, r0
 8004c60:	63bb      	str	r3, [r7, #56]	@ 0x38

    /* USARTDIV must be greater than or equal to 0d16 */
    if (pclk != 0U)
 8004c62:	6bbb      	ldr	r3, [r7, #56]	@ 0x38
 8004c64:	2b00      	cmp	r3, #0
 8004c66:	d100      	bne.n	8004c6a <UART_SetConfig+0x22e>
 8004c68:	e076      	b.n	8004d58 <UART_SetConfig+0x31c>
    {
      usartdiv = (uint32_t)(UART_DIV_SAMPLING8(pclk, huart->Init.BaudRate, huart->Init.ClockPrescaler));
 8004c6a:	6a7b      	ldr	r3, [r7, #36]	@ 0x24
 8004c6c:	6a5a      	ldr	r2, [r3, #36]	@ 0x24
 8004c6e:	4b4f      	ldr	r3, [pc, #316]	@ (8004dac <UART_SetConfig+0x370>)
 8004c70:	0052      	lsls	r2, r2, #1
 8004c72:	5ad3      	ldrh	r3, [r2, r3]
 8004c74:	0019      	movs	r1, r3
 8004c76:	6bb8      	ldr	r0, [r7, #56]	@ 0x38
 8004c78:	f7fb fa58 	bl	800012c <__udivsi3>
 8004c7c:	0003      	movs	r3, r0
 8004c7e:	005a      	lsls	r2, r3, #1
 8004c80:	6a7b      	ldr	r3, [r7, #36]	@ 0x24
 8004c82:	685b      	ldr	r3, [r3, #4]
 8004c84:	085b      	lsrs	r3, r3, #1
 8004c86:	18d2      	adds	r2, r2, r3
 8004c88:	6a7b      	ldr	r3, [r7, #36]	@ 0x24
 8004c8a:	685b      	ldr	r3, [r3, #4]
 8004c8c:	0019      	movs	r1, r3
 8004c8e:	0010      	movs	r0, r2
 8004c90:	f7fb fa4c 	bl	800012c <__udivsi3>
 8004c94:	0003      	movs	r3, r0
 8004c96:	637b      	str	r3, [r7, #52]	@ 0x34
      if ((usartdiv >= UART_BRR_MIN) && (usartdiv <= UART_BRR_MAX))
 8004c98:	6b7b      	ldr	r3, [r7, #52]	@ 0x34
 8004c9a:	2b0f      	cmp	r3, #15
 8004c9c:	d921      	bls.n	8004ce2 <UART_SetConfig+0x2a6>
 8004c9e:	6b7a      	ldr	r2, [r7, #52]	@ 0x34
 8004ca0:	2380      	movs	r3, #128	@ 0x80
 8004ca2:	025b      	lsls	r3, r3, #9
 8004ca4:	429a      	cmp	r2, r3
 8004ca6:	d21c      	bcs.n	8004ce2 <UART_SetConfig+0x2a6>
      {
        brrtemp = (uint16_t)(usartdiv & 0xFFF0U);
 8004ca8:	6b7b      	ldr	r3, [r7, #52]	@ 0x34
 8004caa:	b29a      	uxth	r2, r3
 8004cac:	2012      	movs	r0, #18
 8004cae:	2420      	movs	r4, #32
 8004cb0:	1903      	adds	r3, r0, r4
 8004cb2:	19db      	adds	r3, r3, r7
 8004cb4:	210f      	movs	r1, #15
 8004cb6:	438a      	bics	r2, r1
 8004cb8:	801a      	strh	r2, [r3, #0]
        brrtemp |= (uint16_t)((usartdiv & (uint16_t)0x000FU) >> 1U);
 8004cba:	6b7b      	ldr	r3, [r7, #52]	@ 0x34
 8004cbc:	085b      	lsrs	r3, r3, #1
 8004cbe:	b29b      	uxth	r3, r3
 8004cc0:	2207      	movs	r2, #7
 8004cc2:	4013      	ands	r3, r2
 8004cc4:	b299      	uxth	r1, r3
 8004cc6:	1903      	adds	r3, r0, r4
 8004cc8:	19db      	adds	r3, r3, r7
 8004cca:	1902      	adds	r2, r0, r4
 8004ccc:	19d2      	adds	r2, r2, r7
 8004cce:	8812      	ldrh	r2, [r2, #0]
 8004cd0:	430a      	orrs	r2, r1
 8004cd2:	801a      	strh	r2, [r3, #0]
        huart->Instance->BRR = brrtemp;
 8004cd4:	6a7b      	ldr	r3, [r7, #36]	@ 0x24
 8004cd6:	681b      	ldr	r3, [r3, #0]
 8004cd8:	1902      	adds	r2, r0, r4
 8004cda:	19d2      	adds	r2, r2, r7
 8004cdc:	8812      	ldrh	r2, [r2, #0]
 8004cde:	60da      	str	r2, [r3, #12]
 8004ce0:	e03a      	b.n	8004d58 <UART_SetConfig+0x31c>
      }
      else
      {
        ret = HAL_ERROR;
 8004ce2:	231f      	movs	r3, #31
 8004ce4:	2220      	movs	r2, #32
 8004ce6:	189b      	adds	r3, r3, r2
 8004ce8:	19db      	adds	r3, r3, r7
 8004cea:	2201      	movs	r2, #1
 8004cec:	701a      	strb	r2, [r3, #0]
 8004cee:	e033      	b.n	8004d58 <UART_SetConfig+0x31c>
      }
    }
  }
  else
  {
    pclk = HAL_RCCEx_GetPeriphCLKFreq(clocksource);
 8004cf0:	6c3b      	ldr	r3, [r7, #64]	@ 0x40
 8004cf2:	0018      	movs	r0, r3
 8004cf4:	f7fe ffca 	bl	8003c8c <HAL_RCCEx_GetPeriphCLKFreq>
 8004cf8:	0003      	movs	r3, r0
 8004cfa:	63bb      	str	r3, [r7, #56]	@ 0x38

    if (pclk != 0U)
 8004cfc:	6bbb      	ldr	r3, [r7, #56]	@ 0x38
 8004cfe:	2b00      	cmp	r3, #0
 8004d00:	d02a      	beq.n	8004d58 <UART_SetConfig+0x31c>
    {
      /* USARTDIV must be greater than or equal to 0d16 */
      usartdiv = (uint32_t)(UART_DIV_SAMPLING16(pclk, huart->Init.BaudRate, huart->Init.ClockPrescaler));
 8004d02:	6a7b      	ldr	r3, [r7, #36]	@ 0x24
 8004d04:	6a5a      	ldr	r2, [r3, #36]	@ 0x24
 8004d06:	4b29      	ldr	r3, [pc, #164]	@ (8004dac <UART_SetConfig+0x370>)
 8004d08:	0052      	lsls	r2, r2, #1
 8004d0a:	5ad3      	ldrh	r3, [r2, r3]
 8004d0c:	0019      	movs	r1, r3
 8004d0e:	6bb8      	ldr	r0, [r7, #56]	@ 0x38
 8004d10:	f7fb fa0c 	bl	800012c <__udivsi3>
 8004d14:	0003      	movs	r3, r0
 8004d16:	001a      	movs	r2, r3
 8004d18:	6a7b      	ldr	r3, [r7, #36]	@ 0x24
 8004d1a:	685b      	ldr	r3, [r3, #4]
 8004d1c:	085b      	lsrs	r3, r3, #1
 8004d1e:	18d2      	adds	r2, r2, r3
 8004d20:	6a7b      	ldr	r3, [r7, #36]	@ 0x24
 8004d22:	685b      	ldr	r3, [r3, #4]
 8004d24:	0019      	movs	r1, r3
 8004d26:	0010      	movs	r0, r2
 8004d28:	f7fb fa00 	bl	800012c <__udivsi3>
 8004d2c:	0003      	movs	r3, r0
 8004d2e:	637b      	str	r3, [r7, #52]	@ 0x34
      if ((usartdiv >= UART_BRR_MIN) && (usartdiv <= UART_BRR_MAX))
 8004d30:	6b7b      	ldr	r3, [r7, #52]	@ 0x34
 8004d32:	2b0f      	cmp	r3, #15
 8004d34:	d90a      	bls.n	8004d4c <UART_SetConfig+0x310>
 8004d36:	6b7a      	ldr	r2, [r7, #52]	@ 0x34
 8004d38:	2380      	movs	r3, #128	@ 0x80
 8004d3a:	025b      	lsls	r3, r3, #9
 8004d3c:	429a      	cmp	r2, r3
 8004d3e:	d205      	bcs.n	8004d4c <UART_SetConfig+0x310>
      {
        huart->Instance->BRR = (uint16_t)usartdiv;
 8004d40:	6b7b      	ldr	r3, [r7, #52]	@ 0x34
 8004d42:	b29a      	uxth	r2, r3
 8004d44:	6a7b      	ldr	r3, [r7, #36]	@ 0x24
 8004d46:	681b      	ldr	r3, [r3, #0]
 8004d48:	60da      	str	r2, [r3, #12]
 8004d4a:	e005      	b.n	8004d58 <UART_SetConfig+0x31c>
      }
      else
      {
        ret = HAL_ERROR;
 8004d4c:	231f      	movs	r3, #31
 8004d4e:	2220      	movs	r2, #32
 8004d50:	189b      	adds	r3, r3, r2
 8004d52:	19db      	adds	r3, r3, r7
 8004d54:	2201      	movs	r2, #1
 8004d56:	701a      	strb	r2, [r3, #0]
      }
    }
  }

  /* Initialize the number of data to process during RX/TX ISR execution */
  huart->NbTxDataToProcess = 1;
 8004d58:	6a7b      	ldr	r3, [r7, #36]	@ 0x24
 8004d5a:	226a      	movs	r2, #106	@ 0x6a
 8004d5c:	2101      	movs	r1, #1
 8004d5e:	5299      	strh	r1, [r3, r2]
  huart->NbRxDataToProcess = 1;
 8004d60:	6a7b      	ldr	r3, [r7, #36]	@ 0x24
 8004d62:	2268      	movs	r2, #104	@ 0x68
 8004d64:	2101      	movs	r1, #1
 8004d66:	5299      	strh	r1, [r3, r2]

  /* Clear ISR function pointers */
  huart->RxISR = NULL;
 8004d68:	6a7b      	ldr	r3, [r7, #36]	@ 0x24
 8004d6a:	2200      	movs	r2, #0
 8004d6c:	675a      	str	r2, [r3, #116]	@ 0x74
  huart->TxISR = NULL;
 8004d6e:	6a7b      	ldr	r3, [r7, #36]	@ 0x24
 8004d70:	2200      	movs	r2, #0
 8004d72:	679a      	str	r2, [r3, #120]	@ 0x78

  return ret;
 8004d74:	231f      	movs	r3, #31
 8004d76:	2220      	movs	r2, #32
 8004d78:	189b      	adds	r3, r3, r2
 8004d7a:	19db      	adds	r3, r3, r7
 8004d7c:	781b      	ldrb	r3, [r3, #0]
}
 8004d7e:	0018      	movs	r0, r3
 8004d80:	46bd      	mov	sp, r7
 8004d82:	b012      	add	sp, #72	@ 0x48
 8004d84:	bdb0      	pop	{r4, r5, r7, pc}
 8004d86:	46c0      	nop			@ (mov r8, r8)
 8004d88:	cfff69f3 	.word	0xcfff69f3
 8004d8c:	ffffcfff 	.word	0xffffcfff
 8004d90:	40008000 	.word	0x40008000
 8004d94:	40008400 	.word	0x40008400
 8004d98:	11fff4ff 	.word	0x11fff4ff
 8004d9c:	40013800 	.word	0x40013800
 8004da0:	40004400 	.word	0x40004400
 8004da4:	40004800 	.word	0x40004800
 8004da8:	40004c00 	.word	0x40004c00
 8004dac:	08005fbc 	.word	0x08005fbc

08004db0 <UART_AdvFeatureConfig>:
  * @brief Configure the UART peripheral advanced features.
  * @param huart UART handle.
  * @retval None
  */
void UART_AdvFeatureConfig(UART_HandleTypeDef *huart)
{
 8004db0:	b580      	push	{r7, lr}
 8004db2:	b082      	sub	sp, #8
 8004db4:	af00      	add	r7, sp, #0
 8004db6:	6078      	str	r0, [r7, #4]
  /* Check whether the set of advanced features to configure is properly set */
  assert_param(IS_UART_ADVFEATURE_INIT(huart->AdvancedInit.AdvFeatureInit));

  /* if required, configure RX/TX pins swap */
  if (HAL_IS_BIT_SET(huart->AdvancedInit.AdvFeatureInit, UART_ADVFEATURE_SWAP_INIT))
 8004db8:	687b      	ldr	r3, [r7, #4]
 8004dba:	6a9b      	ldr	r3, [r3, #40]	@ 0x28
 8004dbc:	2208      	movs	r2, #8
 8004dbe:	4013      	ands	r3, r2
 8004dc0:	d00b      	beq.n	8004dda <UART_AdvFeatureConfig+0x2a>
  {
    assert_param(IS_UART_ADVFEATURE_SWAP(huart->AdvancedInit.Swap));
    MODIFY_REG(huart->Instance->CR2, USART_CR2_SWAP, huart->AdvancedInit.Swap);
 8004dc2:	687b      	ldr	r3, [r7, #4]
 8004dc4:	681b      	ldr	r3, [r3, #0]
 8004dc6:	685b      	ldr	r3, [r3, #4]
 8004dc8:	4a4a      	ldr	r2, [pc, #296]	@ (8004ef4 <UART_AdvFeatureConfig+0x144>)
 8004dca:	4013      	ands	r3, r2
 8004dcc:	0019      	movs	r1, r3
 8004dce:	687b      	ldr	r3, [r7, #4]
 8004dd0:	6b9a      	ldr	r2, [r3, #56]	@ 0x38
 8004dd2:	687b      	ldr	r3, [r7, #4]
 8004dd4:	681b      	ldr	r3, [r3, #0]
 8004dd6:	430a      	orrs	r2, r1
 8004dd8:	605a      	str	r2, [r3, #4]
  }

  /* if required, configure TX pin active level inversion */
  if (HAL_IS_BIT_SET(huart->AdvancedInit.AdvFeatureInit, UART_ADVFEATURE_TXINVERT_INIT))
 8004dda:	687b      	ldr	r3, [r7, #4]
 8004ddc:	6a9b      	ldr	r3, [r3, #40]	@ 0x28
 8004dde:	2201      	movs	r2, #1
 8004de0:	4013      	ands	r3, r2
 8004de2:	d00b      	beq.n	8004dfc <UART_AdvFeatureConfig+0x4c>
  {
    assert_param(IS_UART_ADVFEATURE_TXINV(huart->AdvancedInit.TxPinLevelInvert));
    MODIFY_REG(huart->Instance->CR2, USART_CR2_TXINV, huart->AdvancedInit.TxPinLevelInvert);
 8004de4:	687b      	ldr	r3, [r7, #4]
 8004de6:	681b      	ldr	r3, [r3, #0]
 8004de8:	685b      	ldr	r3, [r3, #4]
 8004dea:	4a43      	ldr	r2, [pc, #268]	@ (8004ef8 <UART_AdvFeatureConfig+0x148>)
 8004dec:	4013      	ands	r3, r2
 8004dee:	0019      	movs	r1, r3
 8004df0:	687b      	ldr	r3, [r7, #4]
 8004df2:	6ada      	ldr	r2, [r3, #44]	@ 0x2c
 8004df4:	687b      	ldr	r3, [r7, #4]
 8004df6:	681b      	ldr	r3, [r3, #0]
 8004df8:	430a      	orrs	r2, r1
 8004dfa:	605a      	str	r2, [r3, #4]
  }

  /* if required, configure RX pin active level inversion */
  if (HAL_IS_BIT_SET(huart->AdvancedInit.AdvFeatureInit, UART_ADVFEATURE_RXINVERT_INIT))
 8004dfc:	687b      	ldr	r3, [r7, #4]
 8004dfe:	6a9b      	ldr	r3, [r3, #40]	@ 0x28
 8004e00:	2202      	movs	r2, #2
 8004e02:	4013      	ands	r3, r2
 8004e04:	d00b      	beq.n	8004e1e <UART_AdvFeatureConfig+0x6e>
  {
    assert_param(IS_UART_ADVFEATURE_RXINV(huart->AdvancedInit.RxPinLevelInvert));
    MODIFY_REG(huart->Instance->CR2, USART_CR2_RXINV, huart->AdvancedInit.RxPinLevelInvert);
 8004e06:	687b      	ldr	r3, [r7, #4]
 8004e08:	681b      	ldr	r3, [r3, #0]
 8004e0a:	685b      	ldr	r3, [r3, #4]
 8004e0c:	4a3b      	ldr	r2, [pc, #236]	@ (8004efc <UART_AdvFeatureConfig+0x14c>)
 8004e0e:	4013      	ands	r3, r2
 8004e10:	0019      	movs	r1, r3
 8004e12:	687b      	ldr	r3, [r7, #4]
 8004e14:	6b1a      	ldr	r2, [r3, #48]	@ 0x30
 8004e16:	687b      	ldr	r3, [r7, #4]
 8004e18:	681b      	ldr	r3, [r3, #0]
 8004e1a:	430a      	orrs	r2, r1
 8004e1c:	605a      	str	r2, [r3, #4]
  }

  /* if required, configure data inversion */
  if (HAL_IS_BIT_SET(huart->AdvancedInit.AdvFeatureInit, UART_ADVFEATURE_DATAINVERT_INIT))
 8004e1e:	687b      	ldr	r3, [r7, #4]
 8004e20:	6a9b      	ldr	r3, [r3, #40]	@ 0x28
 8004e22:	2204      	movs	r2, #4
 8004e24:	4013      	ands	r3, r2
 8004e26:	d00b      	beq.n	8004e40 <UART_AdvFeatureConfig+0x90>
  {
    assert_param(IS_UART_ADVFEATURE_DATAINV(huart->AdvancedInit.DataInvert));
    MODIFY_REG(huart->Instance->CR2, USART_CR2_DATAINV, huart->AdvancedInit.DataInvert);
 8004e28:	687b      	ldr	r3, [r7, #4]
 8004e2a:	681b      	ldr	r3, [r3, #0]
 8004e2c:	685b      	ldr	r3, [r3, #4]
 8004e2e:	4a34      	ldr	r2, [pc, #208]	@ (8004f00 <UART_AdvFeatureConfig+0x150>)
 8004e30:	4013      	ands	r3, r2
 8004e32:	0019      	movs	r1, r3
 8004e34:	687b      	ldr	r3, [r7, #4]
 8004e36:	6b5a      	ldr	r2, [r3, #52]	@ 0x34
 8004e38:	687b      	ldr	r3, [r7, #4]
 8004e3a:	681b      	ldr	r3, [r3, #0]
 8004e3c:	430a      	orrs	r2, r1
 8004e3e:	605a      	str	r2, [r3, #4]
  }

  /* if required, configure RX overrun detection disabling */
  if (HAL_IS_BIT_SET(huart->AdvancedInit.AdvFeatureInit, UART_ADVFEATURE_RXOVERRUNDISABLE_INIT))
 8004e40:	687b      	ldr	r3, [r7, #4]
 8004e42:	6a9b      	ldr	r3, [r3, #40]	@ 0x28
 8004e44:	2210      	movs	r2, #16
 8004e46:	4013      	ands	r3, r2
 8004e48:	d00b      	beq.n	8004e62 <UART_AdvFeatureConfig+0xb2>
  {
    assert_param(IS_UART_OVERRUN(huart->AdvancedInit.OverrunDisable));
    MODIFY_REG(huart->Instance->CR3, USART_CR3_OVRDIS, huart->AdvancedInit.OverrunDisable);
 8004e4a:	687b      	ldr	r3, [r7, #4]
 8004e4c:	681b      	ldr	r3, [r3, #0]
 8004e4e:	689b      	ldr	r3, [r3, #8]
 8004e50:	4a2c      	ldr	r2, [pc, #176]	@ (8004f04 <UART_AdvFeatureConfig+0x154>)
 8004e52:	4013      	ands	r3, r2
 8004e54:	0019      	movs	r1, r3
 8004e56:	687b      	ldr	r3, [r7, #4]
 8004e58:	6bda      	ldr	r2, [r3, #60]	@ 0x3c
 8004e5a:	687b      	ldr	r3, [r7, #4]
 8004e5c:	681b      	ldr	r3, [r3, #0]
 8004e5e:	430a      	orrs	r2, r1
 8004e60:	609a      	str	r2, [r3, #8]
  }

#if defined(HAL_DMA_MODULE_ENABLED)
  /* if required, configure DMA disabling on reception error */
  if (HAL_IS_BIT_SET(huart->AdvancedInit.AdvFeatureInit, UART_ADVFEATURE_DMADISABLEONERROR_INIT))
 8004e62:	687b      	ldr	r3, [r7, #4]
 8004e64:	6a9b      	ldr	r3, [r3, #40]	@ 0x28
 8004e66:	2220      	movs	r2, #32
 8004e68:	4013      	ands	r3, r2
 8004e6a:	d00b      	beq.n	8004e84 <UART_AdvFeatureConfig+0xd4>
  {
    assert_param(IS_UART_ADVFEATURE_DMAONRXERROR(huart->AdvancedInit.DMADisableonRxError));
    MODIFY_REG(huart->Instance->CR3, USART_CR3_DDRE, huart->AdvancedInit.DMADisableonRxError);
 8004e6c:	687b      	ldr	r3, [r7, #4]
 8004e6e:	681b      	ldr	r3, [r3, #0]
 8004e70:	689b      	ldr	r3, [r3, #8]
 8004e72:	4a25      	ldr	r2, [pc, #148]	@ (8004f08 <UART_AdvFeatureConfig+0x158>)
 8004e74:	4013      	ands	r3, r2
 8004e76:	0019      	movs	r1, r3
 8004e78:	687b      	ldr	r3, [r7, #4]
 8004e7a:	6c1a      	ldr	r2, [r3, #64]	@ 0x40
 8004e7c:	687b      	ldr	r3, [r7, #4]
 8004e7e:	681b      	ldr	r3, [r3, #0]
 8004e80:	430a      	orrs	r2, r1
 8004e82:	609a      	str	r2, [r3, #8]
  }
#endif /* HAL_DMA_MODULE_ENABLED */

  /* if required, configure auto Baud rate detection scheme */
  if (HAL_IS_BIT_SET(huart->AdvancedInit.AdvFeatureInit, UART_ADVFEATURE_AUTOBAUDRATE_INIT))
 8004e84:	687b      	ldr	r3, [r7, #4]
 8004e86:	6a9b      	ldr	r3, [r3, #40]	@ 0x28
 8004e88:	2240      	movs	r2, #64	@ 0x40
 8004e8a:	4013      	ands	r3, r2
 8004e8c:	d01d      	beq.n	8004eca <UART_AdvFeatureConfig+0x11a>
  {
    assert_param(IS_USART_AUTOBAUDRATE_DETECTION_INSTANCE(huart->Instance));
    assert_param(IS_UART_ADVFEATURE_AUTOBAUDRATE(huart->AdvancedInit.AutoBaudRateEnable));
    MODIFY_REG(huart->Instance->CR2, USART_CR2_ABREN, huart->AdvancedInit.AutoBaudRateEnable);
 8004e8e:	687b      	ldr	r3, [r7, #4]
 8004e90:	681b      	ldr	r3, [r3, #0]
 8004e92:	685b      	ldr	r3, [r3, #4]
 8004e94:	4a1d      	ldr	r2, [pc, #116]	@ (8004f0c <UART_AdvFeatureConfig+0x15c>)
 8004e96:	4013      	ands	r3, r2
 8004e98:	0019      	movs	r1, r3
 8004e9a:	687b      	ldr	r3, [r7, #4]
 8004e9c:	6c5a      	ldr	r2, [r3, #68]	@ 0x44
 8004e9e:	687b      	ldr	r3, [r7, #4]
 8004ea0:	681b      	ldr	r3, [r3, #0]
 8004ea2:	430a      	orrs	r2, r1
 8004ea4:	605a      	str	r2, [r3, #4]
    /* set auto Baudrate detection parameters if detection is enabled */
    if (huart->AdvancedInit.AutoBaudRateEnable == UART_ADVFEATURE_AUTOBAUDRATE_ENABLE)
 8004ea6:	687b      	ldr	r3, [r7, #4]
 8004ea8:	6c5a      	ldr	r2, [r3, #68]	@ 0x44
 8004eaa:	2380      	movs	r3, #128	@ 0x80
 8004eac:	035b      	lsls	r3, r3, #13
 8004eae:	429a      	cmp	r2, r3
 8004eb0:	d10b      	bne.n	8004eca <UART_AdvFeatureConfig+0x11a>
    {
      assert_param(IS_UART_ADVFEATURE_AUTOBAUDRATEMODE(huart->AdvancedInit.AutoBaudRateMode));
      MODIFY_REG(huart->Instance->CR2, USART_CR2_ABRMODE, huart->AdvancedInit.AutoBaudRateMode);
 8004eb2:	687b      	ldr	r3, [r7, #4]
 8004eb4:	681b      	ldr	r3, [r3, #0]
 8004eb6:	685b      	ldr	r3, [r3, #4]
 8004eb8:	4a15      	ldr	r2, [pc, #84]	@ (8004f10 <UART_AdvFeatureConfig+0x160>)
 8004eba:	4013      	ands	r3, r2
 8004ebc:	0019      	movs	r1, r3
 8004ebe:	687b      	ldr	r3, [r7, #4]
 8004ec0:	6c9a      	ldr	r2, [r3, #72]	@ 0x48
 8004ec2:	687b      	ldr	r3, [r7, #4]
 8004ec4:	681b      	ldr	r3, [r3, #0]
 8004ec6:	430a      	orrs	r2, r1
 8004ec8:	605a      	str	r2, [r3, #4]
    }
  }

  /* if required, configure MSB first on communication line */
  if (HAL_IS_BIT_SET(huart->AdvancedInit.AdvFeatureInit, UART_ADVFEATURE_MSBFIRST_INIT))
 8004eca:	687b      	ldr	r3, [r7, #4]
 8004ecc:	6a9b      	ldr	r3, [r3, #40]	@ 0x28
 8004ece:	2280      	movs	r2, #128	@ 0x80
 8004ed0:	4013      	ands	r3, r2
 8004ed2:	d00b      	beq.n	8004eec <UART_AdvFeatureConfig+0x13c>
  {
    assert_param(IS_UART_ADVFEATURE_MSBFIRST(huart->AdvancedInit.MSBFirst));
    MODIFY_REG(huart->Instance->CR2, USART_CR2_MSBFIRST, huart->AdvancedInit.MSBFirst);
 8004ed4:	687b      	ldr	r3, [r7, #4]
 8004ed6:	681b      	ldr	r3, [r3, #0]
 8004ed8:	685b      	ldr	r3, [r3, #4]
 8004eda:	4a0e      	ldr	r2, [pc, #56]	@ (8004f14 <UART_AdvFeatureConfig+0x164>)
 8004edc:	4013      	ands	r3, r2
 8004ede:	0019      	movs	r1, r3
 8004ee0:	687b      	ldr	r3, [r7, #4]
 8004ee2:	6cda      	ldr	r2, [r3, #76]	@ 0x4c
 8004ee4:	687b      	ldr	r3, [r7, #4]
 8004ee6:	681b      	ldr	r3, [r3, #0]
 8004ee8:	430a      	orrs	r2, r1
 8004eea:	605a      	str	r2, [r3, #4]
  }
}
 8004eec:	46c0      	nop			@ (mov r8, r8)
 8004eee:	46bd      	mov	sp, r7
 8004ef0:	b002      	add	sp, #8
 8004ef2:	bd80      	pop	{r7, pc}
 8004ef4:	ffff7fff 	.word	0xffff7fff
 8004ef8:	fffdffff 	.word	0xfffdffff
 8004efc:	fffeffff 	.word	0xfffeffff
 8004f00:	fffbffff 	.word	0xfffbffff
 8004f04:	ffffefff 	.word	0xffffefff
 8004f08:	ffffdfff 	.word	0xffffdfff
 8004f0c:	ffefffff 	.word	0xffefffff
 8004f10:	ff9fffff 	.word	0xff9fffff
 8004f14:	fff7ffff 	.word	0xfff7ffff

08004f18 <UART_CheckIdleState>:
  * @brief Check the UART Idle State.
  * @param huart UART handle.
  * @retval HAL status
  */
HAL_StatusTypeDef UART_CheckIdleState(UART_HandleTypeDef *huart)
{
 8004f18:	b580      	push	{r7, lr}
 8004f1a:	b092      	sub	sp, #72	@ 0x48
 8004f1c:	af02      	add	r7, sp, #8
 8004f1e:	6078      	str	r0, [r7, #4]
  uint32_t tickstart;

  /* Initialize the UART ErrorCode */
  huart->ErrorCode = HAL_UART_ERROR_NONE;
 8004f20:	687b      	ldr	r3, [r7, #4]
 8004f22:	2290      	movs	r2, #144	@ 0x90
 8004f24:	2100      	movs	r1, #0
 8004f26:	5099      	str	r1, [r3, r2]

  /* Init tickstart for timeout management */
  tickstart = HAL_GetTick();
 8004f28:	f7fc fc5a 	bl	80017e0 <HAL_GetTick>
 8004f2c:	0003      	movs	r3, r0
 8004f2e:	63fb      	str	r3, [r7, #60]	@ 0x3c

  /* Check if the Transmitter is enabled */
  if ((huart->Instance->CR1 & USART_CR1_TE) == USART_CR1_TE)
 8004f30:	687b      	ldr	r3, [r7, #4]
 8004f32:	681b      	ldr	r3, [r3, #0]
 8004f34:	681b      	ldr	r3, [r3, #0]
 8004f36:	2208      	movs	r2, #8
 8004f38:	4013      	ands	r3, r2
 8004f3a:	2b08      	cmp	r3, #8
 8004f3c:	d12d      	bne.n	8004f9a <UART_CheckIdleState+0x82>
  {
    /* Wait until TEACK flag is set */
    if (UART_WaitOnFlagUntilTimeout(huart, USART_ISR_TEACK, RESET, tickstart, HAL_UART_TIMEOUT_VALUE) != HAL_OK)
 8004f3e:	6bfb      	ldr	r3, [r7, #60]	@ 0x3c
 8004f40:	2280      	movs	r2, #128	@ 0x80
 8004f42:	0391      	lsls	r1, r2, #14
 8004f44:	6878      	ldr	r0, [r7, #4]
 8004f46:	4a47      	ldr	r2, [pc, #284]	@ (8005064 <UART_CheckIdleState+0x14c>)
 8004f48:	9200      	str	r2, [sp, #0]
 8004f4a:	2200      	movs	r2, #0
 8004f4c:	f000 f88e 	bl	800506c <UART_WaitOnFlagUntilTimeout>
 8004f50:	1e03      	subs	r3, r0, #0
 8004f52:	d022      	beq.n	8004f9a <UART_CheckIdleState+0x82>
 */
__STATIC_FORCEINLINE uint32_t __get_PRIMASK(void)
{
  uint32_t result;

  __ASM volatile ("MRS %0, primask" : "=r" (result) );
 8004f54:	f3ef 8310 	mrs	r3, PRIMASK
 8004f58:	627b      	str	r3, [r7, #36]	@ 0x24
  return(result);
 8004f5a:	6a7b      	ldr	r3, [r7, #36]	@ 0x24
    {
      /* Disable TXE interrupt for the interrupt process */
      ATOMIC_CLEAR_BIT(huart->Instance->CR1, (USART_CR1_TXEIE_TXFNFIE));
 8004f5c:	63bb      	str	r3, [r7, #56]	@ 0x38
 8004f5e:	2301      	movs	r3, #1
 8004f60:	62bb      	str	r3, [r7, #40]	@ 0x28
  \details Assigns the given value to the Priority Mask Register.
  \param [in]    priMask  Priority Mask
 */
__STATIC_FORCEINLINE void __set_PRIMASK(uint32_t priMask)
{
  __ASM volatile ("MSR primask, %0" : : "r" (priMask) : "memory");
 8004f62:	6abb      	ldr	r3, [r7, #40]	@ 0x28
 8004f64:	f383 8810 	msr	PRIMASK, r3
}
 8004f68:	46c0      	nop			@ (mov r8, r8)
 8004f6a:	687b      	ldr	r3, [r7, #4]
 8004f6c:	681b      	ldr	r3, [r3, #0]
 8004f6e:	681a      	ldr	r2, [r3, #0]
 8004f70:	687b      	ldr	r3, [r7, #4]
 8004f72:	681b      	ldr	r3, [r3, #0]
 8004f74:	2180      	movs	r1, #128	@ 0x80
 8004f76:	438a      	bics	r2, r1
 8004f78:	601a      	str	r2, [r3, #0]
 8004f7a:	6bbb      	ldr	r3, [r7, #56]	@ 0x38
 8004f7c:	62fb      	str	r3, [r7, #44]	@ 0x2c
  __ASM volatile ("MSR primask, %0" : : "r" (priMask) : "memory");
 8004f7e:	6afb      	ldr	r3, [r7, #44]	@ 0x2c
 8004f80:	f383 8810 	msr	PRIMASK, r3
}
 8004f84:	46c0      	nop			@ (mov r8, r8)

      huart->gState = HAL_UART_STATE_READY;
 8004f86:	687b      	ldr	r3, [r7, #4]
 8004f88:	2288      	movs	r2, #136	@ 0x88
 8004f8a:	2120      	movs	r1, #32
 8004f8c:	5099      	str	r1, [r3, r2]

      __HAL_UNLOCK(huart);
 8004f8e:	687b      	ldr	r3, [r7, #4]
 8004f90:	2284      	movs	r2, #132	@ 0x84
 8004f92:	2100      	movs	r1, #0
 8004f94:	5499      	strb	r1, [r3, r2]

      /* Timeout occurred */
      return HAL_TIMEOUT;
 8004f96:	2303      	movs	r3, #3
 8004f98:	e060      	b.n	800505c <UART_CheckIdleState+0x144>
    }
  }

  /* Check if the Receiver is enabled */
  if ((huart->Instance->CR1 & USART_CR1_RE) == USART_CR1_RE)
 8004f9a:	687b      	ldr	r3, [r7, #4]
 8004f9c:	681b      	ldr	r3, [r3, #0]
 8004f9e:	681b      	ldr	r3, [r3, #0]
 8004fa0:	2204      	movs	r2, #4
 8004fa2:	4013      	ands	r3, r2
 8004fa4:	2b04      	cmp	r3, #4
 8004fa6:	d146      	bne.n	8005036 <UART_CheckIdleState+0x11e>
  {
    /* Wait until REACK flag is set */
    if (UART_WaitOnFlagUntilTimeout(huart, USART_ISR_REACK, RESET, tickstart, HAL_UART_TIMEOUT_VALUE) != HAL_OK)
 8004fa8:	6bfb      	ldr	r3, [r7, #60]	@ 0x3c
 8004faa:	2280      	movs	r2, #128	@ 0x80
 8004fac:	03d1      	lsls	r1, r2, #15
 8004fae:	6878      	ldr	r0, [r7, #4]
 8004fb0:	4a2c      	ldr	r2, [pc, #176]	@ (8005064 <UART_CheckIdleState+0x14c>)
 8004fb2:	9200      	str	r2, [sp, #0]
 8004fb4:	2200      	movs	r2, #0
 8004fb6:	f000 f859 	bl	800506c <UART_WaitOnFlagUntilTimeout>
 8004fba:	1e03      	subs	r3, r0, #0
 8004fbc:	d03b      	beq.n	8005036 <UART_CheckIdleState+0x11e>
  __ASM volatile ("MRS %0, primask" : "=r" (result) );
 8004fbe:	f3ef 8310 	mrs	r3, PRIMASK
 8004fc2:	60fb      	str	r3, [r7, #12]
  return(result);
 8004fc4:	68fb      	ldr	r3, [r7, #12]
    {
      /* Disable RXNE, PE and ERR (Frame error, noise error, overrun error)
      interrupts for the interrupt process */
      ATOMIC_CLEAR_BIT(huart->Instance->CR1, (USART_CR1_RXNEIE_RXFNEIE | USART_CR1_PEIE));
 8004fc6:	637b      	str	r3, [r7, #52]	@ 0x34
 8004fc8:	2301      	movs	r3, #1
 8004fca:	613b      	str	r3, [r7, #16]
  __ASM volatile ("MSR primask, %0" : : "r" (priMask) : "memory");
 8004fcc:	693b      	ldr	r3, [r7, #16]
 8004fce:	f383 8810 	msr	PRIMASK, r3
}
 8004fd2:	46c0      	nop			@ (mov r8, r8)
 8004fd4:	687b      	ldr	r3, [r7, #4]
 8004fd6:	681b      	ldr	r3, [r3, #0]
 8004fd8:	681a      	ldr	r2, [r3, #0]
 8004fda:	687b      	ldr	r3, [r7, #4]
 8004fdc:	681b      	ldr	r3, [r3, #0]
 8004fde:	4922      	ldr	r1, [pc, #136]	@ (8005068 <UART_CheckIdleState+0x150>)
 8004fe0:	400a      	ands	r2, r1
 8004fe2:	601a      	str	r2, [r3, #0]
 8004fe4:	6b7b      	ldr	r3, [r7, #52]	@ 0x34
 8004fe6:	617b      	str	r3, [r7, #20]
  __ASM volatile ("MSR primask, %0" : : "r" (priMask) : "memory");
 8004fe8:	697b      	ldr	r3, [r7, #20]
 8004fea:	f383 8810 	msr	PRIMASK, r3
}
 8004fee:	46c0      	nop			@ (mov r8, r8)
  __ASM volatile ("MRS %0, primask" : "=r" (result) );
 8004ff0:	f3ef 8310 	mrs	r3, PRIMASK
 8004ff4:	61bb      	str	r3, [r7, #24]
  return(result);
 8004ff6:	69bb      	ldr	r3, [r7, #24]
      ATOMIC_CLEAR_BIT(huart->Instance->CR3, USART_CR3_EIE);
 8004ff8:	633b      	str	r3, [r7, #48]	@ 0x30
 8004ffa:	2301      	movs	r3, #1
 8004ffc:	61fb      	str	r3, [r7, #28]
  __ASM volatile ("MSR primask, %0" : : "r" (priMask) : "memory");
 8004ffe:	69fb      	ldr	r3, [r7, #28]
 8005000:	f383 8810 	msr	PRIMASK, r3
}
 8005004:	46c0      	nop			@ (mov r8, r8)
 8005006:	687b      	ldr	r3, [r7, #4]
 8005008:	681b      	ldr	r3, [r3, #0]
 800500a:	689a      	ldr	r2, [r3, #8]
 800500c:	687b      	ldr	r3, [r7, #4]
 800500e:	681b      	ldr	r3, [r3, #0]
 8005010:	2101      	movs	r1, #1
 8005012:	438a      	bics	r2, r1
 8005014:	609a      	str	r2, [r3, #8]
 8005016:	6b3b      	ldr	r3, [r7, #48]	@ 0x30
 8005018:	623b      	str	r3, [r7, #32]
  __ASM volatile ("MSR primask, %0" : : "r" (priMask) : "memory");
 800501a:	6a3b      	ldr	r3, [r7, #32]
 800501c:	f383 8810 	msr	PRIMASK, r3
}
 8005020:	46c0      	nop			@ (mov r8, r8)

      huart->RxState = HAL_UART_STATE_READY;
 8005022:	687b      	ldr	r3, [r7, #4]
 8005024:	228c      	movs	r2, #140	@ 0x8c
 8005026:	2120      	movs	r1, #32
 8005028:	5099      	str	r1, [r3, r2]

      __HAL_UNLOCK(huart);
 800502a:	687b      	ldr	r3, [r7, #4]
 800502c:	2284      	movs	r2, #132	@ 0x84
 800502e:	2100      	movs	r1, #0
 8005030:	5499      	strb	r1, [r3, r2]

      /* Timeout occurred */
      return HAL_TIMEOUT;
 8005032:	2303      	movs	r3, #3
 8005034:	e012      	b.n	800505c <UART_CheckIdleState+0x144>
    }
  }

  /* Initialize the UART State */
  huart->gState = HAL_UART_STATE_READY;
 8005036:	687b      	ldr	r3, [r7, #4]
 8005038:	2288      	movs	r2, #136	@ 0x88
 800503a:	2120      	movs	r1, #32
 800503c:	5099      	str	r1, [r3, r2]
  huart->RxState = HAL_UART_STATE_READY;
 800503e:	687b      	ldr	r3, [r7, #4]
 8005040:	228c      	movs	r2, #140	@ 0x8c
 8005042:	2120      	movs	r1, #32
 8005044:	5099      	str	r1, [r3, r2]
  huart->ReceptionType = HAL_UART_RECEPTION_STANDARD;
 8005046:	687b      	ldr	r3, [r7, #4]
 8005048:	2200      	movs	r2, #0
 800504a:	66da      	str	r2, [r3, #108]	@ 0x6c
  huart->RxEventType = HAL_UART_RXEVENT_TC;
 800504c:	687b      	ldr	r3, [r7, #4]
 800504e:	2200      	movs	r2, #0
 8005050:	671a      	str	r2, [r3, #112]	@ 0x70

  __HAL_UNLOCK(huart);
 8005052:	687b      	ldr	r3, [r7, #4]
 8005054:	2284      	movs	r2, #132	@ 0x84
 8005056:	2100      	movs	r1, #0
 8005058:	5499      	strb	r1, [r3, r2]

  return HAL_OK;
 800505a:	2300      	movs	r3, #0
}
 800505c:	0018      	movs	r0, r3
 800505e:	46bd      	mov	sp, r7
 8005060:	b010      	add	sp, #64	@ 0x40
 8005062:	bd80      	pop	{r7, pc}
 8005064:	01ffffff 	.word	0x01ffffff
 8005068:	fffffedf 	.word	0xfffffedf

0800506c <UART_WaitOnFlagUntilTimeout>:
  * @param Timeout   Timeout duration
  * @retval HAL status
  */
HAL_StatusTypeDef UART_WaitOnFlagUntilTimeout(UART_HandleTypeDef *huart, uint32_t Flag, FlagStatus Status,
                                              uint32_t Tickstart, uint32_t Timeout)
{
 800506c:	b580      	push	{r7, lr}
 800506e:	b084      	sub	sp, #16
 8005070:	af00      	add	r7, sp, #0
 8005072:	60f8      	str	r0, [r7, #12]
 8005074:	60b9      	str	r1, [r7, #8]
 8005076:	603b      	str	r3, [r7, #0]
 8005078:	1dfb      	adds	r3, r7, #7
 800507a:	701a      	strb	r2, [r3, #0]
  /* Wait until flag is set */
  while ((__HAL_UART_GET_FLAG(huart, Flag) ? SET : RESET) == Status)
 800507c:	e051      	b.n	8005122 <UART_WaitOnFlagUntilTimeout+0xb6>
  {
    /* Check for the Timeout */
    if (Timeout != HAL_MAX_DELAY)
 800507e:	69bb      	ldr	r3, [r7, #24]
 8005080:	3301      	adds	r3, #1
 8005082:	d04e      	beq.n	8005122 <UART_WaitOnFlagUntilTimeout+0xb6>
    {
      if (((HAL_GetTick() - Tickstart) > Timeout) || (Timeout == 0U))
 8005084:	f7fc fbac 	bl	80017e0 <HAL_GetTick>
 8005088:	0002      	movs	r2, r0
 800508a:	683b      	ldr	r3, [r7, #0]
 800508c:	1ad3      	subs	r3, r2, r3
 800508e:	69ba      	ldr	r2, [r7, #24]
 8005090:	429a      	cmp	r2, r3
 8005092:	d302      	bcc.n	800509a <UART_WaitOnFlagUntilTimeout+0x2e>
 8005094:	69bb      	ldr	r3, [r7, #24]
 8005096:	2b00      	cmp	r3, #0
 8005098:	d101      	bne.n	800509e <UART_WaitOnFlagUntilTimeout+0x32>
      {

        return HAL_TIMEOUT;
 800509a:	2303      	movs	r3, #3
 800509c:	e051      	b.n	8005142 <UART_WaitOnFlagUntilTimeout+0xd6>
      }

      if ((READ_BIT(huart->Instance->CR1, USART_CR1_RE) != 0U) && (Flag != UART_FLAG_TXE) && (Flag != UART_FLAG_TC))
 800509e:	68fb      	ldr	r3, [r7, #12]
 80050a0:	681b      	ldr	r3, [r3, #0]
 80050a2:	681b      	ldr	r3, [r3, #0]
 80050a4:	2204      	movs	r2, #4
 80050a6:	4013      	ands	r3, r2
 80050a8:	d03b      	beq.n	8005122 <UART_WaitOnFlagUntilTimeout+0xb6>
 80050aa:	68bb      	ldr	r3, [r7, #8]
 80050ac:	2b80      	cmp	r3, #128	@ 0x80
 80050ae:	d038      	beq.n	8005122 <UART_WaitOnFlagUntilTimeout+0xb6>
 80050b0:	68bb      	ldr	r3, [r7, #8]
 80050b2:	2b40      	cmp	r3, #64	@ 0x40
 80050b4:	d035      	beq.n	8005122 <UART_WaitOnFlagUntilTimeout+0xb6>
      {
        if (__HAL_UART_GET_FLAG(huart, UART_FLAG_ORE) == SET)
 80050b6:	68fb      	ldr	r3, [r7, #12]
 80050b8:	681b      	ldr	r3, [r3, #0]
 80050ba:	69db      	ldr	r3, [r3, #28]
 80050bc:	2208      	movs	r2, #8
 80050be:	4013      	ands	r3, r2
 80050c0:	2b08      	cmp	r3, #8
 80050c2:	d111      	bne.n	80050e8 <UART_WaitOnFlagUntilTimeout+0x7c>
        {
          /* Clear Overrun Error flag*/
          __HAL_UART_CLEAR_FLAG(huart, UART_CLEAR_OREF);
 80050c4:	68fb      	ldr	r3, [r7, #12]
 80050c6:	681b      	ldr	r3, [r3, #0]
 80050c8:	2208      	movs	r2, #8
 80050ca:	621a      	str	r2, [r3, #32]

          /* Blocking error : transfer is aborted
          Set the UART state ready to be able to start again the process,
          Disable Rx Interrupts if ongoing */
          UART_EndRxTransfer(huart);
 80050cc:	68fb      	ldr	r3, [r7, #12]
 80050ce:	0018      	movs	r0, r3
 80050d0:	f000 f83c 	bl	800514c <UART_EndRxTransfer>

          huart->ErrorCode = HAL_UART_ERROR_ORE;
 80050d4:	68fb      	ldr	r3, [r7, #12]
 80050d6:	2290      	movs	r2, #144	@ 0x90
 80050d8:	2108      	movs	r1, #8
 80050da:	5099      	str	r1, [r3, r2]

          /* Process Unlocked */
          __HAL_UNLOCK(huart);
 80050dc:	68fb      	ldr	r3, [r7, #12]
 80050de:	2284      	movs	r2, #132	@ 0x84
 80050e0:	2100      	movs	r1, #0
 80050e2:	5499      	strb	r1, [r3, r2]

          return HAL_ERROR;
 80050e4:	2301      	movs	r3, #1
 80050e6:	e02c      	b.n	8005142 <UART_WaitOnFlagUntilTimeout+0xd6>
        }
        if (__HAL_UART_GET_FLAG(huart, UART_FLAG_RTOF) == SET)
 80050e8:	68fb      	ldr	r3, [r7, #12]
 80050ea:	681b      	ldr	r3, [r3, #0]
 80050ec:	69da      	ldr	r2, [r3, #28]
 80050ee:	2380      	movs	r3, #128	@ 0x80
 80050f0:	011b      	lsls	r3, r3, #4
 80050f2:	401a      	ands	r2, r3
 80050f4:	2380      	movs	r3, #128	@ 0x80
 80050f6:	011b      	lsls	r3, r3, #4
 80050f8:	429a      	cmp	r2, r3
 80050fa:	d112      	bne.n	8005122 <UART_WaitOnFlagUntilTimeout+0xb6>
        {
          /* Clear Receiver Timeout flag*/
          __HAL_UART_CLEAR_FLAG(huart, UART_CLEAR_RTOF);
 80050fc:	68fb      	ldr	r3, [r7, #12]
 80050fe:	681b      	ldr	r3, [r3, #0]
 8005100:	2280      	movs	r2, #128	@ 0x80
 8005102:	0112      	lsls	r2, r2, #4
 8005104:	621a      	str	r2, [r3, #32]

          /* Blocking error : transfer is aborted
          Set the UART state ready to be able to start again the process,
          Disable Rx Interrupts if ongoing */
          UART_EndRxTransfer(huart);
 8005106:	68fb      	ldr	r3, [r7, #12]
 8005108:	0018      	movs	r0, r3
 800510a:	f000 f81f 	bl	800514c <UART_EndRxTransfer>

          huart->ErrorCode = HAL_UART_ERROR_RTO;
 800510e:	68fb      	ldr	r3, [r7, #12]
 8005110:	2290      	movs	r2, #144	@ 0x90
 8005112:	2120      	movs	r1, #32
 8005114:	5099      	str	r1, [r3, r2]

          /* Process Unlocked */
          __HAL_UNLOCK(huart);
 8005116:	68fb      	ldr	r3, [r7, #12]
 8005118:	2284      	movs	r2, #132	@ 0x84
 800511a:	2100      	movs	r1, #0
 800511c:	5499      	strb	r1, [r3, r2]

          return HAL_TIMEOUT;
 800511e:	2303      	movs	r3, #3
 8005120:	e00f      	b.n	8005142 <UART_WaitOnFlagUntilTimeout+0xd6>
  while ((__HAL_UART_GET_FLAG(huart, Flag) ? SET : RESET) == Status)
 8005122:	68fb      	ldr	r3, [r7, #12]
 8005124:	681b      	ldr	r3, [r3, #0]
 8005126:	69db      	ldr	r3, [r3, #28]
 8005128:	68ba      	ldr	r2, [r7, #8]
 800512a:	4013      	ands	r3, r2
 800512c:	68ba      	ldr	r2, [r7, #8]
 800512e:	1ad3      	subs	r3, r2, r3
 8005130:	425a      	negs	r2, r3
 8005132:	4153      	adcs	r3, r2
 8005134:	b2db      	uxtb	r3, r3
 8005136:	001a      	movs	r2, r3
 8005138:	1dfb      	adds	r3, r7, #7
 800513a:	781b      	ldrb	r3, [r3, #0]
 800513c:	429a      	cmp	r2, r3
 800513e:	d09e      	beq.n	800507e <UART_WaitOnFlagUntilTimeout+0x12>
        }
      }
    }
  }
  return HAL_OK;
 8005140:	2300      	movs	r3, #0
}
 8005142:	0018      	movs	r0, r3
 8005144:	46bd      	mov	sp, r7
 8005146:	b004      	add	sp, #16
 8005148:	bd80      	pop	{r7, pc}
	...

0800514c <UART_EndRxTransfer>:
  * @brief  End ongoing Rx transfer on UART peripheral (following error detection or Reception completion).
  * @param  huart UART handle.
  * @retval None
  */
static void UART_EndRxTransfer(UART_HandleTypeDef *huart)
{
 800514c:	b580      	push	{r7, lr}
 800514e:	b08e      	sub	sp, #56	@ 0x38
 8005150:	af00      	add	r7, sp, #0
 8005152:	6078      	str	r0, [r7, #4]
  __ASM volatile ("MRS %0, primask" : "=r" (result) );
 8005154:	f3ef 8310 	mrs	r3, PRIMASK
 8005158:	617b      	str	r3, [r7, #20]
  return(result);
 800515a:	697b      	ldr	r3, [r7, #20]
  /* Disable RXNE, PE and ERR (Frame error, noise error, overrun error) interrupts */
  ATOMIC_CLEAR_BIT(huart->Instance->CR1, (USART_CR1_RXNEIE_RXFNEIE | USART_CR1_PEIE));
 800515c:	637b      	str	r3, [r7, #52]	@ 0x34
 800515e:	2301      	movs	r3, #1
 8005160:	61bb      	str	r3, [r7, #24]
  __ASM volatile ("MSR primask, %0" : : "r" (priMask) : "memory");
 8005162:	69bb      	ldr	r3, [r7, #24]
 8005164:	f383 8810 	msr	PRIMASK, r3
}
 8005168:	46c0      	nop			@ (mov r8, r8)
 800516a:	687b      	ldr	r3, [r7, #4]
 800516c:	681b      	ldr	r3, [r3, #0]
 800516e:	681a      	ldr	r2, [r3, #0]
 8005170:	687b      	ldr	r3, [r7, #4]
 8005172:	681b      	ldr	r3, [r3, #0]
 8005174:	4926      	ldr	r1, [pc, #152]	@ (8005210 <UART_EndRxTransfer+0xc4>)
 8005176:	400a      	ands	r2, r1
 8005178:	601a      	str	r2, [r3, #0]
 800517a:	6b7b      	ldr	r3, [r7, #52]	@ 0x34
 800517c:	61fb      	str	r3, [r7, #28]
  __ASM volatile ("MSR primask, %0" : : "r" (priMask) : "memory");
 800517e:	69fb      	ldr	r3, [r7, #28]
 8005180:	f383 8810 	msr	PRIMASK, r3
}
 8005184:	46c0      	nop			@ (mov r8, r8)
  __ASM volatile ("MRS %0, primask" : "=r" (result) );
 8005186:	f3ef 8310 	mrs	r3, PRIMASK
 800518a:	623b      	str	r3, [r7, #32]
  return(result);
 800518c:	6a3b      	ldr	r3, [r7, #32]
  ATOMIC_CLEAR_BIT(huart->Instance->CR3, (USART_CR3_EIE | USART_CR3_RXFTIE));
 800518e:	633b      	str	r3, [r7, #48]	@ 0x30
 8005190:	2301      	movs	r3, #1
 8005192:	627b      	str	r3, [r7, #36]	@ 0x24
  __ASM volatile ("MSR primask, %0" : : "r" (priMask) : "memory");
 8005194:	6a7b      	ldr	r3, [r7, #36]	@ 0x24
 8005196:	f383 8810 	msr	PRIMASK, r3
}
 800519a:	46c0      	nop			@ (mov r8, r8)
 800519c:	687b      	ldr	r3, [r7, #4]
 800519e:	681b      	ldr	r3, [r3, #0]
 80051a0:	689a      	ldr	r2, [r3, #8]
 80051a2:	687b      	ldr	r3, [r7, #4]
 80051a4:	681b      	ldr	r3, [r3, #0]
 80051a6:	491b      	ldr	r1, [pc, #108]	@ (8005214 <UART_EndRxTransfer+0xc8>)
 80051a8:	400a      	ands	r2, r1
 80051aa:	609a      	str	r2, [r3, #8]
 80051ac:	6b3b      	ldr	r3, [r7, #48]	@ 0x30
 80051ae:	62bb      	str	r3, [r7, #40]	@ 0x28
  __ASM volatile ("MSR primask, %0" : : "r" (priMask) : "memory");
 80051b0:	6abb      	ldr	r3, [r7, #40]	@ 0x28
 80051b2:	f383 8810 	msr	PRIMASK, r3
}
 80051b6:	46c0      	nop			@ (mov r8, r8)

  /* In case of reception waiting for IDLE event, disable also the IDLE IE interrupt source */
  if (huart->ReceptionType == HAL_UART_RECEPTION_TOIDLE)
 80051b8:	687b      	ldr	r3, [r7, #4]
 80051ba:	6edb      	ldr	r3, [r3, #108]	@ 0x6c
 80051bc:	2b01      	cmp	r3, #1
 80051be:	d118      	bne.n	80051f2 <UART_EndRxTransfer+0xa6>
  __ASM volatile ("MRS %0, primask" : "=r" (result) );
 80051c0:	f3ef 8310 	mrs	r3, PRIMASK
 80051c4:	60bb      	str	r3, [r7, #8]
  return(result);
 80051c6:	68bb      	ldr	r3, [r7, #8]
  {
    ATOMIC_CLEAR_BIT(huart->Instance->CR1, USART_CR1_IDLEIE);
 80051c8:	62fb      	str	r3, [r7, #44]	@ 0x2c
 80051ca:	2301      	movs	r3, #1
 80051cc:	60fb      	str	r3, [r7, #12]
  __ASM volatile ("MSR primask, %0" : : "r" (priMask) : "memory");
 80051ce:	68fb      	ldr	r3, [r7, #12]
 80051d0:	f383 8810 	msr	PRIMASK, r3
}
 80051d4:	46c0      	nop			@ (mov r8, r8)
 80051d6:	687b      	ldr	r3, [r7, #4]
 80051d8:	681b      	ldr	r3, [r3, #0]
 80051da:	681a      	ldr	r2, [r3, #0]
 80051dc:	687b      	ldr	r3, [r7, #4]
 80051de:	681b      	ldr	r3, [r3, #0]
 80051e0:	2110      	movs	r1, #16
 80051e2:	438a      	bics	r2, r1
 80051e4:	601a      	str	r2, [r3, #0]
 80051e6:	6afb      	ldr	r3, [r7, #44]	@ 0x2c
 80051e8:	613b      	str	r3, [r7, #16]
  __ASM volatile ("MSR primask, %0" : : "r" (priMask) : "memory");
 80051ea:	693b      	ldr	r3, [r7, #16]
 80051ec:	f383 8810 	msr	PRIMASK, r3
}
 80051f0:	46c0      	nop			@ (mov r8, r8)
  }

  /* At end of Rx process, restore huart->RxState to Ready */
  huart->RxState = HAL_UART_STATE_READY;
 80051f2:	687b      	ldr	r3, [r7, #4]
 80051f4:	228c      	movs	r2, #140	@ 0x8c
 80051f6:	2120      	movs	r1, #32
 80051f8:	5099      	str	r1, [r3, r2]
  huart->ReceptionType = HAL_UART_RECEPTION_STANDARD;
 80051fa:	687b      	ldr	r3, [r7, #4]
 80051fc:	2200      	movs	r2, #0
 80051fe:	66da      	str	r2, [r3, #108]	@ 0x6c

  /* Reset RxIsr function pointer */
  huart->RxISR = NULL;
 8005200:	687b      	ldr	r3, [r7, #4]
 8005202:	2200      	movs	r2, #0
 8005204:	675a      	str	r2, [r3, #116]	@ 0x74
}
 8005206:	46c0      	nop			@ (mov r8, r8)
 8005208:	46bd      	mov	sp, r7
 800520a:	b00e      	add	sp, #56	@ 0x38
 800520c:	bd80      	pop	{r7, pc}
 800520e:	46c0      	nop			@ (mov r8, r8)
 8005210:	fffffedf 	.word	0xfffffedf
 8005214:	effffffe 	.word	0xeffffffe

08005218 <HAL_UARTEx_DisableFifoMode>:
  * @brief  Disable the FIFO mode.
  * @param huart      UART handle.
  * @retval HAL status
  */
HAL_StatusTypeDef HAL_UARTEx_DisableFifoMode(UART_HandleTypeDef *huart)
{
 8005218:	b580      	push	{r7, lr}
 800521a:	b084      	sub	sp, #16
 800521c:	af00      	add	r7, sp, #0
 800521e:	6078      	str	r0, [r7, #4]

  /* Check parameters */
  assert_param(IS_UART_FIFO_INSTANCE(huart->Instance));

  /* Process Locked */
  __HAL_LOCK(huart);
 8005220:	687b      	ldr	r3, [r7, #4]
 8005222:	2284      	movs	r2, #132	@ 0x84
 8005224:	5c9b      	ldrb	r3, [r3, r2]
 8005226:	2b01      	cmp	r3, #1
 8005228:	d101      	bne.n	800522e <HAL_UARTEx_DisableFifoMode+0x16>
 800522a:	2302      	movs	r3, #2
 800522c:	e027      	b.n	800527e <HAL_UARTEx_DisableFifoMode+0x66>
 800522e:	687b      	ldr	r3, [r7, #4]
 8005230:	2284      	movs	r2, #132	@ 0x84
 8005232:	2101      	movs	r1, #1
 8005234:	5499      	strb	r1, [r3, r2]

  huart->gState = HAL_UART_STATE_BUSY;
 8005236:	687b      	ldr	r3, [r7, #4]
 8005238:	2288      	movs	r2, #136	@ 0x88
 800523a:	2124      	movs	r1, #36	@ 0x24
 800523c:	5099      	str	r1, [r3, r2]

  /* Save actual UART configuration */
  tmpcr1 = READ_REG(huart->Instance->CR1);
 800523e:	687b      	ldr	r3, [r7, #4]
 8005240:	681b      	ldr	r3, [r3, #0]
 8005242:	681b      	ldr	r3, [r3, #0]
 8005244:	60fb      	str	r3, [r7, #12]

  /* Disable UART */
  __HAL_UART_DISABLE(huart);
 8005246:	687b      	ldr	r3, [r7, #4]
 8005248:	681b      	ldr	r3, [r3, #0]
 800524a:	681a      	ldr	r2, [r3, #0]
 800524c:	687b      	ldr	r3, [r7, #4]
 800524e:	681b      	ldr	r3, [r3, #0]
 8005250:	2101      	movs	r1, #1
 8005252:	438a      	bics	r2, r1
 8005254:	601a      	str	r2, [r3, #0]

  /* Disable FIFO mode */
  CLEAR_BIT(tmpcr1, USART_CR1_FIFOEN);
 8005256:	68fb      	ldr	r3, [r7, #12]
 8005258:	4a0b      	ldr	r2, [pc, #44]	@ (8005288 <HAL_UARTEx_DisableFifoMode+0x70>)
 800525a:	4013      	ands	r3, r2
 800525c:	60fb      	str	r3, [r7, #12]
  huart->FifoMode = UART_FIFOMODE_DISABLE;
 800525e:	687b      	ldr	r3, [r7, #4]
 8005260:	2200      	movs	r2, #0
 8005262:	665a      	str	r2, [r3, #100]	@ 0x64

  /* Restore UART configuration */
  WRITE_REG(huart->Instance->CR1, tmpcr1);
 8005264:	687b      	ldr	r3, [r7, #4]
 8005266:	681b      	ldr	r3, [r3, #0]
 8005268:	68fa      	ldr	r2, [r7, #12]
 800526a:	601a      	str	r2, [r3, #0]

  huart->gState = HAL_UART_STATE_READY;
 800526c:	687b      	ldr	r3, [r7, #4]
 800526e:	2288      	movs	r2, #136	@ 0x88
 8005270:	2120      	movs	r1, #32
 8005272:	5099      	str	r1, [r3, r2]

  /* Process Unlocked */
  __HAL_UNLOCK(huart);
 8005274:	687b      	ldr	r3, [r7, #4]
 8005276:	2284      	movs	r2, #132	@ 0x84
 8005278:	2100      	movs	r1, #0
 800527a:	5499      	strb	r1, [r3, r2]

  return HAL_OK;
 800527c:	2300      	movs	r3, #0
}
 800527e:	0018      	movs	r0, r3
 8005280:	46bd      	mov	sp, r7
 8005282:	b004      	add	sp, #16
 8005284:	bd80      	pop	{r7, pc}
 8005286:	46c0      	nop			@ (mov r8, r8)
 8005288:	dfffffff 	.word	0xdfffffff

0800528c <HAL_UARTEx_SetTxFifoThreshold>:
  *            @arg @ref UART_TXFIFO_THRESHOLD_7_8
  *            @arg @ref UART_TXFIFO_THRESHOLD_8_8
  * @retval HAL status
  */
HAL_StatusTypeDef HAL_UARTEx_SetTxFifoThreshold(UART_HandleTypeDef *huart, uint32_t Threshold)
{
 800528c:	b580      	push	{r7, lr}
 800528e:	b084      	sub	sp, #16
 8005290:	af00      	add	r7, sp, #0
 8005292:	6078      	str	r0, [r7, #4]
 8005294:	6039      	str	r1, [r7, #0]
  /* Check parameters */
  assert_param(IS_UART_FIFO_INSTANCE(huart->Instance));
  assert_param(IS_UART_TXFIFO_THRESHOLD(Threshold));

  /* Process Locked */
  __HAL_LOCK(huart);
 8005296:	687b      	ldr	r3, [r7, #4]
 8005298:	2284      	movs	r2, #132	@ 0x84
 800529a:	5c9b      	ldrb	r3, [r3, r2]
 800529c:	2b01      	cmp	r3, #1
 800529e:	d101      	bne.n	80052a4 <HAL_UARTEx_SetTxFifoThreshold+0x18>
 80052a0:	2302      	movs	r3, #2
 80052a2:	e02e      	b.n	8005302 <HAL_UARTEx_SetTxFifoThreshold+0x76>
 80052a4:	687b      	ldr	r3, [r7, #4]
 80052a6:	2284      	movs	r2, #132	@ 0x84
 80052a8:	2101      	movs	r1, #1
 80052aa:	5499      	strb	r1, [r3, r2]

  huart->gState = HAL_UART_STATE_BUSY;
 80052ac:	687b      	ldr	r3, [r7, #4]
 80052ae:	2288      	movs	r2, #136	@ 0x88
 80052b0:	2124      	movs	r1, #36	@ 0x24
 80052b2:	5099      	str	r1, [r3, r2]

  /* Save actual UART configuration */
  tmpcr1 = READ_REG(huart->Instance->CR1);
 80052b4:	687b      	ldr	r3, [r7, #4]
 80052b6:	681b      	ldr	r3, [r3, #0]
 80052b8:	681b      	ldr	r3, [r3, #0]
 80052ba:	60fb      	str	r3, [r7, #12]

  /* Disable UART */
  __HAL_UART_DISABLE(huart);
 80052bc:	687b      	ldr	r3, [r7, #4]
 80052be:	681b      	ldr	r3, [r3, #0]
 80052c0:	681a      	ldr	r2, [r3, #0]
 80052c2:	687b      	ldr	r3, [r7, #4]
 80052c4:	681b      	ldr	r3, [r3, #0]
 80052c6:	2101      	movs	r1, #1
 80052c8:	438a      	bics	r2, r1
 80052ca:	601a      	str	r2, [r3, #0]

  /* Update TX threshold configuration */
  MODIFY_REG(huart->Instance->CR3, USART_CR3_TXFTCFG, Threshold);
 80052cc:	687b      	ldr	r3, [r7, #4]
 80052ce:	681b      	ldr	r3, [r3, #0]
 80052d0:	689b      	ldr	r3, [r3, #8]
 80052d2:	00db      	lsls	r3, r3, #3
 80052d4:	08d9      	lsrs	r1, r3, #3
 80052d6:	687b      	ldr	r3, [r7, #4]
 80052d8:	681b      	ldr	r3, [r3, #0]
 80052da:	683a      	ldr	r2, [r7, #0]
 80052dc:	430a      	orrs	r2, r1
 80052de:	609a      	str	r2, [r3, #8]

  /* Determine the number of data to process during RX/TX ISR execution */
  UARTEx_SetNbDataToProcess(huart);
 80052e0:	687b      	ldr	r3, [r7, #4]
 80052e2:	0018      	movs	r0, r3
 80052e4:	f000 f854 	bl	8005390 <UARTEx_SetNbDataToProcess>

  /* Restore UART configuration */
  WRITE_REG(huart->Instance->CR1, tmpcr1);
 80052e8:	687b      	ldr	r3, [r7, #4]
 80052ea:	681b      	ldr	r3, [r3, #0]
 80052ec:	68fa      	ldr	r2, [r7, #12]
 80052ee:	601a      	str	r2, [r3, #0]

  huart->gState = HAL_UART_STATE_READY;
 80052f0:	687b      	ldr	r3, [r7, #4]
 80052f2:	2288      	movs	r2, #136	@ 0x88
 80052f4:	2120      	movs	r1, #32
 80052f6:	5099      	str	r1, [r3, r2]

  /* Process Unlocked */
  __HAL_UNLOCK(huart);
 80052f8:	687b      	ldr	r3, [r7, #4]
 80052fa:	2284      	movs	r2, #132	@ 0x84
 80052fc:	2100      	movs	r1, #0
 80052fe:	5499      	strb	r1, [r3, r2]

  return HAL_OK;
 8005300:	2300      	movs	r3, #0
}
 8005302:	0018      	movs	r0, r3
 8005304:	46bd      	mov	sp, r7
 8005306:	b004      	add	sp, #16
 8005308:	bd80      	pop	{r7, pc}
	...

0800530c <HAL_UARTEx_SetRxFifoThreshold>:
  *            @arg @ref UART_RXFIFO_THRESHOLD_7_8
  *            @arg @ref UART_RXFIFO_THRESHOLD_8_8
  * @retval HAL status
  */
HAL_StatusTypeDef HAL_UARTEx_SetRxFifoThreshold(UART_HandleTypeDef *huart, uint32_t Threshold)
{
 800530c:	b580      	push	{r7, lr}
 800530e:	b084      	sub	sp, #16
 8005310:	af00      	add	r7, sp, #0
 8005312:	6078      	str	r0, [r7, #4]
 8005314:	6039      	str	r1, [r7, #0]
  /* Check the parameters */
  assert_param(IS_UART_FIFO_INSTANCE(huart->Instance));
  assert_param(IS_UART_RXFIFO_THRESHOLD(Threshold));

  /* Process Locked */
  __HAL_LOCK(huart);
 8005316:	687b      	ldr	r3, [r7, #4]
 8005318:	2284      	movs	r2, #132	@ 0x84
 800531a:	5c9b      	ldrb	r3, [r3, r2]
 800531c:	2b01      	cmp	r3, #1
 800531e:	d101      	bne.n	8005324 <HAL_UARTEx_SetRxFifoThreshold+0x18>
 8005320:	2302      	movs	r3, #2
 8005322:	e02f      	b.n	8005384 <HAL_UARTEx_SetRxFifoThreshold+0x78>
 8005324:	687b      	ldr	r3, [r7, #4]
 8005326:	2284      	movs	r2, #132	@ 0x84
 8005328:	2101      	movs	r1, #1
 800532a:	5499      	strb	r1, [r3, r2]

  huart->gState = HAL_UART_STATE_BUSY;
 800532c:	687b      	ldr	r3, [r7, #4]
 800532e:	2288      	movs	r2, #136	@ 0x88
 8005330:	2124      	movs	r1, #36	@ 0x24
 8005332:	5099      	str	r1, [r3, r2]

  /* Save actual UART configuration */
  tmpcr1 = READ_REG(huart->Instance->CR1);
 8005334:	687b      	ldr	r3, [r7, #4]
 8005336:	681b      	ldr	r3, [r3, #0]
 8005338:	681b      	ldr	r3, [r3, #0]
 800533a:	60fb      	str	r3, [r7, #12]

  /* Disable UART */
  __HAL_UART_DISABLE(huart);
 800533c:	687b      	ldr	r3, [r7, #4]
 800533e:	681b      	ldr	r3, [r3, #0]
 8005340:	681a      	ldr	r2, [r3, #0]
 8005342:	687b      	ldr	r3, [r7, #4]
 8005344:	681b      	ldr	r3, [r3, #0]
 8005346:	2101      	movs	r1, #1
 8005348:	438a      	bics	r2, r1
 800534a:	601a      	str	r2, [r3, #0]

  /* Update RX threshold configuration */
  MODIFY_REG(huart->Instance->CR3, USART_CR3_RXFTCFG, Threshold);
 800534c:	687b      	ldr	r3, [r7, #4]
 800534e:	681b      	ldr	r3, [r3, #0]
 8005350:	689b      	ldr	r3, [r3, #8]
 8005352:	4a0e      	ldr	r2, [pc, #56]	@ (800538c <HAL_UARTEx_SetRxFifoThreshold+0x80>)
 8005354:	4013      	ands	r3, r2
 8005356:	0019      	movs	r1, r3
 8005358:	687b      	ldr	r3, [r7, #4]
 800535a:	681b      	ldr	r3, [r3, #0]
 800535c:	683a      	ldr	r2, [r7, #0]
 800535e:	430a      	orrs	r2, r1
 8005360:	609a      	str	r2, [r3, #8]

  /* Determine the number of data to process during RX/TX ISR execution */
  UARTEx_SetNbDataToProcess(huart);
 8005362:	687b      	ldr	r3, [r7, #4]
 8005364:	0018      	movs	r0, r3
 8005366:	f000 f813 	bl	8005390 <UARTEx_SetNbDataToProcess>

  /* Restore UART configuration */
  WRITE_REG(huart->Instance->CR1, tmpcr1);
 800536a:	687b      	ldr	r3, [r7, #4]
 800536c:	681b      	ldr	r3, [r3, #0]
 800536e:	68fa      	ldr	r2, [r7, #12]
 8005370:	601a      	str	r2, [r3, #0]

  huart->gState = HAL_UART_STATE_READY;
 8005372:	687b      	ldr	r3, [r7, #4]
 8005374:	2288      	movs	r2, #136	@ 0x88
 8005376:	2120      	movs	r1, #32
 8005378:	5099      	str	r1, [r3, r2]

  /* Process Unlocked */
  __HAL_UNLOCK(huart);
 800537a:	687b      	ldr	r3, [r7, #4]
 800537c:	2284      	movs	r2, #132	@ 0x84
 800537e:	2100      	movs	r1, #0
 8005380:	5499      	strb	r1, [r3, r2]

  return HAL_OK;
 8005382:	2300      	movs	r3, #0
}
 8005384:	0018      	movs	r0, r3
 8005386:	46bd      	mov	sp, r7
 8005388:	b004      	add	sp, #16
 800538a:	bd80      	pop	{r7, pc}
 800538c:	f1ffffff 	.word	0xf1ffffff

08005390 <UARTEx_SetNbDataToProcess>:
  *       the UART configuration registers.
  * @param huart UART handle.
  * @retval None
  */
static void UARTEx_SetNbDataToProcess(UART_HandleTypeDef *huart)
{
 8005390:	b5f0      	push	{r4, r5, r6, r7, lr}
 8005392:	b085      	sub	sp, #20
 8005394:	af00      	add	r7, sp, #0
 8005396:	6078      	str	r0, [r7, #4]
  uint8_t rx_fifo_threshold;
  uint8_t tx_fifo_threshold;
  static const uint8_t numerator[] = {1U, 1U, 1U, 3U, 7U, 1U, 0U, 0U};
  static const uint8_t denominator[] = {8U, 4U, 2U, 4U, 8U, 1U, 1U, 1U};

  if (huart->FifoMode == UART_FIFOMODE_DISABLE)
 8005398:	687b      	ldr	r3, [r7, #4]
 800539a:	6e5b      	ldr	r3, [r3, #100]	@ 0x64
 800539c:	2b00      	cmp	r3, #0
 800539e:	d108      	bne.n	80053b2 <UARTEx_SetNbDataToProcess+0x22>
  {
    huart->NbTxDataToProcess = 1U;
 80053a0:	687b      	ldr	r3, [r7, #4]
 80053a2:	226a      	movs	r2, #106	@ 0x6a
 80053a4:	2101      	movs	r1, #1
 80053a6:	5299      	strh	r1, [r3, r2]
    huart->NbRxDataToProcess = 1U;
 80053a8:	687b      	ldr	r3, [r7, #4]
 80053aa:	2268      	movs	r2, #104	@ 0x68
 80053ac:	2101      	movs	r1, #1
 80053ae:	5299      	strh	r1, [r3, r2]
    huart->NbTxDataToProcess = ((uint16_t)tx_fifo_depth * numerator[tx_fifo_threshold]) /
                               (uint16_t)denominator[tx_fifo_threshold];
    huart->NbRxDataToProcess = ((uint16_t)rx_fifo_depth * numerator[rx_fifo_threshold]) /
                               (uint16_t)denominator[rx_fifo_threshold];
  }
}
 80053b0:	e043      	b.n	800543a <UARTEx_SetNbDataToProcess+0xaa>
    rx_fifo_depth = RX_FIFO_DEPTH;
 80053b2:	260f      	movs	r6, #15
 80053b4:	19bb      	adds	r3, r7, r6
 80053b6:	2208      	movs	r2, #8
 80053b8:	701a      	strb	r2, [r3, #0]
    tx_fifo_depth = TX_FIFO_DEPTH;
 80053ba:	200e      	movs	r0, #14
 80053bc:	183b      	adds	r3, r7, r0
 80053be:	2208      	movs	r2, #8
 80053c0:	701a      	strb	r2, [r3, #0]
    rx_fifo_threshold = (uint8_t)(READ_BIT(huart->Instance->CR3, USART_CR3_RXFTCFG) >> USART_CR3_RXFTCFG_Pos);
 80053c2:	687b      	ldr	r3, [r7, #4]
 80053c4:	681b      	ldr	r3, [r3, #0]
 80053c6:	689b      	ldr	r3, [r3, #8]
 80053c8:	0e5b      	lsrs	r3, r3, #25
 80053ca:	b2da      	uxtb	r2, r3
 80053cc:	240d      	movs	r4, #13
 80053ce:	193b      	adds	r3, r7, r4
 80053d0:	2107      	movs	r1, #7
 80053d2:	400a      	ands	r2, r1
 80053d4:	701a      	strb	r2, [r3, #0]
    tx_fifo_threshold = (uint8_t)(READ_BIT(huart->Instance->CR3, USART_CR3_TXFTCFG) >> USART_CR3_TXFTCFG_Pos);
 80053d6:	687b      	ldr	r3, [r7, #4]
 80053d8:	681b      	ldr	r3, [r3, #0]
 80053da:	689b      	ldr	r3, [r3, #8]
 80053dc:	0f5b      	lsrs	r3, r3, #29
 80053de:	b2da      	uxtb	r2, r3
 80053e0:	250c      	movs	r5, #12
 80053e2:	197b      	adds	r3, r7, r5
 80053e4:	2107      	movs	r1, #7
 80053e6:	400a      	ands	r2, r1
 80053e8:	701a      	strb	r2, [r3, #0]
    huart->NbTxDataToProcess = ((uint16_t)tx_fifo_depth * numerator[tx_fifo_threshold]) /
 80053ea:	183b      	adds	r3, r7, r0
 80053ec:	781b      	ldrb	r3, [r3, #0]
 80053ee:	197a      	adds	r2, r7, r5
 80053f0:	7812      	ldrb	r2, [r2, #0]
 80053f2:	4914      	ldr	r1, [pc, #80]	@ (8005444 <UARTEx_SetNbDataToProcess+0xb4>)
 80053f4:	5c8a      	ldrb	r2, [r1, r2]
 80053f6:	435a      	muls	r2, r3
 80053f8:	0010      	movs	r0, r2
                               (uint16_t)denominator[tx_fifo_threshold];
 80053fa:	197b      	adds	r3, r7, r5
 80053fc:	781b      	ldrb	r3, [r3, #0]
 80053fe:	4a12      	ldr	r2, [pc, #72]	@ (8005448 <UARTEx_SetNbDataToProcess+0xb8>)
 8005400:	5cd3      	ldrb	r3, [r2, r3]
    huart->NbTxDataToProcess = ((uint16_t)tx_fifo_depth * numerator[tx_fifo_threshold]) /
 8005402:	0019      	movs	r1, r3
 8005404:	f7fa ff1c 	bl	8000240 <__divsi3>
 8005408:	0003      	movs	r3, r0
 800540a:	b299      	uxth	r1, r3
 800540c:	687b      	ldr	r3, [r7, #4]
 800540e:	226a      	movs	r2, #106	@ 0x6a
 8005410:	5299      	strh	r1, [r3, r2]
    huart->NbRxDataToProcess = ((uint16_t)rx_fifo_depth * numerator[rx_fifo_threshold]) /
 8005412:	19bb      	adds	r3, r7, r6
 8005414:	781b      	ldrb	r3, [r3, #0]
 8005416:	193a      	adds	r2, r7, r4
 8005418:	7812      	ldrb	r2, [r2, #0]
 800541a:	490a      	ldr	r1, [pc, #40]	@ (8005444 <UARTEx_SetNbDataToProcess+0xb4>)
 800541c:	5c8a      	ldrb	r2, [r1, r2]
 800541e:	435a      	muls	r2, r3
 8005420:	0010      	movs	r0, r2
                               (uint16_t)denominator[rx_fifo_threshold];
 8005422:	193b      	adds	r3, r7, r4
 8005424:	781b      	ldrb	r3, [r3, #0]
 8005426:	4a08      	ldr	r2, [pc, #32]	@ (8005448 <UARTEx_SetNbDataToProcess+0xb8>)
 8005428:	5cd3      	ldrb	r3, [r2, r3]
    huart->NbRxDataToProcess = ((uint16_t)rx_fifo_depth * numerator[rx_fifo_threshold]) /
 800542a:	0019      	movs	r1, r3
 800542c:	f7fa ff08 	bl	8000240 <__divsi3>
 8005430:	0003      	movs	r3, r0
 8005432:	b299      	uxth	r1, r3
 8005434:	687b      	ldr	r3, [r7, #4]
 8005436:	2268      	movs	r2, #104	@ 0x68
 8005438:	5299      	strh	r1, [r3, r2]
}
 800543a:	46c0      	nop			@ (mov r8, r8)
 800543c:	46bd      	mov	sp, r7
 800543e:	b005      	add	sp, #20
 8005440:	bdf0      	pop	{r4, r5, r6, r7, pc}
 8005442:	46c0      	nop			@ (mov r8, r8)
 8005444:	08005fd4 	.word	0x08005fd4
 8005448:	08005fdc 	.word	0x08005fdc

0800544c <_vsniprintf_r>:
 800544c:	b530      	push	{r4, r5, lr}
 800544e:	0005      	movs	r5, r0
 8005450:	0014      	movs	r4, r2
 8005452:	0008      	movs	r0, r1
 8005454:	001a      	movs	r2, r3
 8005456:	b09b      	sub	sp, #108	@ 0x6c
 8005458:	2c00      	cmp	r4, #0
 800545a:	da05      	bge.n	8005468 <_vsniprintf_r+0x1c>
 800545c:	238b      	movs	r3, #139	@ 0x8b
 800545e:	2001      	movs	r0, #1
 8005460:	602b      	str	r3, [r5, #0]
 8005462:	4240      	negs	r0, r0
 8005464:	b01b      	add	sp, #108	@ 0x6c
 8005466:	bd30      	pop	{r4, r5, pc}
 8005468:	2382      	movs	r3, #130	@ 0x82
 800546a:	4669      	mov	r1, sp
 800546c:	009b      	lsls	r3, r3, #2
 800546e:	818b      	strh	r3, [r1, #12]
 8005470:	2100      	movs	r1, #0
 8005472:	9000      	str	r0, [sp, #0]
 8005474:	9119      	str	r1, [sp, #100]	@ 0x64
 8005476:	9004      	str	r0, [sp, #16]
 8005478:	428c      	cmp	r4, r1
 800547a:	d000      	beq.n	800547e <_vsniprintf_r+0x32>
 800547c:	1e61      	subs	r1, r4, #1
 800547e:	2301      	movs	r3, #1
 8005480:	9102      	str	r1, [sp, #8]
 8005482:	9105      	str	r1, [sp, #20]
 8005484:	4669      	mov	r1, sp
 8005486:	425b      	negs	r3, r3
 8005488:	81cb      	strh	r3, [r1, #14]
 800548a:	0028      	movs	r0, r5
 800548c:	9b1e      	ldr	r3, [sp, #120]	@ 0x78
 800548e:	f000 f9a7 	bl	80057e0 <_svfiprintf_r>
 8005492:	1c43      	adds	r3, r0, #1
 8005494:	da01      	bge.n	800549a <_vsniprintf_r+0x4e>
 8005496:	238b      	movs	r3, #139	@ 0x8b
 8005498:	602b      	str	r3, [r5, #0]
 800549a:	2c00      	cmp	r4, #0
 800549c:	d0e2      	beq.n	8005464 <_vsniprintf_r+0x18>
 800549e:	2200      	movs	r2, #0
 80054a0:	9b00      	ldr	r3, [sp, #0]
 80054a2:	701a      	strb	r2, [r3, #0]
 80054a4:	e7de      	b.n	8005464 <_vsniprintf_r+0x18>
	...

080054a8 <vsniprintf>:
 80054a8:	b513      	push	{r0, r1, r4, lr}
 80054aa:	4c04      	ldr	r4, [pc, #16]	@ (80054bc <vsniprintf+0x14>)
 80054ac:	9300      	str	r3, [sp, #0]
 80054ae:	0013      	movs	r3, r2
 80054b0:	000a      	movs	r2, r1
 80054b2:	0001      	movs	r1, r0
 80054b4:	6820      	ldr	r0, [r4, #0]
 80054b6:	f7ff ffc9 	bl	800544c <_vsniprintf_r>
 80054ba:	bd16      	pop	{r1, r2, r4, pc}
 80054bc:	20000020 	.word	0x20000020

080054c0 <memset>:
 80054c0:	0003      	movs	r3, r0
 80054c2:	1882      	adds	r2, r0, r2
 80054c4:	4293      	cmp	r3, r2
 80054c6:	d100      	bne.n	80054ca <memset+0xa>
 80054c8:	4770      	bx	lr
 80054ca:	7019      	strb	r1, [r3, #0]
 80054cc:	3301      	adds	r3, #1
 80054ce:	e7f9      	b.n	80054c4 <memset+0x4>

080054d0 <__errno>:
 80054d0:	4b01      	ldr	r3, [pc, #4]	@ (80054d8 <__errno+0x8>)
 80054d2:	6818      	ldr	r0, [r3, #0]
 80054d4:	4770      	bx	lr
 80054d6:	46c0      	nop			@ (mov r8, r8)
 80054d8:	20000020 	.word	0x20000020

080054dc <__libc_init_array>:
 80054dc:	b570      	push	{r4, r5, r6, lr}
 80054de:	2600      	movs	r6, #0
 80054e0:	4c0c      	ldr	r4, [pc, #48]	@ (8005514 <__libc_init_array+0x38>)
 80054e2:	4d0d      	ldr	r5, [pc, #52]	@ (8005518 <__libc_init_array+0x3c>)
 80054e4:	1b64      	subs	r4, r4, r5
 80054e6:	10a4      	asrs	r4, r4, #2
 80054e8:	42a6      	cmp	r6, r4
 80054ea:	d109      	bne.n	8005500 <__libc_init_array+0x24>
 80054ec:	2600      	movs	r6, #0
 80054ee:	f000 fc61 	bl	8005db4 <_init>
 80054f2:	4c0a      	ldr	r4, [pc, #40]	@ (800551c <__libc_init_array+0x40>)
 80054f4:	4d0a      	ldr	r5, [pc, #40]	@ (8005520 <__libc_init_array+0x44>)
 80054f6:	1b64      	subs	r4, r4, r5
 80054f8:	10a4      	asrs	r4, r4, #2
 80054fa:	42a6      	cmp	r6, r4
 80054fc:	d105      	bne.n	800550a <__libc_init_array+0x2e>
 80054fe:	bd70      	pop	{r4, r5, r6, pc}
 8005500:	00b3      	lsls	r3, r6, #2
 8005502:	58eb      	ldr	r3, [r5, r3]
 8005504:	4798      	blx	r3
 8005506:	3601      	adds	r6, #1
 8005508:	e7ee      	b.n	80054e8 <__libc_init_array+0xc>
 800550a:	00b3      	lsls	r3, r6, #2
 800550c:	58eb      	ldr	r3, [r5, r3]
 800550e:	4798      	blx	r3
 8005510:	3601      	adds	r6, #1
 8005512:	e7f2      	b.n	80054fa <__libc_init_array+0x1e>
 8005514:	08006020 	.word	0x08006020
 8005518:	08006020 	.word	0x08006020
 800551c:	08006024 	.word	0x08006024
 8005520:	08006020 	.word	0x08006020

08005524 <__retarget_lock_acquire_recursive>:
 8005524:	4770      	bx	lr

08005526 <__retarget_lock_release_recursive>:
 8005526:	4770      	bx	lr

08005528 <_free_r>:
 8005528:	b570      	push	{r4, r5, r6, lr}
 800552a:	0005      	movs	r5, r0
 800552c:	1e0c      	subs	r4, r1, #0
 800552e:	d010      	beq.n	8005552 <_free_r+0x2a>
 8005530:	3c04      	subs	r4, #4
 8005532:	6823      	ldr	r3, [r4, #0]
 8005534:	2b00      	cmp	r3, #0
 8005536:	da00      	bge.n	800553a <_free_r+0x12>
 8005538:	18e4      	adds	r4, r4, r3
 800553a:	0028      	movs	r0, r5
 800553c:	f000 f8e0 	bl	8005700 <__malloc_lock>
 8005540:	4a1d      	ldr	r2, [pc, #116]	@ (80055b8 <_free_r+0x90>)
 8005542:	6813      	ldr	r3, [r2, #0]
 8005544:	2b00      	cmp	r3, #0
 8005546:	d105      	bne.n	8005554 <_free_r+0x2c>
 8005548:	6063      	str	r3, [r4, #4]
 800554a:	6014      	str	r4, [r2, #0]
 800554c:	0028      	movs	r0, r5
 800554e:	f000 f8df 	bl	8005710 <__malloc_unlock>
 8005552:	bd70      	pop	{r4, r5, r6, pc}
 8005554:	42a3      	cmp	r3, r4
 8005556:	d908      	bls.n	800556a <_free_r+0x42>
 8005558:	6820      	ldr	r0, [r4, #0]
 800555a:	1821      	adds	r1, r4, r0
 800555c:	428b      	cmp	r3, r1
 800555e:	d1f3      	bne.n	8005548 <_free_r+0x20>
 8005560:	6819      	ldr	r1, [r3, #0]
 8005562:	685b      	ldr	r3, [r3, #4]
 8005564:	1809      	adds	r1, r1, r0
 8005566:	6021      	str	r1, [r4, #0]
 8005568:	e7ee      	b.n	8005548 <_free_r+0x20>
 800556a:	001a      	movs	r2, r3
 800556c:	685b      	ldr	r3, [r3, #4]
 800556e:	2b00      	cmp	r3, #0
 8005570:	d001      	beq.n	8005576 <_free_r+0x4e>
 8005572:	42a3      	cmp	r3, r4
 8005574:	d9f9      	bls.n	800556a <_free_r+0x42>
 8005576:	6811      	ldr	r1, [r2, #0]
 8005578:	1850      	adds	r0, r2, r1
 800557a:	42a0      	cmp	r0, r4
 800557c:	d10b      	bne.n	8005596 <_free_r+0x6e>
 800557e:	6820      	ldr	r0, [r4, #0]
 8005580:	1809      	adds	r1, r1, r0
 8005582:	1850      	adds	r0, r2, r1
 8005584:	6011      	str	r1, [r2, #0]
 8005586:	4283      	cmp	r3, r0
 8005588:	d1e0      	bne.n	800554c <_free_r+0x24>
 800558a:	6818      	ldr	r0, [r3, #0]
 800558c:	685b      	ldr	r3, [r3, #4]
 800558e:	1841      	adds	r1, r0, r1
 8005590:	6011      	str	r1, [r2, #0]
 8005592:	6053      	str	r3, [r2, #4]
 8005594:	e7da      	b.n	800554c <_free_r+0x24>
 8005596:	42a0      	cmp	r0, r4
 8005598:	d902      	bls.n	80055a0 <_free_r+0x78>
 800559a:	230c      	movs	r3, #12
 800559c:	602b      	str	r3, [r5, #0]
 800559e:	e7d5      	b.n	800554c <_free_r+0x24>
 80055a0:	6820      	ldr	r0, [r4, #0]
 80055a2:	1821      	adds	r1, r4, r0
 80055a4:	428b      	cmp	r3, r1
 80055a6:	d103      	bne.n	80055b0 <_free_r+0x88>
 80055a8:	6819      	ldr	r1, [r3, #0]
 80055aa:	685b      	ldr	r3, [r3, #4]
 80055ac:	1809      	adds	r1, r1, r0
 80055ae:	6021      	str	r1, [r4, #0]
 80055b0:	6063      	str	r3, [r4, #4]
 80055b2:	6054      	str	r4, [r2, #4]
 80055b4:	e7ca      	b.n	800554c <_free_r+0x24>
 80055b6:	46c0      	nop			@ (mov r8, r8)
 80055b8:	2000037c 	.word	0x2000037c

080055bc <sbrk_aligned>:
 80055bc:	b570      	push	{r4, r5, r6, lr}
 80055be:	4e0f      	ldr	r6, [pc, #60]	@ (80055fc <sbrk_aligned+0x40>)
 80055c0:	000d      	movs	r5, r1
 80055c2:	6831      	ldr	r1, [r6, #0]
 80055c4:	0004      	movs	r4, r0
 80055c6:	2900      	cmp	r1, #0
 80055c8:	d102      	bne.n	80055d0 <sbrk_aligned+0x14>
 80055ca:	f000 fb95 	bl	8005cf8 <_sbrk_r>
 80055ce:	6030      	str	r0, [r6, #0]
 80055d0:	0029      	movs	r1, r5
 80055d2:	0020      	movs	r0, r4
 80055d4:	f000 fb90 	bl	8005cf8 <_sbrk_r>
 80055d8:	1c43      	adds	r3, r0, #1
 80055da:	d103      	bne.n	80055e4 <sbrk_aligned+0x28>
 80055dc:	2501      	movs	r5, #1
 80055de:	426d      	negs	r5, r5
 80055e0:	0028      	movs	r0, r5
 80055e2:	bd70      	pop	{r4, r5, r6, pc}
 80055e4:	2303      	movs	r3, #3
 80055e6:	1cc5      	adds	r5, r0, #3
 80055e8:	439d      	bics	r5, r3
 80055ea:	42a8      	cmp	r0, r5
 80055ec:	d0f8      	beq.n	80055e0 <sbrk_aligned+0x24>
 80055ee:	1a29      	subs	r1, r5, r0
 80055f0:	0020      	movs	r0, r4
 80055f2:	f000 fb81 	bl	8005cf8 <_sbrk_r>
 80055f6:	3001      	adds	r0, #1
 80055f8:	d1f2      	bne.n	80055e0 <sbrk_aligned+0x24>
 80055fa:	e7ef      	b.n	80055dc <sbrk_aligned+0x20>
 80055fc:	20000378 	.word	0x20000378

08005600 <_malloc_r>:
 8005600:	b5f7      	push	{r0, r1, r2, r4, r5, r6, r7, lr}
 8005602:	2203      	movs	r2, #3
 8005604:	1ccb      	adds	r3, r1, #3
 8005606:	4393      	bics	r3, r2
 8005608:	3308      	adds	r3, #8
 800560a:	0005      	movs	r5, r0
 800560c:	001f      	movs	r7, r3
 800560e:	2b0c      	cmp	r3, #12
 8005610:	d234      	bcs.n	800567c <_malloc_r+0x7c>
 8005612:	270c      	movs	r7, #12
 8005614:	42b9      	cmp	r1, r7
 8005616:	d833      	bhi.n	8005680 <_malloc_r+0x80>
 8005618:	0028      	movs	r0, r5
 800561a:	f000 f871 	bl	8005700 <__malloc_lock>
 800561e:	4e37      	ldr	r6, [pc, #220]	@ (80056fc <_malloc_r+0xfc>)
 8005620:	6833      	ldr	r3, [r6, #0]
 8005622:	001c      	movs	r4, r3
 8005624:	2c00      	cmp	r4, #0
 8005626:	d12f      	bne.n	8005688 <_malloc_r+0x88>
 8005628:	0039      	movs	r1, r7
 800562a:	0028      	movs	r0, r5
 800562c:	f7ff ffc6 	bl	80055bc <sbrk_aligned>
 8005630:	0004      	movs	r4, r0
 8005632:	1c43      	adds	r3, r0, #1
 8005634:	d15f      	bne.n	80056f6 <_malloc_r+0xf6>
 8005636:	6834      	ldr	r4, [r6, #0]
 8005638:	9400      	str	r4, [sp, #0]
 800563a:	9b00      	ldr	r3, [sp, #0]
 800563c:	2b00      	cmp	r3, #0
 800563e:	d14a      	bne.n	80056d6 <_malloc_r+0xd6>
 8005640:	2c00      	cmp	r4, #0
 8005642:	d052      	beq.n	80056ea <_malloc_r+0xea>
 8005644:	6823      	ldr	r3, [r4, #0]
 8005646:	0028      	movs	r0, r5
 8005648:	18e3      	adds	r3, r4, r3
 800564a:	9900      	ldr	r1, [sp, #0]
 800564c:	9301      	str	r3, [sp, #4]
 800564e:	f000 fb53 	bl	8005cf8 <_sbrk_r>
 8005652:	9b01      	ldr	r3, [sp, #4]
 8005654:	4283      	cmp	r3, r0
 8005656:	d148      	bne.n	80056ea <_malloc_r+0xea>
 8005658:	6823      	ldr	r3, [r4, #0]
 800565a:	0028      	movs	r0, r5
 800565c:	1aff      	subs	r7, r7, r3
 800565e:	0039      	movs	r1, r7
 8005660:	f7ff ffac 	bl	80055bc <sbrk_aligned>
 8005664:	3001      	adds	r0, #1
 8005666:	d040      	beq.n	80056ea <_malloc_r+0xea>
 8005668:	6823      	ldr	r3, [r4, #0]
 800566a:	19db      	adds	r3, r3, r7
 800566c:	6023      	str	r3, [r4, #0]
 800566e:	6833      	ldr	r3, [r6, #0]
 8005670:	685a      	ldr	r2, [r3, #4]
 8005672:	2a00      	cmp	r2, #0
 8005674:	d133      	bne.n	80056de <_malloc_r+0xde>
 8005676:	9b00      	ldr	r3, [sp, #0]
 8005678:	6033      	str	r3, [r6, #0]
 800567a:	e019      	b.n	80056b0 <_malloc_r+0xb0>
 800567c:	2b00      	cmp	r3, #0
 800567e:	dac9      	bge.n	8005614 <_malloc_r+0x14>
 8005680:	230c      	movs	r3, #12
 8005682:	602b      	str	r3, [r5, #0]
 8005684:	2000      	movs	r0, #0
 8005686:	bdfe      	pop	{r1, r2, r3, r4, r5, r6, r7, pc}
 8005688:	6821      	ldr	r1, [r4, #0]
 800568a:	1bc9      	subs	r1, r1, r7
 800568c:	d420      	bmi.n	80056d0 <_malloc_r+0xd0>
 800568e:	290b      	cmp	r1, #11
 8005690:	d90a      	bls.n	80056a8 <_malloc_r+0xa8>
 8005692:	19e2      	adds	r2, r4, r7
 8005694:	6027      	str	r7, [r4, #0]
 8005696:	42a3      	cmp	r3, r4
 8005698:	d104      	bne.n	80056a4 <_malloc_r+0xa4>
 800569a:	6032      	str	r2, [r6, #0]
 800569c:	6863      	ldr	r3, [r4, #4]
 800569e:	6011      	str	r1, [r2, #0]
 80056a0:	6053      	str	r3, [r2, #4]
 80056a2:	e005      	b.n	80056b0 <_malloc_r+0xb0>
 80056a4:	605a      	str	r2, [r3, #4]
 80056a6:	e7f9      	b.n	800569c <_malloc_r+0x9c>
 80056a8:	6862      	ldr	r2, [r4, #4]
 80056aa:	42a3      	cmp	r3, r4
 80056ac:	d10e      	bne.n	80056cc <_malloc_r+0xcc>
 80056ae:	6032      	str	r2, [r6, #0]
 80056b0:	0028      	movs	r0, r5
 80056b2:	f000 f82d 	bl	8005710 <__malloc_unlock>
 80056b6:	0020      	movs	r0, r4
 80056b8:	2207      	movs	r2, #7
 80056ba:	300b      	adds	r0, #11
 80056bc:	1d23      	adds	r3, r4, #4
 80056be:	4390      	bics	r0, r2
 80056c0:	1ac2      	subs	r2, r0, r3
 80056c2:	4298      	cmp	r0, r3
 80056c4:	d0df      	beq.n	8005686 <_malloc_r+0x86>
 80056c6:	1a1b      	subs	r3, r3, r0
 80056c8:	50a3      	str	r3, [r4, r2]
 80056ca:	e7dc      	b.n	8005686 <_malloc_r+0x86>
 80056cc:	605a      	str	r2, [r3, #4]
 80056ce:	e7ef      	b.n	80056b0 <_malloc_r+0xb0>
 80056d0:	0023      	movs	r3, r4
 80056d2:	6864      	ldr	r4, [r4, #4]
 80056d4:	e7a6      	b.n	8005624 <_malloc_r+0x24>
 80056d6:	9c00      	ldr	r4, [sp, #0]
 80056d8:	6863      	ldr	r3, [r4, #4]
 80056da:	9300      	str	r3, [sp, #0]
 80056dc:	e7ad      	b.n	800563a <_malloc_r+0x3a>
 80056de:	001a      	movs	r2, r3
 80056e0:	685b      	ldr	r3, [r3, #4]
 80056e2:	42a3      	cmp	r3, r4
 80056e4:	d1fb      	bne.n	80056de <_malloc_r+0xde>
 80056e6:	2300      	movs	r3, #0
 80056e8:	e7da      	b.n	80056a0 <_malloc_r+0xa0>
 80056ea:	230c      	movs	r3, #12
 80056ec:	0028      	movs	r0, r5
 80056ee:	602b      	str	r3, [r5, #0]
 80056f0:	f000 f80e 	bl	8005710 <__malloc_unlock>
 80056f4:	e7c6      	b.n	8005684 <_malloc_r+0x84>
 80056f6:	6007      	str	r7, [r0, #0]
 80056f8:	e7da      	b.n	80056b0 <_malloc_r+0xb0>
 80056fa:	46c0      	nop			@ (mov r8, r8)
 80056fc:	2000037c 	.word	0x2000037c

08005700 <__malloc_lock>:
 8005700:	b510      	push	{r4, lr}
 8005702:	4802      	ldr	r0, [pc, #8]	@ (800570c <__malloc_lock+0xc>)
 8005704:	f7ff ff0e 	bl	8005524 <__retarget_lock_acquire_recursive>
 8005708:	bd10      	pop	{r4, pc}
 800570a:	46c0      	nop			@ (mov r8, r8)
 800570c:	20000374 	.word	0x20000374

08005710 <__malloc_unlock>:
 8005710:	b510      	push	{r4, lr}
 8005712:	4802      	ldr	r0, [pc, #8]	@ (800571c <__malloc_unlock+0xc>)
 8005714:	f7ff ff07 	bl	8005526 <__retarget_lock_release_recursive>
 8005718:	bd10      	pop	{r4, pc}
 800571a:	46c0      	nop			@ (mov r8, r8)
 800571c:	20000374 	.word	0x20000374

08005720 <__ssputs_r>:
 8005720:	b5f0      	push	{r4, r5, r6, r7, lr}
 8005722:	688e      	ldr	r6, [r1, #8]
 8005724:	b085      	sub	sp, #20
 8005726:	001f      	movs	r7, r3
 8005728:	000c      	movs	r4, r1
 800572a:	680b      	ldr	r3, [r1, #0]
 800572c:	9002      	str	r0, [sp, #8]
 800572e:	9203      	str	r2, [sp, #12]
 8005730:	42be      	cmp	r6, r7
 8005732:	d830      	bhi.n	8005796 <__ssputs_r+0x76>
 8005734:	210c      	movs	r1, #12
 8005736:	5e62      	ldrsh	r2, [r4, r1]
 8005738:	2190      	movs	r1, #144	@ 0x90
 800573a:	00c9      	lsls	r1, r1, #3
 800573c:	420a      	tst	r2, r1
 800573e:	d028      	beq.n	8005792 <__ssputs_r+0x72>
 8005740:	2003      	movs	r0, #3
 8005742:	6921      	ldr	r1, [r4, #16]
 8005744:	1a5b      	subs	r3, r3, r1
 8005746:	9301      	str	r3, [sp, #4]
 8005748:	6963      	ldr	r3, [r4, #20]
 800574a:	4343      	muls	r3, r0
 800574c:	9801      	ldr	r0, [sp, #4]
 800574e:	0fdd      	lsrs	r5, r3, #31
 8005750:	18ed      	adds	r5, r5, r3
 8005752:	1c7b      	adds	r3, r7, #1
 8005754:	181b      	adds	r3, r3, r0
 8005756:	106d      	asrs	r5, r5, #1
 8005758:	42ab      	cmp	r3, r5
 800575a:	d900      	bls.n	800575e <__ssputs_r+0x3e>
 800575c:	001d      	movs	r5, r3
 800575e:	0552      	lsls	r2, r2, #21
 8005760:	d528      	bpl.n	80057b4 <__ssputs_r+0x94>
 8005762:	0029      	movs	r1, r5
 8005764:	9802      	ldr	r0, [sp, #8]
 8005766:	f7ff ff4b 	bl	8005600 <_malloc_r>
 800576a:	1e06      	subs	r6, r0, #0
 800576c:	d02c      	beq.n	80057c8 <__ssputs_r+0xa8>
 800576e:	9a01      	ldr	r2, [sp, #4]
 8005770:	6921      	ldr	r1, [r4, #16]
 8005772:	f000 fade 	bl	8005d32 <memcpy>
 8005776:	89a2      	ldrh	r2, [r4, #12]
 8005778:	4b18      	ldr	r3, [pc, #96]	@ (80057dc <__ssputs_r+0xbc>)
 800577a:	401a      	ands	r2, r3
 800577c:	2380      	movs	r3, #128	@ 0x80
 800577e:	4313      	orrs	r3, r2
 8005780:	81a3      	strh	r3, [r4, #12]
 8005782:	9b01      	ldr	r3, [sp, #4]
 8005784:	6126      	str	r6, [r4, #16]
 8005786:	18f6      	adds	r6, r6, r3
 8005788:	6026      	str	r6, [r4, #0]
 800578a:	003e      	movs	r6, r7
 800578c:	6165      	str	r5, [r4, #20]
 800578e:	1aed      	subs	r5, r5, r3
 8005790:	60a5      	str	r5, [r4, #8]
 8005792:	42be      	cmp	r6, r7
 8005794:	d900      	bls.n	8005798 <__ssputs_r+0x78>
 8005796:	003e      	movs	r6, r7
 8005798:	0032      	movs	r2, r6
 800579a:	9903      	ldr	r1, [sp, #12]
 800579c:	6820      	ldr	r0, [r4, #0]
 800579e:	f000 fa99 	bl	8005cd4 <memmove>
 80057a2:	2000      	movs	r0, #0
 80057a4:	68a3      	ldr	r3, [r4, #8]
 80057a6:	1b9b      	subs	r3, r3, r6
 80057a8:	60a3      	str	r3, [r4, #8]
 80057aa:	6823      	ldr	r3, [r4, #0]
 80057ac:	199b      	adds	r3, r3, r6
 80057ae:	6023      	str	r3, [r4, #0]
 80057b0:	b005      	add	sp, #20
 80057b2:	bdf0      	pop	{r4, r5, r6, r7, pc}
 80057b4:	002a      	movs	r2, r5
 80057b6:	9802      	ldr	r0, [sp, #8]
 80057b8:	f000 fac4 	bl	8005d44 <_realloc_r>
 80057bc:	1e06      	subs	r6, r0, #0
 80057be:	d1e0      	bne.n	8005782 <__ssputs_r+0x62>
 80057c0:	6921      	ldr	r1, [r4, #16]
 80057c2:	9802      	ldr	r0, [sp, #8]
 80057c4:	f7ff feb0 	bl	8005528 <_free_r>
 80057c8:	230c      	movs	r3, #12
 80057ca:	2001      	movs	r0, #1
 80057cc:	9a02      	ldr	r2, [sp, #8]
 80057ce:	4240      	negs	r0, r0
 80057d0:	6013      	str	r3, [r2, #0]
 80057d2:	89a2      	ldrh	r2, [r4, #12]
 80057d4:	3334      	adds	r3, #52	@ 0x34
 80057d6:	4313      	orrs	r3, r2
 80057d8:	81a3      	strh	r3, [r4, #12]
 80057da:	e7e9      	b.n	80057b0 <__ssputs_r+0x90>
 80057dc:	fffffb7f 	.word	0xfffffb7f

080057e0 <_svfiprintf_r>:
 80057e0:	b5f0      	push	{r4, r5, r6, r7, lr}
 80057e2:	b0a1      	sub	sp, #132	@ 0x84
 80057e4:	9003      	str	r0, [sp, #12]
 80057e6:	001d      	movs	r5, r3
 80057e8:	898b      	ldrh	r3, [r1, #12]
 80057ea:	000f      	movs	r7, r1
 80057ec:	0016      	movs	r6, r2
 80057ee:	061b      	lsls	r3, r3, #24
 80057f0:	d511      	bpl.n	8005816 <_svfiprintf_r+0x36>
 80057f2:	690b      	ldr	r3, [r1, #16]
 80057f4:	2b00      	cmp	r3, #0
 80057f6:	d10e      	bne.n	8005816 <_svfiprintf_r+0x36>
 80057f8:	2140      	movs	r1, #64	@ 0x40
 80057fa:	f7ff ff01 	bl	8005600 <_malloc_r>
 80057fe:	6038      	str	r0, [r7, #0]
 8005800:	6138      	str	r0, [r7, #16]
 8005802:	2800      	cmp	r0, #0
 8005804:	d105      	bne.n	8005812 <_svfiprintf_r+0x32>
 8005806:	230c      	movs	r3, #12
 8005808:	9a03      	ldr	r2, [sp, #12]
 800580a:	6013      	str	r3, [r2, #0]
 800580c:	2001      	movs	r0, #1
 800580e:	4240      	negs	r0, r0
 8005810:	e0cf      	b.n	80059b2 <_svfiprintf_r+0x1d2>
 8005812:	2340      	movs	r3, #64	@ 0x40
 8005814:	617b      	str	r3, [r7, #20]
 8005816:	2300      	movs	r3, #0
 8005818:	ac08      	add	r4, sp, #32
 800581a:	6163      	str	r3, [r4, #20]
 800581c:	3320      	adds	r3, #32
 800581e:	7663      	strb	r3, [r4, #25]
 8005820:	3310      	adds	r3, #16
 8005822:	76a3      	strb	r3, [r4, #26]
 8005824:	9507      	str	r5, [sp, #28]
 8005826:	0035      	movs	r5, r6
 8005828:	782b      	ldrb	r3, [r5, #0]
 800582a:	2b00      	cmp	r3, #0
 800582c:	d001      	beq.n	8005832 <_svfiprintf_r+0x52>
 800582e:	2b25      	cmp	r3, #37	@ 0x25
 8005830:	d148      	bne.n	80058c4 <_svfiprintf_r+0xe4>
 8005832:	1bab      	subs	r3, r5, r6
 8005834:	9305      	str	r3, [sp, #20]
 8005836:	42b5      	cmp	r5, r6
 8005838:	d00b      	beq.n	8005852 <_svfiprintf_r+0x72>
 800583a:	0032      	movs	r2, r6
 800583c:	0039      	movs	r1, r7
 800583e:	9803      	ldr	r0, [sp, #12]
 8005840:	f7ff ff6e 	bl	8005720 <__ssputs_r>
 8005844:	3001      	adds	r0, #1
 8005846:	d100      	bne.n	800584a <_svfiprintf_r+0x6a>
 8005848:	e0ae      	b.n	80059a8 <_svfiprintf_r+0x1c8>
 800584a:	6963      	ldr	r3, [r4, #20]
 800584c:	9a05      	ldr	r2, [sp, #20]
 800584e:	189b      	adds	r3, r3, r2
 8005850:	6163      	str	r3, [r4, #20]
 8005852:	782b      	ldrb	r3, [r5, #0]
 8005854:	2b00      	cmp	r3, #0
 8005856:	d100      	bne.n	800585a <_svfiprintf_r+0x7a>
 8005858:	e0a6      	b.n	80059a8 <_svfiprintf_r+0x1c8>
 800585a:	2201      	movs	r2, #1
 800585c:	2300      	movs	r3, #0
 800585e:	4252      	negs	r2, r2
 8005860:	6062      	str	r2, [r4, #4]
 8005862:	a904      	add	r1, sp, #16
 8005864:	3254      	adds	r2, #84	@ 0x54
 8005866:	1852      	adds	r2, r2, r1
 8005868:	1c6e      	adds	r6, r5, #1
 800586a:	6023      	str	r3, [r4, #0]
 800586c:	60e3      	str	r3, [r4, #12]
 800586e:	60a3      	str	r3, [r4, #8]
 8005870:	7013      	strb	r3, [r2, #0]
 8005872:	65a3      	str	r3, [r4, #88]	@ 0x58
 8005874:	4b54      	ldr	r3, [pc, #336]	@ (80059c8 <_svfiprintf_r+0x1e8>)
 8005876:	2205      	movs	r2, #5
 8005878:	0018      	movs	r0, r3
 800587a:	7831      	ldrb	r1, [r6, #0]
 800587c:	9305      	str	r3, [sp, #20]
 800587e:	f000 fa4d 	bl	8005d1c <memchr>
 8005882:	1c75      	adds	r5, r6, #1
 8005884:	2800      	cmp	r0, #0
 8005886:	d11f      	bne.n	80058c8 <_svfiprintf_r+0xe8>
 8005888:	6822      	ldr	r2, [r4, #0]
 800588a:	06d3      	lsls	r3, r2, #27
 800588c:	d504      	bpl.n	8005898 <_svfiprintf_r+0xb8>
 800588e:	2353      	movs	r3, #83	@ 0x53
 8005890:	a904      	add	r1, sp, #16
 8005892:	185b      	adds	r3, r3, r1
 8005894:	2120      	movs	r1, #32
 8005896:	7019      	strb	r1, [r3, #0]
 8005898:	0713      	lsls	r3, r2, #28
 800589a:	d504      	bpl.n	80058a6 <_svfiprintf_r+0xc6>
 800589c:	2353      	movs	r3, #83	@ 0x53
 800589e:	a904      	add	r1, sp, #16
 80058a0:	185b      	adds	r3, r3, r1
 80058a2:	212b      	movs	r1, #43	@ 0x2b
 80058a4:	7019      	strb	r1, [r3, #0]
 80058a6:	7833      	ldrb	r3, [r6, #0]
 80058a8:	2b2a      	cmp	r3, #42	@ 0x2a
 80058aa:	d016      	beq.n	80058da <_svfiprintf_r+0xfa>
 80058ac:	0035      	movs	r5, r6
 80058ae:	2100      	movs	r1, #0
 80058b0:	200a      	movs	r0, #10
 80058b2:	68e3      	ldr	r3, [r4, #12]
 80058b4:	782a      	ldrb	r2, [r5, #0]
 80058b6:	1c6e      	adds	r6, r5, #1
 80058b8:	3a30      	subs	r2, #48	@ 0x30
 80058ba:	2a09      	cmp	r2, #9
 80058bc:	d950      	bls.n	8005960 <_svfiprintf_r+0x180>
 80058be:	2900      	cmp	r1, #0
 80058c0:	d111      	bne.n	80058e6 <_svfiprintf_r+0x106>
 80058c2:	e017      	b.n	80058f4 <_svfiprintf_r+0x114>
 80058c4:	3501      	adds	r5, #1
 80058c6:	e7af      	b.n	8005828 <_svfiprintf_r+0x48>
 80058c8:	9b05      	ldr	r3, [sp, #20]
 80058ca:	6822      	ldr	r2, [r4, #0]
 80058cc:	1ac0      	subs	r0, r0, r3
 80058ce:	2301      	movs	r3, #1
 80058d0:	4083      	lsls	r3, r0
 80058d2:	4313      	orrs	r3, r2
 80058d4:	002e      	movs	r6, r5
 80058d6:	6023      	str	r3, [r4, #0]
 80058d8:	e7cc      	b.n	8005874 <_svfiprintf_r+0x94>
 80058da:	9b07      	ldr	r3, [sp, #28]
 80058dc:	1d19      	adds	r1, r3, #4
 80058de:	681b      	ldr	r3, [r3, #0]
 80058e0:	9107      	str	r1, [sp, #28]
 80058e2:	2b00      	cmp	r3, #0
 80058e4:	db01      	blt.n	80058ea <_svfiprintf_r+0x10a>
 80058e6:	930b      	str	r3, [sp, #44]	@ 0x2c
 80058e8:	e004      	b.n	80058f4 <_svfiprintf_r+0x114>
 80058ea:	425b      	negs	r3, r3
 80058ec:	60e3      	str	r3, [r4, #12]
 80058ee:	2302      	movs	r3, #2
 80058f0:	4313      	orrs	r3, r2
 80058f2:	6023      	str	r3, [r4, #0]
 80058f4:	782b      	ldrb	r3, [r5, #0]
 80058f6:	2b2e      	cmp	r3, #46	@ 0x2e
 80058f8:	d10c      	bne.n	8005914 <_svfiprintf_r+0x134>
 80058fa:	786b      	ldrb	r3, [r5, #1]
 80058fc:	2b2a      	cmp	r3, #42	@ 0x2a
 80058fe:	d134      	bne.n	800596a <_svfiprintf_r+0x18a>
 8005900:	9b07      	ldr	r3, [sp, #28]
 8005902:	3502      	adds	r5, #2
 8005904:	1d1a      	adds	r2, r3, #4
 8005906:	681b      	ldr	r3, [r3, #0]
 8005908:	9207      	str	r2, [sp, #28]
 800590a:	2b00      	cmp	r3, #0
 800590c:	da01      	bge.n	8005912 <_svfiprintf_r+0x132>
 800590e:	2301      	movs	r3, #1
 8005910:	425b      	negs	r3, r3
 8005912:	9309      	str	r3, [sp, #36]	@ 0x24
 8005914:	4e2d      	ldr	r6, [pc, #180]	@ (80059cc <_svfiprintf_r+0x1ec>)
 8005916:	2203      	movs	r2, #3
 8005918:	0030      	movs	r0, r6
 800591a:	7829      	ldrb	r1, [r5, #0]
 800591c:	f000 f9fe 	bl	8005d1c <memchr>
 8005920:	2800      	cmp	r0, #0
 8005922:	d006      	beq.n	8005932 <_svfiprintf_r+0x152>
 8005924:	2340      	movs	r3, #64	@ 0x40
 8005926:	1b80      	subs	r0, r0, r6
 8005928:	4083      	lsls	r3, r0
 800592a:	6822      	ldr	r2, [r4, #0]
 800592c:	3501      	adds	r5, #1
 800592e:	4313      	orrs	r3, r2
 8005930:	6023      	str	r3, [r4, #0]
 8005932:	7829      	ldrb	r1, [r5, #0]
 8005934:	2206      	movs	r2, #6
 8005936:	4826      	ldr	r0, [pc, #152]	@ (80059d0 <_svfiprintf_r+0x1f0>)
 8005938:	1c6e      	adds	r6, r5, #1
 800593a:	7621      	strb	r1, [r4, #24]
 800593c:	f000 f9ee 	bl	8005d1c <memchr>
 8005940:	2800      	cmp	r0, #0
 8005942:	d038      	beq.n	80059b6 <_svfiprintf_r+0x1d6>
 8005944:	4b23      	ldr	r3, [pc, #140]	@ (80059d4 <_svfiprintf_r+0x1f4>)
 8005946:	2b00      	cmp	r3, #0
 8005948:	d122      	bne.n	8005990 <_svfiprintf_r+0x1b0>
 800594a:	2207      	movs	r2, #7
 800594c:	9b07      	ldr	r3, [sp, #28]
 800594e:	3307      	adds	r3, #7
 8005950:	4393      	bics	r3, r2
 8005952:	3308      	adds	r3, #8
 8005954:	9307      	str	r3, [sp, #28]
 8005956:	6963      	ldr	r3, [r4, #20]
 8005958:	9a04      	ldr	r2, [sp, #16]
 800595a:	189b      	adds	r3, r3, r2
 800595c:	6163      	str	r3, [r4, #20]
 800595e:	e762      	b.n	8005826 <_svfiprintf_r+0x46>
 8005960:	4343      	muls	r3, r0
 8005962:	0035      	movs	r5, r6
 8005964:	2101      	movs	r1, #1
 8005966:	189b      	adds	r3, r3, r2
 8005968:	e7a4      	b.n	80058b4 <_svfiprintf_r+0xd4>
 800596a:	2300      	movs	r3, #0
 800596c:	200a      	movs	r0, #10
 800596e:	0019      	movs	r1, r3
 8005970:	3501      	adds	r5, #1
 8005972:	6063      	str	r3, [r4, #4]
 8005974:	782a      	ldrb	r2, [r5, #0]
 8005976:	1c6e      	adds	r6, r5, #1
 8005978:	3a30      	subs	r2, #48	@ 0x30
 800597a:	2a09      	cmp	r2, #9
 800597c:	d903      	bls.n	8005986 <_svfiprintf_r+0x1a6>
 800597e:	2b00      	cmp	r3, #0
 8005980:	d0c8      	beq.n	8005914 <_svfiprintf_r+0x134>
 8005982:	9109      	str	r1, [sp, #36]	@ 0x24
 8005984:	e7c6      	b.n	8005914 <_svfiprintf_r+0x134>
 8005986:	4341      	muls	r1, r0
 8005988:	0035      	movs	r5, r6
 800598a:	2301      	movs	r3, #1
 800598c:	1889      	adds	r1, r1, r2
 800598e:	e7f1      	b.n	8005974 <_svfiprintf_r+0x194>
 8005990:	aa07      	add	r2, sp, #28
 8005992:	9200      	str	r2, [sp, #0]
 8005994:	0021      	movs	r1, r4
 8005996:	003a      	movs	r2, r7
 8005998:	4b0f      	ldr	r3, [pc, #60]	@ (80059d8 <_svfiprintf_r+0x1f8>)
 800599a:	9803      	ldr	r0, [sp, #12]
 800599c:	e000      	b.n	80059a0 <_svfiprintf_r+0x1c0>
 800599e:	bf00      	nop
 80059a0:	9004      	str	r0, [sp, #16]
 80059a2:	9b04      	ldr	r3, [sp, #16]
 80059a4:	3301      	adds	r3, #1
 80059a6:	d1d6      	bne.n	8005956 <_svfiprintf_r+0x176>
 80059a8:	89bb      	ldrh	r3, [r7, #12]
 80059aa:	980d      	ldr	r0, [sp, #52]	@ 0x34
 80059ac:	065b      	lsls	r3, r3, #25
 80059ae:	d500      	bpl.n	80059b2 <_svfiprintf_r+0x1d2>
 80059b0:	e72c      	b.n	800580c <_svfiprintf_r+0x2c>
 80059b2:	b021      	add	sp, #132	@ 0x84
 80059b4:	bdf0      	pop	{r4, r5, r6, r7, pc}
 80059b6:	aa07      	add	r2, sp, #28
 80059b8:	9200      	str	r2, [sp, #0]
 80059ba:	0021      	movs	r1, r4
 80059bc:	003a      	movs	r2, r7
 80059be:	4b06      	ldr	r3, [pc, #24]	@ (80059d8 <_svfiprintf_r+0x1f8>)
 80059c0:	9803      	ldr	r0, [sp, #12]
 80059c2:	f000 f87b 	bl	8005abc <_printf_i>
 80059c6:	e7eb      	b.n	80059a0 <_svfiprintf_r+0x1c0>
 80059c8:	08005fe4 	.word	0x08005fe4
 80059cc:	08005fea 	.word	0x08005fea
 80059d0:	08005fee 	.word	0x08005fee
 80059d4:	00000000 	.word	0x00000000
 80059d8:	08005721 	.word	0x08005721

080059dc <_printf_common>:
 80059dc:	b5f7      	push	{r0, r1, r2, r4, r5, r6, r7, lr}
 80059de:	0016      	movs	r6, r2
 80059e0:	9301      	str	r3, [sp, #4]
 80059e2:	688a      	ldr	r2, [r1, #8]
 80059e4:	690b      	ldr	r3, [r1, #16]
 80059e6:	000c      	movs	r4, r1
 80059e8:	9000      	str	r0, [sp, #0]
 80059ea:	4293      	cmp	r3, r2
 80059ec:	da00      	bge.n	80059f0 <_printf_common+0x14>
 80059ee:	0013      	movs	r3, r2
 80059f0:	0022      	movs	r2, r4
 80059f2:	6033      	str	r3, [r6, #0]
 80059f4:	3243      	adds	r2, #67	@ 0x43
 80059f6:	7812      	ldrb	r2, [r2, #0]
 80059f8:	2a00      	cmp	r2, #0
 80059fa:	d001      	beq.n	8005a00 <_printf_common+0x24>
 80059fc:	3301      	adds	r3, #1
 80059fe:	6033      	str	r3, [r6, #0]
 8005a00:	6823      	ldr	r3, [r4, #0]
 8005a02:	069b      	lsls	r3, r3, #26
 8005a04:	d502      	bpl.n	8005a0c <_printf_common+0x30>
 8005a06:	6833      	ldr	r3, [r6, #0]
 8005a08:	3302      	adds	r3, #2
 8005a0a:	6033      	str	r3, [r6, #0]
 8005a0c:	6822      	ldr	r2, [r4, #0]
 8005a0e:	2306      	movs	r3, #6
 8005a10:	0015      	movs	r5, r2
 8005a12:	401d      	ands	r5, r3
 8005a14:	421a      	tst	r2, r3
 8005a16:	d027      	beq.n	8005a68 <_printf_common+0x8c>
 8005a18:	0023      	movs	r3, r4
 8005a1a:	3343      	adds	r3, #67	@ 0x43
 8005a1c:	781b      	ldrb	r3, [r3, #0]
 8005a1e:	1e5a      	subs	r2, r3, #1
 8005a20:	4193      	sbcs	r3, r2
 8005a22:	6822      	ldr	r2, [r4, #0]
 8005a24:	0692      	lsls	r2, r2, #26
 8005a26:	d430      	bmi.n	8005a8a <_printf_common+0xae>
 8005a28:	0022      	movs	r2, r4
 8005a2a:	9901      	ldr	r1, [sp, #4]
 8005a2c:	9800      	ldr	r0, [sp, #0]
 8005a2e:	9d08      	ldr	r5, [sp, #32]
 8005a30:	3243      	adds	r2, #67	@ 0x43
 8005a32:	47a8      	blx	r5
 8005a34:	3001      	adds	r0, #1
 8005a36:	d025      	beq.n	8005a84 <_printf_common+0xa8>
 8005a38:	2206      	movs	r2, #6
 8005a3a:	6823      	ldr	r3, [r4, #0]
 8005a3c:	2500      	movs	r5, #0
 8005a3e:	4013      	ands	r3, r2
 8005a40:	2b04      	cmp	r3, #4
 8005a42:	d105      	bne.n	8005a50 <_printf_common+0x74>
 8005a44:	6833      	ldr	r3, [r6, #0]
 8005a46:	68e5      	ldr	r5, [r4, #12]
 8005a48:	1aed      	subs	r5, r5, r3
 8005a4a:	43eb      	mvns	r3, r5
 8005a4c:	17db      	asrs	r3, r3, #31
 8005a4e:	401d      	ands	r5, r3
 8005a50:	68a3      	ldr	r3, [r4, #8]
 8005a52:	6922      	ldr	r2, [r4, #16]
 8005a54:	4293      	cmp	r3, r2
 8005a56:	dd01      	ble.n	8005a5c <_printf_common+0x80>
 8005a58:	1a9b      	subs	r3, r3, r2
 8005a5a:	18ed      	adds	r5, r5, r3
 8005a5c:	2600      	movs	r6, #0
 8005a5e:	42b5      	cmp	r5, r6
 8005a60:	d120      	bne.n	8005aa4 <_printf_common+0xc8>
 8005a62:	2000      	movs	r0, #0
 8005a64:	e010      	b.n	8005a88 <_printf_common+0xac>
 8005a66:	3501      	adds	r5, #1
 8005a68:	68e3      	ldr	r3, [r4, #12]
 8005a6a:	6832      	ldr	r2, [r6, #0]
 8005a6c:	1a9b      	subs	r3, r3, r2
 8005a6e:	42ab      	cmp	r3, r5
 8005a70:	ddd2      	ble.n	8005a18 <_printf_common+0x3c>
 8005a72:	0022      	movs	r2, r4
 8005a74:	2301      	movs	r3, #1
 8005a76:	9901      	ldr	r1, [sp, #4]
 8005a78:	9800      	ldr	r0, [sp, #0]
 8005a7a:	9f08      	ldr	r7, [sp, #32]
 8005a7c:	3219      	adds	r2, #25
 8005a7e:	47b8      	blx	r7
 8005a80:	3001      	adds	r0, #1
 8005a82:	d1f0      	bne.n	8005a66 <_printf_common+0x8a>
 8005a84:	2001      	movs	r0, #1
 8005a86:	4240      	negs	r0, r0
 8005a88:	bdfe      	pop	{r1, r2, r3, r4, r5, r6, r7, pc}
 8005a8a:	2030      	movs	r0, #48	@ 0x30
 8005a8c:	18e1      	adds	r1, r4, r3
 8005a8e:	3143      	adds	r1, #67	@ 0x43
 8005a90:	7008      	strb	r0, [r1, #0]
 8005a92:	0021      	movs	r1, r4
 8005a94:	1c5a      	adds	r2, r3, #1
 8005a96:	3145      	adds	r1, #69	@ 0x45
 8005a98:	7809      	ldrb	r1, [r1, #0]
 8005a9a:	18a2      	adds	r2, r4, r2
 8005a9c:	3243      	adds	r2, #67	@ 0x43
 8005a9e:	3302      	adds	r3, #2
 8005aa0:	7011      	strb	r1, [r2, #0]
 8005aa2:	e7c1      	b.n	8005a28 <_printf_common+0x4c>
 8005aa4:	0022      	movs	r2, r4
 8005aa6:	2301      	movs	r3, #1
 8005aa8:	9901      	ldr	r1, [sp, #4]
 8005aaa:	9800      	ldr	r0, [sp, #0]
 8005aac:	9f08      	ldr	r7, [sp, #32]
 8005aae:	321a      	adds	r2, #26
 8005ab0:	47b8      	blx	r7
 8005ab2:	3001      	adds	r0, #1
 8005ab4:	d0e6      	beq.n	8005a84 <_printf_common+0xa8>
 8005ab6:	3601      	adds	r6, #1
 8005ab8:	e7d1      	b.n	8005a5e <_printf_common+0x82>
	...

08005abc <_printf_i>:
 8005abc:	b5f0      	push	{r4, r5, r6, r7, lr}
 8005abe:	b08b      	sub	sp, #44	@ 0x2c
 8005ac0:	9206      	str	r2, [sp, #24]
 8005ac2:	000a      	movs	r2, r1
 8005ac4:	3243      	adds	r2, #67	@ 0x43
 8005ac6:	9307      	str	r3, [sp, #28]
 8005ac8:	9005      	str	r0, [sp, #20]
 8005aca:	9203      	str	r2, [sp, #12]
 8005acc:	7e0a      	ldrb	r2, [r1, #24]
 8005ace:	000c      	movs	r4, r1
 8005ad0:	9b10      	ldr	r3, [sp, #64]	@ 0x40
 8005ad2:	2a78      	cmp	r2, #120	@ 0x78
 8005ad4:	d809      	bhi.n	8005aea <_printf_i+0x2e>
 8005ad6:	2a62      	cmp	r2, #98	@ 0x62
 8005ad8:	d80b      	bhi.n	8005af2 <_printf_i+0x36>
 8005ada:	2a00      	cmp	r2, #0
 8005adc:	d100      	bne.n	8005ae0 <_printf_i+0x24>
 8005ade:	e0ba      	b.n	8005c56 <_printf_i+0x19a>
 8005ae0:	497a      	ldr	r1, [pc, #488]	@ (8005ccc <_printf_i+0x210>)
 8005ae2:	9104      	str	r1, [sp, #16]
 8005ae4:	2a58      	cmp	r2, #88	@ 0x58
 8005ae6:	d100      	bne.n	8005aea <_printf_i+0x2e>
 8005ae8:	e08e      	b.n	8005c08 <_printf_i+0x14c>
 8005aea:	0025      	movs	r5, r4
 8005aec:	3542      	adds	r5, #66	@ 0x42
 8005aee:	702a      	strb	r2, [r5, #0]
 8005af0:	e022      	b.n	8005b38 <_printf_i+0x7c>
 8005af2:	0010      	movs	r0, r2
 8005af4:	3863      	subs	r0, #99	@ 0x63
 8005af6:	2815      	cmp	r0, #21
 8005af8:	d8f7      	bhi.n	8005aea <_printf_i+0x2e>
 8005afa:	f7fa fb0d 	bl	8000118 <__gnu_thumb1_case_shi>
 8005afe:	0016      	.short	0x0016
 8005b00:	fff6001f 	.word	0xfff6001f
 8005b04:	fff6fff6 	.word	0xfff6fff6
 8005b08:	001ffff6 	.word	0x001ffff6
 8005b0c:	fff6fff6 	.word	0xfff6fff6
 8005b10:	fff6fff6 	.word	0xfff6fff6
 8005b14:	0036009f 	.word	0x0036009f
 8005b18:	fff6007e 	.word	0xfff6007e
 8005b1c:	00b0fff6 	.word	0x00b0fff6
 8005b20:	0036fff6 	.word	0x0036fff6
 8005b24:	fff6fff6 	.word	0xfff6fff6
 8005b28:	0082      	.short	0x0082
 8005b2a:	0025      	movs	r5, r4
 8005b2c:	681a      	ldr	r2, [r3, #0]
 8005b2e:	3542      	adds	r5, #66	@ 0x42
 8005b30:	1d11      	adds	r1, r2, #4
 8005b32:	6019      	str	r1, [r3, #0]
 8005b34:	6813      	ldr	r3, [r2, #0]
 8005b36:	702b      	strb	r3, [r5, #0]
 8005b38:	2301      	movs	r3, #1
 8005b3a:	e09e      	b.n	8005c7a <_printf_i+0x1be>
 8005b3c:	6818      	ldr	r0, [r3, #0]
 8005b3e:	6809      	ldr	r1, [r1, #0]
 8005b40:	1d02      	adds	r2, r0, #4
 8005b42:	060d      	lsls	r5, r1, #24
 8005b44:	d50b      	bpl.n	8005b5e <_printf_i+0xa2>
 8005b46:	6806      	ldr	r6, [r0, #0]
 8005b48:	601a      	str	r2, [r3, #0]
 8005b4a:	2e00      	cmp	r6, #0
 8005b4c:	da03      	bge.n	8005b56 <_printf_i+0x9a>
 8005b4e:	232d      	movs	r3, #45	@ 0x2d
 8005b50:	9a03      	ldr	r2, [sp, #12]
 8005b52:	4276      	negs	r6, r6
 8005b54:	7013      	strb	r3, [r2, #0]
 8005b56:	4b5d      	ldr	r3, [pc, #372]	@ (8005ccc <_printf_i+0x210>)
 8005b58:	270a      	movs	r7, #10
 8005b5a:	9304      	str	r3, [sp, #16]
 8005b5c:	e018      	b.n	8005b90 <_printf_i+0xd4>
 8005b5e:	6806      	ldr	r6, [r0, #0]
 8005b60:	601a      	str	r2, [r3, #0]
 8005b62:	0649      	lsls	r1, r1, #25
 8005b64:	d5f1      	bpl.n	8005b4a <_printf_i+0x8e>
 8005b66:	b236      	sxth	r6, r6
 8005b68:	e7ef      	b.n	8005b4a <_printf_i+0x8e>
 8005b6a:	6808      	ldr	r0, [r1, #0]
 8005b6c:	6819      	ldr	r1, [r3, #0]
 8005b6e:	c940      	ldmia	r1!, {r6}
 8005b70:	0605      	lsls	r5, r0, #24
 8005b72:	d402      	bmi.n	8005b7a <_printf_i+0xbe>
 8005b74:	0640      	lsls	r0, r0, #25
 8005b76:	d500      	bpl.n	8005b7a <_printf_i+0xbe>
 8005b78:	b2b6      	uxth	r6, r6
 8005b7a:	6019      	str	r1, [r3, #0]
 8005b7c:	4b53      	ldr	r3, [pc, #332]	@ (8005ccc <_printf_i+0x210>)
 8005b7e:	270a      	movs	r7, #10
 8005b80:	9304      	str	r3, [sp, #16]
 8005b82:	2a6f      	cmp	r2, #111	@ 0x6f
 8005b84:	d100      	bne.n	8005b88 <_printf_i+0xcc>
 8005b86:	3f02      	subs	r7, #2
 8005b88:	0023      	movs	r3, r4
 8005b8a:	2200      	movs	r2, #0
 8005b8c:	3343      	adds	r3, #67	@ 0x43
 8005b8e:	701a      	strb	r2, [r3, #0]
 8005b90:	6863      	ldr	r3, [r4, #4]
 8005b92:	60a3      	str	r3, [r4, #8]
 8005b94:	2b00      	cmp	r3, #0
 8005b96:	db06      	blt.n	8005ba6 <_printf_i+0xea>
 8005b98:	2104      	movs	r1, #4
 8005b9a:	6822      	ldr	r2, [r4, #0]
 8005b9c:	9d03      	ldr	r5, [sp, #12]
 8005b9e:	438a      	bics	r2, r1
 8005ba0:	6022      	str	r2, [r4, #0]
 8005ba2:	4333      	orrs	r3, r6
 8005ba4:	d00c      	beq.n	8005bc0 <_printf_i+0x104>
 8005ba6:	9d03      	ldr	r5, [sp, #12]
 8005ba8:	0030      	movs	r0, r6
 8005baa:	0039      	movs	r1, r7
 8005bac:	f7fa fb44 	bl	8000238 <__aeabi_uidivmod>
 8005bb0:	9b04      	ldr	r3, [sp, #16]
 8005bb2:	3d01      	subs	r5, #1
 8005bb4:	5c5b      	ldrb	r3, [r3, r1]
 8005bb6:	702b      	strb	r3, [r5, #0]
 8005bb8:	0033      	movs	r3, r6
 8005bba:	0006      	movs	r6, r0
 8005bbc:	429f      	cmp	r7, r3
 8005bbe:	d9f3      	bls.n	8005ba8 <_printf_i+0xec>
 8005bc0:	2f08      	cmp	r7, #8
 8005bc2:	d109      	bne.n	8005bd8 <_printf_i+0x11c>
 8005bc4:	6823      	ldr	r3, [r4, #0]
 8005bc6:	07db      	lsls	r3, r3, #31
 8005bc8:	d506      	bpl.n	8005bd8 <_printf_i+0x11c>
 8005bca:	6862      	ldr	r2, [r4, #4]
 8005bcc:	6923      	ldr	r3, [r4, #16]
 8005bce:	429a      	cmp	r2, r3
 8005bd0:	dc02      	bgt.n	8005bd8 <_printf_i+0x11c>
 8005bd2:	2330      	movs	r3, #48	@ 0x30
 8005bd4:	3d01      	subs	r5, #1
 8005bd6:	702b      	strb	r3, [r5, #0]
 8005bd8:	9b03      	ldr	r3, [sp, #12]
 8005bda:	1b5b      	subs	r3, r3, r5
 8005bdc:	6123      	str	r3, [r4, #16]
 8005bde:	9b07      	ldr	r3, [sp, #28]
 8005be0:	0021      	movs	r1, r4
 8005be2:	9300      	str	r3, [sp, #0]
 8005be4:	9805      	ldr	r0, [sp, #20]
 8005be6:	9b06      	ldr	r3, [sp, #24]
 8005be8:	aa09      	add	r2, sp, #36	@ 0x24
 8005bea:	f7ff fef7 	bl	80059dc <_printf_common>
 8005bee:	3001      	adds	r0, #1
 8005bf0:	d148      	bne.n	8005c84 <_printf_i+0x1c8>
 8005bf2:	2001      	movs	r0, #1
 8005bf4:	4240      	negs	r0, r0
 8005bf6:	b00b      	add	sp, #44	@ 0x2c
 8005bf8:	bdf0      	pop	{r4, r5, r6, r7, pc}
 8005bfa:	2220      	movs	r2, #32
 8005bfc:	6809      	ldr	r1, [r1, #0]
 8005bfe:	430a      	orrs	r2, r1
 8005c00:	6022      	str	r2, [r4, #0]
 8005c02:	2278      	movs	r2, #120	@ 0x78
 8005c04:	4932      	ldr	r1, [pc, #200]	@ (8005cd0 <_printf_i+0x214>)
 8005c06:	9104      	str	r1, [sp, #16]
 8005c08:	0021      	movs	r1, r4
 8005c0a:	3145      	adds	r1, #69	@ 0x45
 8005c0c:	700a      	strb	r2, [r1, #0]
 8005c0e:	6819      	ldr	r1, [r3, #0]
 8005c10:	6822      	ldr	r2, [r4, #0]
 8005c12:	c940      	ldmia	r1!, {r6}
 8005c14:	0610      	lsls	r0, r2, #24
 8005c16:	d402      	bmi.n	8005c1e <_printf_i+0x162>
 8005c18:	0650      	lsls	r0, r2, #25
 8005c1a:	d500      	bpl.n	8005c1e <_printf_i+0x162>
 8005c1c:	b2b6      	uxth	r6, r6
 8005c1e:	6019      	str	r1, [r3, #0]
 8005c20:	07d3      	lsls	r3, r2, #31
 8005c22:	d502      	bpl.n	8005c2a <_printf_i+0x16e>
 8005c24:	2320      	movs	r3, #32
 8005c26:	4313      	orrs	r3, r2
 8005c28:	6023      	str	r3, [r4, #0]
 8005c2a:	2e00      	cmp	r6, #0
 8005c2c:	d001      	beq.n	8005c32 <_printf_i+0x176>
 8005c2e:	2710      	movs	r7, #16
 8005c30:	e7aa      	b.n	8005b88 <_printf_i+0xcc>
 8005c32:	2220      	movs	r2, #32
 8005c34:	6823      	ldr	r3, [r4, #0]
 8005c36:	4393      	bics	r3, r2
 8005c38:	6023      	str	r3, [r4, #0]
 8005c3a:	e7f8      	b.n	8005c2e <_printf_i+0x172>
 8005c3c:	681a      	ldr	r2, [r3, #0]
 8005c3e:	680d      	ldr	r5, [r1, #0]
 8005c40:	1d10      	adds	r0, r2, #4
 8005c42:	6949      	ldr	r1, [r1, #20]
 8005c44:	6018      	str	r0, [r3, #0]
 8005c46:	6813      	ldr	r3, [r2, #0]
 8005c48:	062e      	lsls	r6, r5, #24
 8005c4a:	d501      	bpl.n	8005c50 <_printf_i+0x194>
 8005c4c:	6019      	str	r1, [r3, #0]
 8005c4e:	e002      	b.n	8005c56 <_printf_i+0x19a>
 8005c50:	066d      	lsls	r5, r5, #25
 8005c52:	d5fb      	bpl.n	8005c4c <_printf_i+0x190>
 8005c54:	8019      	strh	r1, [r3, #0]
 8005c56:	2300      	movs	r3, #0
 8005c58:	9d03      	ldr	r5, [sp, #12]
 8005c5a:	6123      	str	r3, [r4, #16]
 8005c5c:	e7bf      	b.n	8005bde <_printf_i+0x122>
 8005c5e:	681a      	ldr	r2, [r3, #0]
 8005c60:	1d11      	adds	r1, r2, #4
 8005c62:	6019      	str	r1, [r3, #0]
 8005c64:	6815      	ldr	r5, [r2, #0]
 8005c66:	2100      	movs	r1, #0
 8005c68:	0028      	movs	r0, r5
 8005c6a:	6862      	ldr	r2, [r4, #4]
 8005c6c:	f000 f856 	bl	8005d1c <memchr>
 8005c70:	2800      	cmp	r0, #0
 8005c72:	d001      	beq.n	8005c78 <_printf_i+0x1bc>
 8005c74:	1b40      	subs	r0, r0, r5
 8005c76:	6060      	str	r0, [r4, #4]
 8005c78:	6863      	ldr	r3, [r4, #4]
 8005c7a:	6123      	str	r3, [r4, #16]
 8005c7c:	2300      	movs	r3, #0
 8005c7e:	9a03      	ldr	r2, [sp, #12]
 8005c80:	7013      	strb	r3, [r2, #0]
 8005c82:	e7ac      	b.n	8005bde <_printf_i+0x122>
 8005c84:	002a      	movs	r2, r5
 8005c86:	6923      	ldr	r3, [r4, #16]
 8005c88:	9906      	ldr	r1, [sp, #24]
 8005c8a:	9805      	ldr	r0, [sp, #20]
 8005c8c:	9d07      	ldr	r5, [sp, #28]
 8005c8e:	47a8      	blx	r5
 8005c90:	3001      	adds	r0, #1
 8005c92:	d0ae      	beq.n	8005bf2 <_printf_i+0x136>
 8005c94:	6823      	ldr	r3, [r4, #0]
 8005c96:	079b      	lsls	r3, r3, #30
 8005c98:	d415      	bmi.n	8005cc6 <_printf_i+0x20a>
 8005c9a:	9b09      	ldr	r3, [sp, #36]	@ 0x24
 8005c9c:	68e0      	ldr	r0, [r4, #12]
 8005c9e:	4298      	cmp	r0, r3
 8005ca0:	daa9      	bge.n	8005bf6 <_printf_i+0x13a>
 8005ca2:	0018      	movs	r0, r3
 8005ca4:	e7a7      	b.n	8005bf6 <_printf_i+0x13a>
 8005ca6:	0022      	movs	r2, r4
 8005ca8:	2301      	movs	r3, #1
 8005caa:	9906      	ldr	r1, [sp, #24]
 8005cac:	9805      	ldr	r0, [sp, #20]
 8005cae:	9e07      	ldr	r6, [sp, #28]
 8005cb0:	3219      	adds	r2, #25
 8005cb2:	47b0      	blx	r6
 8005cb4:	3001      	adds	r0, #1
 8005cb6:	d09c      	beq.n	8005bf2 <_printf_i+0x136>
 8005cb8:	3501      	adds	r5, #1
 8005cba:	68e3      	ldr	r3, [r4, #12]
 8005cbc:	9a09      	ldr	r2, [sp, #36]	@ 0x24
 8005cbe:	1a9b      	subs	r3, r3, r2
 8005cc0:	42ab      	cmp	r3, r5
 8005cc2:	dcf0      	bgt.n	8005ca6 <_printf_i+0x1ea>
 8005cc4:	e7e9      	b.n	8005c9a <_printf_i+0x1de>
 8005cc6:	2500      	movs	r5, #0
 8005cc8:	e7f7      	b.n	8005cba <_printf_i+0x1fe>
 8005cca:	46c0      	nop			@ (mov r8, r8)
 8005ccc:	08005ff5 	.word	0x08005ff5
 8005cd0:	08006006 	.word	0x08006006

08005cd4 <memmove>:
 8005cd4:	b510      	push	{r4, lr}
 8005cd6:	4288      	cmp	r0, r1
 8005cd8:	d902      	bls.n	8005ce0 <memmove+0xc>
 8005cda:	188b      	adds	r3, r1, r2
 8005cdc:	4298      	cmp	r0, r3
 8005cde:	d308      	bcc.n	8005cf2 <memmove+0x1e>
 8005ce0:	2300      	movs	r3, #0
 8005ce2:	429a      	cmp	r2, r3
 8005ce4:	d007      	beq.n	8005cf6 <memmove+0x22>
 8005ce6:	5ccc      	ldrb	r4, [r1, r3]
 8005ce8:	54c4      	strb	r4, [r0, r3]
 8005cea:	3301      	adds	r3, #1
 8005cec:	e7f9      	b.n	8005ce2 <memmove+0xe>
 8005cee:	5c8b      	ldrb	r3, [r1, r2]
 8005cf0:	5483      	strb	r3, [r0, r2]
 8005cf2:	3a01      	subs	r2, #1
 8005cf4:	d2fb      	bcs.n	8005cee <memmove+0x1a>
 8005cf6:	bd10      	pop	{r4, pc}

08005cf8 <_sbrk_r>:
 8005cf8:	2300      	movs	r3, #0
 8005cfa:	b570      	push	{r4, r5, r6, lr}
 8005cfc:	4d06      	ldr	r5, [pc, #24]	@ (8005d18 <_sbrk_r+0x20>)
 8005cfe:	0004      	movs	r4, r0
 8005d00:	0008      	movs	r0, r1
 8005d02:	602b      	str	r3, [r5, #0]
 8005d04:	f7fb fb5e 	bl	80013c4 <_sbrk>
 8005d08:	1c43      	adds	r3, r0, #1
 8005d0a:	d103      	bne.n	8005d14 <_sbrk_r+0x1c>
 8005d0c:	682b      	ldr	r3, [r5, #0]
 8005d0e:	2b00      	cmp	r3, #0
 8005d10:	d000      	beq.n	8005d14 <_sbrk_r+0x1c>
 8005d12:	6023      	str	r3, [r4, #0]
 8005d14:	bd70      	pop	{r4, r5, r6, pc}
 8005d16:	46c0      	nop			@ (mov r8, r8)
 8005d18:	20000370 	.word	0x20000370

08005d1c <memchr>:
 8005d1c:	b2c9      	uxtb	r1, r1
 8005d1e:	1882      	adds	r2, r0, r2
 8005d20:	4290      	cmp	r0, r2
 8005d22:	d101      	bne.n	8005d28 <memchr+0xc>
 8005d24:	2000      	movs	r0, #0
 8005d26:	4770      	bx	lr
 8005d28:	7803      	ldrb	r3, [r0, #0]
 8005d2a:	428b      	cmp	r3, r1
 8005d2c:	d0fb      	beq.n	8005d26 <memchr+0xa>
 8005d2e:	3001      	adds	r0, #1
 8005d30:	e7f6      	b.n	8005d20 <memchr+0x4>

08005d32 <memcpy>:
 8005d32:	2300      	movs	r3, #0
 8005d34:	b510      	push	{r4, lr}
 8005d36:	429a      	cmp	r2, r3
 8005d38:	d100      	bne.n	8005d3c <memcpy+0xa>
 8005d3a:	bd10      	pop	{r4, pc}
 8005d3c:	5ccc      	ldrb	r4, [r1, r3]
 8005d3e:	54c4      	strb	r4, [r0, r3]
 8005d40:	3301      	adds	r3, #1
 8005d42:	e7f8      	b.n	8005d36 <memcpy+0x4>

08005d44 <_realloc_r>:
 8005d44:	b5f7      	push	{r0, r1, r2, r4, r5, r6, r7, lr}
 8005d46:	0006      	movs	r6, r0
 8005d48:	000c      	movs	r4, r1
 8005d4a:	0015      	movs	r5, r2
 8005d4c:	2900      	cmp	r1, #0
 8005d4e:	d105      	bne.n	8005d5c <_realloc_r+0x18>
 8005d50:	0011      	movs	r1, r2
 8005d52:	f7ff fc55 	bl	8005600 <_malloc_r>
 8005d56:	0004      	movs	r4, r0
 8005d58:	0020      	movs	r0, r4
 8005d5a:	bdfe      	pop	{r1, r2, r3, r4, r5, r6, r7, pc}
 8005d5c:	2a00      	cmp	r2, #0
 8005d5e:	d103      	bne.n	8005d68 <_realloc_r+0x24>
 8005d60:	f7ff fbe2 	bl	8005528 <_free_r>
 8005d64:	002c      	movs	r4, r5
 8005d66:	e7f7      	b.n	8005d58 <_realloc_r+0x14>
 8005d68:	f000 f81c 	bl	8005da4 <_malloc_usable_size_r>
 8005d6c:	0007      	movs	r7, r0
 8005d6e:	4285      	cmp	r5, r0
 8005d70:	d802      	bhi.n	8005d78 <_realloc_r+0x34>
 8005d72:	0843      	lsrs	r3, r0, #1
 8005d74:	42ab      	cmp	r3, r5
 8005d76:	d3ef      	bcc.n	8005d58 <_realloc_r+0x14>
 8005d78:	0029      	movs	r1, r5
 8005d7a:	0030      	movs	r0, r6
 8005d7c:	f7ff fc40 	bl	8005600 <_malloc_r>
 8005d80:	9001      	str	r0, [sp, #4]
 8005d82:	2800      	cmp	r0, #0
 8005d84:	d101      	bne.n	8005d8a <_realloc_r+0x46>
 8005d86:	9c01      	ldr	r4, [sp, #4]
 8005d88:	e7e6      	b.n	8005d58 <_realloc_r+0x14>
 8005d8a:	002a      	movs	r2, r5
 8005d8c:	42bd      	cmp	r5, r7
 8005d8e:	d900      	bls.n	8005d92 <_realloc_r+0x4e>
 8005d90:	003a      	movs	r2, r7
 8005d92:	0021      	movs	r1, r4
 8005d94:	9801      	ldr	r0, [sp, #4]
 8005d96:	f7ff ffcc 	bl	8005d32 <memcpy>
 8005d9a:	0021      	movs	r1, r4
 8005d9c:	0030      	movs	r0, r6
 8005d9e:	f7ff fbc3 	bl	8005528 <_free_r>
 8005da2:	e7f0      	b.n	8005d86 <_realloc_r+0x42>

08005da4 <_malloc_usable_size_r>:
 8005da4:	1f0b      	subs	r3, r1, #4
 8005da6:	681b      	ldr	r3, [r3, #0]
 8005da8:	1f18      	subs	r0, r3, #4
 8005daa:	2b00      	cmp	r3, #0
 8005dac:	da01      	bge.n	8005db2 <_malloc_usable_size_r+0xe>
 8005dae:	580b      	ldr	r3, [r1, r0]
 8005db0:	18c0      	adds	r0, r0, r3
 8005db2:	4770      	bx	lr

08005db4 <_init>:
 8005db4:	b5f8      	push	{r3, r4, r5, r6, r7, lr}
 8005db6:	46c0      	nop			@ (mov r8, r8)
 8005db8:	bcf8      	pop	{r3, r4, r5, r6, r7}
 8005dba:	bc08      	pop	{r3}
 8005dbc:	469e      	mov	lr, r3
 8005dbe:	4770      	bx	lr

08005dc0 <_fini>:
 8005dc0:	b5f8      	push	{r3, r4, r5, r6, r7, lr}
 8005dc2:	46c0      	nop			@ (mov r8, r8)
 8005dc4:	bcf8      	pop	{r3, r4, r5, r6, r7}
 8005dc6:	bc08      	pop	{r3}
 8005dc8:	469e      	mov	lr, r3
 8005dca:	4770      	bx	lr
